
303_2.elf:     file format elf32-littlenios2
303_2.elf
architecture: nios2:r1, flags 0x00000112:
EXEC_P, HAS_SYMS, D_PAGED
start address 0x00800244

Program Header:
    LOAD off    0x00001000 vaddr 0x00800000 paddr 0x00800000 align 2**12
         filesz 0x00000020 memsz 0x00000020 flags r-x
    LOAD off    0x00001020 vaddr 0x00800020 paddr 0x00800020 align 2**12
         filesz 0x0000d164 memsz 0x0000d164 flags r-x
    LOAD off    0x0000e184 vaddr 0x0080d184 paddr 0x0080e9cc align 2**12
         filesz 0x00001848 memsz 0x00001848 flags rw-
    LOAD off    0x00010214 vaddr 0x00810214 paddr 0x00810214 align 2**12
         filesz 0x00000000 memsz 0x00000358 flags rw-

Sections:
Idx Name          Size      VMA       LMA       File off  Algn
  0 .entry        00000020  00800000  00800000  00001000  2**5
                  CONTENTS, ALLOC, LOAD, READONLY, CODE
  1 .exceptions   00000224  00800020  00800020  00001020  2**2
                  CONTENTS, ALLOC, LOAD, READONLY, CODE
  2 .text         0000cb78  00800244  00800244  00001244  2**2
                  CONTENTS, ALLOC, LOAD, READONLY, CODE
  3 .rodata       000003c8  0080cdbc  0080cdbc  0000ddbc  2**2
                  CONTENTS, ALLOC, LOAD, READONLY, DATA
  4 .rwdata       00001848  0080d184  0080e9cc  0000e184  2**2
                  CONTENTS, ALLOC, LOAD, DATA, SMALL_DATA
  5 .bss          00000358  00810214  00810214  00010214  2**2
                  ALLOC, SMALL_DATA
  6 .sdram        00000000  0081056c  0081056c  0000f9cc  2**0
                  CONTENTS
  7 .onchip_mem   00000000  01008000  01008000  0000f9cc  2**0
                  CONTENTS
  8 .comment      00000023  00000000  00000000  0000f9cc  2**0
                  CONTENTS, READONLY
  9 .debug_aranges 00000868  00000000  00000000  0000f9f0  2**3
                  CONTENTS, READONLY, DEBUGGING
 10 .debug_info   0000d3fd  00000000  00000000  00010258  2**0
                  CONTENTS, READONLY, DEBUGGING
 11 .debug_abbrev 0000410d  00000000  00000000  0001d655  2**0
                  CONTENTS, READONLY, DEBUGGING
 12 .debug_line   00006505  00000000  00000000  00021762  2**0
                  CONTENTS, READONLY, DEBUGGING
 13 .debug_frame  000012e8  00000000  00000000  00027c68  2**2
                  CONTENTS, READONLY, DEBUGGING
 14 .debug_str    000030f9  00000000  00000000  00028f50  2**0
                  CONTENTS, READONLY, DEBUGGING
 15 .debug_loc    00003f40  00000000  00000000  0002c049  2**0
                  CONTENTS, READONLY, DEBUGGING
 16 .debug_alt_sim_info 00000060  00000000  00000000  0002ff8c  2**2
                  CONTENTS, READONLY, DEBUGGING
 17 .debug_ranges 00000810  00000000  00000000  0002fff0  2**3
                  CONTENTS, READONLY, DEBUGGING
 18 .thread_model 00000003  00000000  00000000  00032da5  2**0
                  CONTENTS, READONLY
 19 .cpu          00000003  00000000  00000000  00032da8  2**0
                  CONTENTS, READONLY
 20 .qsys         00000001  00000000  00000000  00032dab  2**0
                  CONTENTS, READONLY
 21 .simulation_enabled 00000001  00000000  00000000  00032dac  2**0
                  CONTENTS, READONLY
 22 .stderr_dev   00000009  00000000  00000000  00032dad  2**0
                  CONTENTS, READONLY
 23 .stdin_dev    00000009  00000000  00000000  00032db6  2**0
                  CONTENTS, READONLY
 24 .stdout_dev   00000009  00000000  00000000  00032dbf  2**0
                  CONTENTS, READONLY
 25 .sopc_system_name 0000000c  00000000  00000000  00032dc8  2**0
                  CONTENTS, READONLY
 26 .quartus_project_dir 00000019  00000000  00000000  00032dd4  2**0
                  CONTENTS, READONLY
 27 .sopcinfo     0006b17b  00000000  00000000  00032ded  2**0
                  CONTENTS, READONLY
SYMBOL TABLE:
00800000 l    d  .entry	00000000 .entry
00800020 l    d  .exceptions	00000000 .exceptions
00800244 l    d  .text	00000000 .text
0080cdbc l    d  .rodata	00000000 .rodata
0080d184 l    d  .rwdata	00000000 .rwdata
00810214 l    d  .bss	00000000 .bss
0081056c l    d  .sdram	00000000 .sdram
01008000 l    d  .onchip_mem	00000000 .onchip_mem
00000000 l    d  .comment	00000000 .comment
00000000 l    d  .debug_aranges	00000000 .debug_aranges
00000000 l    d  .debug_info	00000000 .debug_info
00000000 l    d  .debug_abbrev	00000000 .debug_abbrev
00000000 l    d  .debug_line	00000000 .debug_line
00000000 l    d  .debug_frame	00000000 .debug_frame
00000000 l    d  .debug_str	00000000 .debug_str
00000000 l    d  .debug_loc	00000000 .debug_loc
00000000 l    d  .debug_alt_sim_info	00000000 .debug_alt_sim_info
00000000 l    d  .debug_ranges	00000000 .debug_ranges
00000000 l    df *ABS*	00000000 ../303_2_bsp//obj/HAL/src/crt0.o
0080028c l       .text	00000000 alt_after_alt_main
00000000 l    df *ABS*	00000000 alt_irq_handler.c
00000000 l    df *ABS*	00000000 alt_instruction_exception_entry.c
00000000 l    df *ABS*	00000000 c_heart.c
00000000 l    df *ABS*	00000000 main.c
00000000 l    df *ABS*	00000000 scchart_heart.c
00000000 l    df *ABS*	00000000 uart.c
00000000 l    df *ABS*	00000000 adddf3.c
00000000 l    df *ABS*	00000000 gedf2.c
00000000 l    df *ABS*	00000000 ledf2.c
00000000 l    df *ABS*	00000000 subdf3.c
00000000 l    df *ABS*	00000000 floatsidf.c
00000000 l    df *ABS*	00000000 libgcc2.c
00000000 l    df *ABS*	00000000 libgcc2.c
00000000 l    df *ABS*	00000000 alt_alarm_start.c
00000000 l    df *ABS*	00000000 alt_load.c
00808f4c l     F .text	00000068 alt_load_section
00000000 l    df *ABS*	00000000 alt_main.c
00000000 l    df *ABS*	00000000 alt_tick.c
00000000 l    df *ABS*	00000000 alt_sys_init.c
00809258 l     F .text	00000034 alt_dev_reg
0080d184 l     O .rwdata	00001060 jtag_uart
0080e1e4 l     O .rwdata	00000120 lcd
0080e304 l     O .rwdata	000000c4 uart
00000000 l    df *ABS*	00000000 altera_avalon_jtag_uart_fd.c
00000000 l    df *ABS*	00000000 altera_avalon_jtag_uart_init.c
00809580 l     F .text	0000020c altera_avalon_jtag_uart_irq
0080978c l     F .text	000000a0 altera_avalon_jtag_uart_timeout
00000000 l    df *ABS*	00000000 altera_avalon_jtag_uart_ioctl.c
00000000 l    df *ABS*	00000000 altera_avalon_jtag_uart_read.c
00000000 l    df *ABS*	00000000 altera_avalon_jtag_uart_write.c
00000000 l    df *ABS*	00000000 altera_avalon_lcd_16207.c
0080e9a0 l     O .rwdata	00000004 colstart
00809dc4 l     F .text	000000b8 lcd_write_command
00809e7c l     F .text	000000d8 lcd_write_data
00809f54 l     F .text	000000d0 lcd_clear_screen
0080a024 l     F .text	000001ec lcd_repaint_screen
0080a210 l     F .text	000000cc lcd_scroll_up
0080a2dc l     F .text	000002ac lcd_handle_escape
0080aa60 l     F .text	000000ac alt_lcd_16207_timeout
00000000 l    df *ABS*	00000000 altera_avalon_lcd_16207_fd.c
00000000 l    df *ABS*	00000000 altera_avalon_timer_sc.c
0080aca0 l     F .text	00000078 alt_avalon_timer_sc_irq
00000000 l    df *ABS*	00000000 altera_avalon_uart_fd.c
00000000 l    df *ABS*	00000000 altera_avalon_uart_init.c
0080af50 l     F .text	0000009c altera_avalon_uart_irq
0080afec l     F .text	000000e4 altera_avalon_uart_rxirq
0080b0d0 l     F .text	00000148 altera_avalon_uart_txirq
00000000 l    df *ABS*	00000000 altera_avalon_uart_read.c
0080b26c l     F .text	0000003c alt_get_errno
00000000 l    df *ABS*	00000000 altera_avalon_uart_write.c
0080b484 l     F .text	0000003c alt_get_errno
00000000 l    df *ABS*	00000000 alt_close.c
0080b66c l     F .text	0000003c alt_get_errno
00000000 l    df *ABS*	00000000 alt_dcache_flush_all.c
00000000 l    df *ABS*	00000000 alt_dev.c
0080b7c0 l     F .text	0000002c alt_dev_null_write
00000000 l    df *ABS*	00000000 alt_dev_llist_insert.c
0080b7ec l     F .text	0000003c alt_get_errno
00000000 l    df *ABS*	00000000 alt_do_ctors.c
00000000 l    df *ABS*	00000000 alt_do_dtors.c
00000000 l    df *ABS*	00000000 alt_errno.c
00000000 l    df *ABS*	00000000 alt_icache_flush_all.c
00000000 l    df *ABS*	00000000 alt_iic.c
00000000 l    df *ABS*	00000000 alt_iic_isr_register.c
00000000 l    df *ABS*	00000000 alt_io_redirect.c
0080bc60 l     F .text	000000c4 alt_open_fd
00000000 l    df *ABS*	00000000 alt_irq_vars.c
00000000 l    df *ABS*	00000000 alt_open.c
0080bda0 l     F .text	0000003c alt_get_errno
0080bddc l     F .text	000000c4 alt_file_locked
00000000 l    df *ABS*	00000000 alt_release_fd.c
00000000 l    df *ABS*	00000000 alt_usleep.c
00000000 l    df *ABS*	00000000 altera_nios2_gen2_irq.c
00000000 l    df *ABS*	00000000 alt_busy_sleep.c
00000000 l    df *ABS*	00000000 alt_find_dev.c
00000000 l    df *ABS*	00000000 alt_find_file.c
00000000 l    df *ABS*	00000000 alt_get_fd.c
00000000 l    df *ABS*	00000000 alt_icache_flush.c
00000000 l    df *ABS*	00000000 atexit.c
00000000 l    df *ABS*	00000000 ctype_.c
0080cfff l     O .rodata	00000180 _ctype_b
00000000 l    df *ABS*	00000000 exit.c
00000000 l    df *ABS*	00000000 impure.c
0080e570 l     O .rwdata	00000424 impure_data
00000000 l    df *ABS*	00000000 int_errno.c
00000000 l    df *ABS*	00000000 memcmp.c
00000000 l    df *ABS*	00000000 memcpy.c
00000000 l    df *ABS*	00000000 memset.c
00000000 l    df *ABS*	00000000 strlen.c
00000000 l    df *ABS*	00000000 __atexit.c
00000000 l    df *ABS*	00000000 __call_atexit.c
00000000 l    df *ABS*	00000000 lib2-divmod.c
00000000 l    df *ABS*	00000000 alt_exit.c
00810238 g     O .bss	00000004 alt_instruction_exception_handler
00809038 g     F .text	0000007c alt_main
008102a0 g     O .bss	000001b4 t
0081046c g     O .bss	00000100 alt_irq
0080e9cc g       *ABS*	00000000 __flash_rwdata_start
00808214 g     F .text	000000dc .hidden __gtdf2
0080c088 g     F .text	00000024 altera_nios2_gen2_irq_init
00800000 g     F .entry	0000001c __reset
00800020 g       *ABS*	00000000 __flash_exceptions_start
0081023c g     O .bss	00000004 errno
00810224 g     O .bss	00000004 alt_argv
0080e995 g     O .rwdata	00000001 ignore_a
00816994 g       *ABS*	00000000 _gp
0080c058 g     F .text	00000030 usleep
00807414 g     F .text	00000220 reset
0080e3f0 g     O .rwdata	00000180 alt_fd_list
0080c204 g     F .text	00000090 alt_find_dev
0080c634 g     F .text	00000148 memcpy
00808ce0 g     F .text	000000dc .hidden __floatsidf
0080bd24 g     F .text	0000007c alt_io_redirect
008082f0 g     F .text	000000f4 .hidden __ltdf2
0080cdbc g       *ABS*	00000000 __DTOR_END__
00800388 g     F .text	00000024 PVARP_interrupt
0080c4d0 g     F .text	0000009c alt_exception_cause_generated_bad_addr
00809984 g     F .text	0000021c altera_avalon_jtag_uart_read
0080cccc g     F .text	00000064 .hidden __udivsi3
00810217 g     O .bss	00000001 need_v_pulse
0080c440 g     F .text	00000090 alt_icache_flush
0081021e g     O .bss	00000001 char_recieve
0080e9b4 g     O .rwdata	00000004 alt_max_fd
0081021a g     O .bss	00000001 ap
00807968 g     F .text	000008ac .hidden __adddf3
0080e9c4 g     O .rwdata	00000004 _global_impure_ptr
0081056c g       *ABS*	00000000 __bss_end
0080bb70 g     F .text	000000f0 alt_iic_isr_register
00809150 g     F .text	00000108 alt_tick
0080aea4 g     F .text	000000ac altera_avalon_uart_init
0080bb24 g     F .text	0000004c alt_ic_irq_enabled
008090b4 g     F .text	0000009c alt_alarm_stop
00810234 g     O .bss	00000004 alt_irq_active
01008000 g       *ABS*	00000000 __alt_mem_onchip_mem
008000fc g     F .exceptions	000000d4 alt_irq_handler
0080e3c8 g     O .rwdata	00000028 alt_dev_null
00810218 g     O .bss	00000001 started
0080b778 g     F .text	00000048 alt_dcache_flush_all
00810214 g     O .bss	00000001 can_vpulse
0080e9cc g       *ABS*	00000000 __ram_rwdata_end
0080e9ac g     O .rwdata	00000008 alt_dev_list
0080d184 g       *ABS*	00000000 __ram_rodata_end
008082f0 g     F .text	000000f4 .hidden __ledf2
008078c0 g     F .text	00000050 uart_tx
0080cd30 g     F .text	00000058 .hidden __umodsi3
00800290 g     F .text	000000f8 start_cycle
0081056c g       *ABS*	00000000 end
0080a588 g     F .text	000004d8 altera_avalon_lcd_16207_write
0080b4c0 g     F .text	000001ac altera_avalon_uart_write
008094c0 g     F .text	000000c0 altera_avalon_jtag_uart_init
008001d0 g     F .exceptions	00000074 alt_instruction_exception_entry
0081021c g     O .bss	00000001 sc_as
0080cdbc g       *ABS*	00000000 __CTOR_LIST__
01000000 g       *ABS*	00000000 __alt_stack_pointer
0080ad18 g     F .text	0000007c alt_avalon_timer_sc_init
0080adf4 g     F .text	00000060 altera_avalon_uart_write_fd
00808dbc g     F .text	00000064 .hidden __clzsi2
0080ae54 g     F .text	00000050 altera_avalon_uart_close_fd
00809ba0 g     F .text	00000224 altera_avalon_jtag_uart_write
0080ca54 g     F .text	00000180 __call_exitprocs
00800244 g     F .text	0000004c _start
0081022c g     O .bss	00000004 _alt_tick_rate
00810230 g     O .bss	00000004 _alt_nticks
008092c4 g     F .text	00000098 alt_sys_init
00810240 g     O .bss	00000018 URI_LRI
0080c93c g     F .text	00000118 __register_exitproc
0080982c g     F .text	00000068 altera_avalon_jtag_uart_close
0080d184 g       *ABS*	00000000 __ram_rwdata_start
0080cdbc g       *ABS*	00000000 __ram_rodata_start
00807910 g     F .text	00000058 uart_rx
0080935c g     F .text	00000060 altera_avalon_jtag_uart_read_fd
0080c39c g     F .text	000000a4 alt_get_fd
0080c0ac g     F .text	00000158 alt_busy_sleep
008003ac g     F .text	00000034 VRP_interrupt
0080c5b8 g     F .text	0000007c memcmp
0080941c g     F .text	00000050 altera_avalon_jtag_uart_close_fd
0081056c g       *ABS*	00000000 __alt_stack_base
0080946c g     F .text	00000054 altera_avalon_jtag_uart_ioctl_fd
00807634 g     F .text	0000028c tick
0080c294 g     F .text	00000108 alt_find_file
0080e994 g     O .rwdata	00000001 ignore_v
0080b828 g     F .text	000000a4 alt_dev_llist_insert
00810454 g     O .bss	00000018 scchart_timer
00810214 g       *ABS*	00000000 __bss_start
0080c77c g     F .text	00000128 memset
008005f0 g     F .text	00000244 main
00810258 g     O .bss	00000018 VRP
00810228 g     O .bss	00000004 alt_envp
008093bc g     F .text	00000060 altera_avalon_jtag_uart_write_fd
0080ab0c g     F .text	00000134 altera_avalon_lcd_16207_init
0080e9b8 g     O .rwdata	00000004 alt_errno
00810219 g     O .bss	00000001 vp
0080cbd4 g     F .text	00000084 .hidden __divsi3
0080cdbc g       *ABS*	00000000 __CTOR_END__
0080cdbc g       *ABS*	00000000 __flash_rodata_start
0080cdbc g       *ABS*	00000000 __DTOR_LIST__
0080928c g     F .text	00000038 alt_irq_init
0080bff4 g     F .text	00000064 alt_release_fd
008003e0 g     F .text	00000054 URI_LRI_interrupt
0080cdbc g     O .rodata	00000100 .hidden __clz_tab
0080c56c g     F .text	00000014 atexit
00800434 g     F .text	00000070 AEI_AVI_interrupt
0080e9c8 g     O .rwdata	00000004 _impure_ptr
00810220 g     O .bss	00000004 alt_argc
0080b92c g     F .text	00000060 _do_dtors
00800020 g       .exceptions	00000000 alt_irq_entry
00810216 g     O .bss	00000001 is_recent_a
0080ac40 g     F .text	00000060 altera_avalon_lcd_16207_write_fd
0080e9a4 g     O .rwdata	00000008 alt_fs_list
00800020 g       *ABS*	00000000 __ram_exceptions_start
00810270 g     O .bss	00000018 AEI_AVI
0080b9c0 g     F .text	00000050 alt_ic_isr_register
0080e9cc g       *ABS*	00000000 _edata
0080ad94 g     F .text	00000060 altera_avalon_uart_read_fd
0081056c g       *ABS*	00000000 _end
00800244 g       *ABS*	00000000 __ram_exceptions_end
00809894 g     F .text	000000f0 altera_avalon_jtag_uart_ioctl
008004a4 g     F .text	0000003c extern_v_interrupt
0080ba98 g     F .text	0000008c alt_ic_irq_disable
0080c580 g     F .text	00000038 exit
00810288 g     O .bss	00000018 PVARP
0080cc58 g     F .text	00000074 .hidden __modsi3
00800834 g     F .text	00006be0 logic
0080e9c0 g     O .rwdata	00000004 __ctype_ptr__
01000000 g       *ABS*	00000000 __alt_data_end
00800020 g     F .exceptions	00000000 alt_exception
00800000 g       *ABS*	00000000 __alt_mem_sdram
0081021d g     O .bss	00000001 sc_vs
00810215 g     O .bss	00000001 reset_cycle
0080cefe g     O .rodata	00000101 _ctype_
0081021b g     O .bss	00000001 scchart_update_flag
0080b218 g     F .text	00000054 altera_avalon_uart_close
0080cd88 g     F .text	00000034 _exit
00808e20 g     F .text	0000012c alt_alarm_start
0080c8a4 g     F .text	00000098 strlen
0080bea0 g     F .text	00000154 open
00808214 g     F .text	000000dc .hidden __gedf2
00800544 g     F .text	000000ac scchart_interrupt
0080b98c g     F .text	00000034 alt_icache_flush_all
0080e9bc g     O .rwdata	00000004 alt_priority_mask
0080ba10 g     F .text	00000088 alt_ic_irq_enable
0080b2a8 g     F .text	000001dc altera_avalon_uart_read
008083e4 g     F .text	000008fc .hidden __subdf3
0080e998 g     O .rwdata	00000008 alt_alarm_list
0080b8cc g     F .text	00000060 _do_ctors
0080b6a8 g     F .text	000000d0 close
00808fb4 g     F .text	00000084 alt_load
008004e0 g     F .text	00000064 extern_a_interrupt



Disassembly of section .entry:

00800000 <__reset>:
#if NIOS2_ICACHE_SIZE > 0 && defined(ALT_ALLOW_CODE_AT_RESET) && (!defined(ALT_SIM_OPTIMIZE) || defined(NIOS2_ECC_PRESENT))
    /* Assume the instruction cache size is always a power of two. */
#if NIOS2_ICACHE_SIZE > 0x8000
    movhi r2, %hi(NIOS2_ICACHE_SIZE)
#else
    movui r2, NIOS2_ICACHE_SIZE
  800000:	00840014 	movui	r2,4096
#endif

0:
    initi r2
  800004:	1001483a 	initi	r2
    addi r2, r2, -NIOS2_ICACHE_LINE_SIZE
  800008:	10bff804 	addi	r2,r2,-32
    bgt r2, zero, 0b
  80000c:	00bffd16 	blt	zero,r2,800004 <__alt_mem_onchip_mem+0xff7f8004>
 * Jump to the _start entry point in the .text section if reset code
 * is allowed or if optimizing for RTL simulation.
 */
#if defined(ALT_ALLOW_CODE_AT_RESET) || defined(ALT_SIM_OPTIMIZE)
    /* Jump to the _start entry point in the .text section. */
    movhi r1, %hi(_start)
  800010:	00402034 	movhi	at,128
    ori r1, r1, %lo(_start)
  800014:	08409114 	ori	at,at,580
    jmp r1
  800018:	0800683a 	jmp	at
  80001c:	00000000 	call	0 <__alt_mem_sdram-0x800000>

Disassembly of section .exceptions:

00800020 <alt_exception>:

#else /* ALT_EXCEPTION_STACK disabled */
        /* 
         * Reserve space on normal stack for registers about to be pushed.
         */
        addi  sp, sp, -76
  800020:	deffed04 	addi	sp,sp,-76
         * documentation for details).
         *
         * Leave a gap in the stack frame at 4(sp) for the muldiv handler to
         * store zero into.
         */
        stw   ra,  0(sp)
  800024:	dfc00015 	stw	ra,0(sp)
        stw   r1,   8(sp)
  800028:	d8400215 	stw	at,8(sp)
        stw   r2,  12(sp)
  80002c:	d8800315 	stw	r2,12(sp)
        stw   r3,  16(sp)
  800030:	d8c00415 	stw	r3,16(sp)
        stw   r4,  20(sp)
  800034:	d9000515 	stw	r4,20(sp)
        stw   r5,  24(sp)
  800038:	d9400615 	stw	r5,24(sp)
        stw   r6,  28(sp)
  80003c:	d9800715 	stw	r6,28(sp)
        stw   r7,  32(sp)
  800040:	d9c00815 	stw	r7,32(sp)
        rdctl r5, estatus   /* Read early to avoid usage stall */
  800044:	000b307a 	rdctl	r5,estatus
        stw   r8,  36(sp)
  800048:	da000915 	stw	r8,36(sp)
        stw   r9,  40(sp)
  80004c:	da400a15 	stw	r9,40(sp)
        stw   r10, 44(sp)
  800050:	da800b15 	stw	r10,44(sp)
        stw   r11, 48(sp)
  800054:	dac00c15 	stw	r11,48(sp)
        stw   r12, 52(sp)
  800058:	db000d15 	stw	r12,52(sp)
        stw   r13, 56(sp)
  80005c:	db400e15 	stw	r13,56(sp)
        stw   r14, 60(sp)
  800060:	db800f15 	stw	r14,60(sp)
        stw   r15, 64(sp)
  800064:	dbc01015 	stw	r15,64(sp)
        /*
         * ea-4 contains the address of the instruction being executed
         * when the exception occured. For interrupt exceptions, we will
         * will be re-issue the isntruction. Store it in 72(sp)
         */
        stw   r5,  68(sp)  /* estatus */
  800068:	d9401115 	stw	r5,68(sp)
        addi  r15, ea, -4  /* instruction that caused exception */
  80006c:	ebffff04 	addi	r15,ea,-4
        stw   r15,  72(sp)
  800070:	dbc01215 	stw	r15,72(sp)
#else
        /*
         * Test to see if the exception was a software exception or caused 
         * by an external interrupt, and vector accordingly.
         */
        rdctl r4, ipending
  800074:	0009313a 	rdctl	r4,ipending
        andi  r2, r5, 1
  800078:	2880004c 	andi	r2,r5,1
        beq   r2, zero, .Lnot_irq
  80007c:	10000326 	beq	r2,zero,80008c <alt_exception+0x6c>
        beq   r4, zero, .Lnot_irq
  800080:	20000226 	beq	r4,zero,80008c <alt_exception+0x6c>
        /*
         * Now that all necessary registers have been preserved, call 
         * alt_irq_handler() to process the interrupts.
         */

        call alt_irq_handler
  800084:	08000fc0 	call	8000fc <alt_irq_handler>

        .section .exceptions.irqreturn, "xa"

        br    .Lexception_exit
  800088:	00000706 	br	8000a8 <alt_exception+0x88>
         * upon completion, so we write ea (address of instruction *after*
         * the one where the exception occured) into 72(sp). The actual
         * instruction that caused the exception is written in r2, which these
         * handlers will utilize.
         */
        stw ea, 72(sp) /* EA is PC+4 so will skip over instruction causing exception */
  80008c:	df401215 	stw	ea,72(sp)
.Lunknown_16bit:
        addi.n r4, r4, 2 /* Need PC+2 to skip over instruction causing exception */
        stw r4, 72(sp)

#else /* CDX is not Enabled and all instructions are 32bits */
        ldw r2, -4(ea) /* Instruction value that caused exception */
  800090:	e8bfff17 	ldw	r2,-4(ea)
         * debugger is present) or go into an infinite loop since the
         * handling behavior is undefined; in that case we will not return here.
         */

        /* Load exception-causing address as first argument (r4) */
        addi   r4, ea, -4
  800094:	e93fff04 	addi	r4,ea,-4

        /* Call the instruction-exception entry */
        call   alt_instruction_exception_entry
  800098:	08001d00 	call	8001d0 <alt_instruction_exception_entry>
         * instruction
         *
         * Return code was 0: Skip. The instruction after the exception is
         * already stored in 72(sp).
         */
        bne   r2, r0, .Lexception_exit
  80009c:	1000021e 	bne	r2,zero,8000a8 <alt_exception+0x88>

        /*
         * Otherwise, modify 72(sp) to re-issue the instruction that caused the
         * exception.
         */
        addi  r15, ea, -4  /* instruction that caused exception */
  8000a0:	ebffff04 	addi	r15,ea,-4
        stw   r15,  72(sp)
  8000a4:	dbc01215 	stw	r15,72(sp)
        /* 
         * Restore the saved registers, so that all general purpose registers 
         * have been restored to their state at the time the interrupt occured.
         */

        ldw   r5,  68(sp)
  8000a8:	d9401117 	ldw	r5,68(sp)
        ldw   ea,  72(sp)  /* This becomes the PC once eret is executed */
  8000ac:	df401217 	ldw	ea,72(sp)
        ldw   ra,   0(sp)
  8000b0:	dfc00017 	ldw	ra,0(sp)

        wrctl estatus, r5
  8000b4:	2801707a 	wrctl	estatus,r5

        ldw   r1,   8(sp)
  8000b8:	d8400217 	ldw	at,8(sp)
        ldw   r2,  12(sp)
  8000bc:	d8800317 	ldw	r2,12(sp)
        ldw   r3,  16(sp)
  8000c0:	d8c00417 	ldw	r3,16(sp)
        ldw   r4,  20(sp)
  8000c4:	d9000517 	ldw	r4,20(sp)
        ldw   r5,  24(sp)
  8000c8:	d9400617 	ldw	r5,24(sp)
        ldw   r6,  28(sp)
  8000cc:	d9800717 	ldw	r6,28(sp)
        ldw   r7,  32(sp)
  8000d0:	d9c00817 	ldw	r7,32(sp)

#if defined(ALT_EXCEPTION_STACK) && defined(ALT_STACK_CHECK)
        ldw   et, %gprel(alt_exception_old_stack_limit)(gp)
#endif

        ldw   r8,  36(sp)
  8000d4:	da000917 	ldw	r8,36(sp)
        ldw   r9,  40(sp)
  8000d8:	da400a17 	ldw	r9,40(sp)
        ldw   r10, 44(sp)
  8000dc:	da800b17 	ldw	r10,44(sp)
        ldw   r11, 48(sp)
  8000e0:	dac00c17 	ldw	r11,48(sp)
        ldw   r12, 52(sp)
  8000e4:	db000d17 	ldw	r12,52(sp)
        ldw   r13, 56(sp)
  8000e8:	db400e17 	ldw	r13,56(sp)
        ldw   r14, 60(sp)
  8000ec:	db800f17 	ldw	r14,60(sp)
        ldw   r15, 64(sp)
  8000f0:	dbc01017 	ldw	r15,64(sp)
        stw   et, %gprel(alt_stack_limit_value)(gp)
        stw   zero, %gprel(alt_exception_old_stack_limit)(gp)
#endif /* ALT_STACK_CHECK */
        ldw   sp,  76(sp)
#else /* ALT_EXCEPTION_STACK disabled */
        addi  sp, sp, 76
  8000f4:	dec01304 	addi	sp,sp,76

        /*
         * Return to the interrupted instruction.
         */

        eret
  8000f8:	ef80083a 	eret

008000fc <alt_irq_handler>:
 * instruction is present if the macro ALT_CI_INTERRUPT_VECTOR defined.
 */

void alt_irq_handler (void) __attribute__ ((section (".exceptions")));
void alt_irq_handler (void)
{
  8000fc:	defff904 	addi	sp,sp,-28
  800100:	dfc00615 	stw	ra,24(sp)
  800104:	df000515 	stw	fp,20(sp)
  800108:	df000504 	addi	fp,sp,20
  
  /*
   * Notify the operating system that we are at interrupt level.
   */ 
  
  ALT_OS_INT_ENTER();
  80010c:	0001883a 	nop
#ifndef NIOS2_EIC_PRESENT
static ALT_INLINE alt_u32 ALT_ALWAYS_INLINE alt_irq_pending (void)
{
  alt_u32 active;

  NIOS2_READ_IPENDING (active);
  800110:	0005313a 	rdctl	r2,ipending
  800114:	e0bffe15 	stw	r2,-8(fp)

  return active;
  800118:	e0bffe17 	ldw	r2,-8(fp)
   * Consider the case where the high priority interupt is asserted during
   * the interrupt entry sequence for a lower priority interrupt to see why
   * this is the case.
   */

  active = alt_irq_pending ();
  80011c:	e0bffb15 	stw	r2,-20(fp)

  do
  {
    i = 0;
  800120:	e03ffd15 	stw	zero,-12(fp)
    mask = 1;
  800124:	00800044 	movi	r2,1
  800128:	e0bffc15 	stw	r2,-16(fp)
     * called to clear the interrupt condition.
     */

    do
    {
      if (active & mask)
  80012c:	e0fffb17 	ldw	r3,-20(fp)
  800130:	e0bffc17 	ldw	r2,-16(fp)
  800134:	1884703a 	and	r2,r3,r2
  800138:	10001426 	beq	r2,zero,80018c <alt_irq_handler+0x90>
      { 
#ifdef ALT_ENHANCED_INTERRUPT_API_PRESENT
        alt_irq[i].handler(alt_irq[i].context); 
  80013c:	00802074 	movhi	r2,129
  800140:	10811b04 	addi	r2,r2,1132
  800144:	e0fffd17 	ldw	r3,-12(fp)
  800148:	180690fa 	slli	r3,r3,3
  80014c:	10c5883a 	add	r2,r2,r3
  800150:	10c00017 	ldw	r3,0(r2)
  800154:	00802074 	movhi	r2,129
  800158:	10811b04 	addi	r2,r2,1132
  80015c:	e13ffd17 	ldw	r4,-12(fp)
  800160:	200890fa 	slli	r4,r4,3
  800164:	1105883a 	add	r2,r2,r4
  800168:	10800104 	addi	r2,r2,4
  80016c:	10800017 	ldw	r2,0(r2)
  800170:	1009883a 	mov	r4,r2
  800174:	183ee83a 	callr	r3
#else
        alt_irq[i].handler(alt_irq[i].context, i); 
#endif
        break;
  800178:	0001883a 	nop
#ifndef NIOS2_EIC_PRESENT
static ALT_INLINE alt_u32 ALT_ALWAYS_INLINE alt_irq_pending (void)
{
  alt_u32 active;

  NIOS2_READ_IPENDING (active);
  80017c:	0005313a 	rdctl	r2,ipending
  800180:	e0bfff15 	stw	r2,-4(fp)

  return active;
  800184:	e0bfff17 	ldw	r2,-4(fp)
  800188:	00000706 	br	8001a8 <alt_irq_handler+0xac>
      }
      mask <<= 1;
  80018c:	e0bffc17 	ldw	r2,-16(fp)
  800190:	1085883a 	add	r2,r2,r2
  800194:	e0bffc15 	stw	r2,-16(fp)
      i++;
  800198:	e0bffd17 	ldw	r2,-12(fp)
  80019c:	10800044 	addi	r2,r2,1
  8001a0:	e0bffd15 	stw	r2,-12(fp)

    } while (1);
  8001a4:	003fe106 	br	80012c <__alt_mem_onchip_mem+0xff7f812c>

    active = alt_irq_pending ();
  8001a8:	e0bffb15 	stw	r2,-20(fp)
    
  } while (active);
  8001ac:	e0bffb17 	ldw	r2,-20(fp)
  8001b0:	103fdb1e 	bne	r2,zero,800120 <__alt_mem_onchip_mem+0xff7f8120>

  /*
   * Notify the operating system that interrupt processing is complete.
   */ 

  ALT_OS_INT_EXIT();
  8001b4:	0001883a 	nop
}
  8001b8:	0001883a 	nop
  8001bc:	e037883a 	mov	sp,fp
  8001c0:	dfc00117 	ldw	ra,4(sp)
  8001c4:	df000017 	ldw	fp,0(sp)
  8001c8:	dec00204 	addi	sp,sp,8
  8001cc:	f800283a 	ret

008001d0 <alt_instruction_exception_entry>:
 * that handler if it has been registered. Absent a handler, it will
 * break break or hang as discussed below.
 */
int 
alt_instruction_exception_entry (alt_u32 exception_pc)
{
  8001d0:	defffb04 	addi	sp,sp,-20
  8001d4:	dfc00415 	stw	ra,16(sp)
  8001d8:	df000315 	stw	fp,12(sp)
  8001dc:	df000304 	addi	fp,sp,12
  8001e0:	e13fff15 	stw	r4,-4(fp)
 * NIOS2_EXCEPTION_CAUSE_NOT_PRESENT. Your handling routine should
 * check the validity of the cause argument before proceeding.
 */
#ifdef NIOS2_HAS_EXTRA_EXCEPTION_INFO
  /* Get exception cause & "badaddr" */
  NIOS2_READ_EXCEPTION(cause);
  8001e4:	000531fa 	rdctl	r2,exception
  8001e8:	e0bffd15 	stw	r2,-12(fp)
  cause = ( (cause & NIOS2_EXCEPTION_REG_CAUSE_MASK) >>
  8001ec:	e0bffd17 	ldw	r2,-12(fp)
  8001f0:	10801f0c 	andi	r2,r2,124
  8001f4:	1004d0ba 	srli	r2,r2,2
  8001f8:	e0bffd15 	stw	r2,-12(fp)
              NIOS2_EXCEPTION_REG_CAUSE_OFST );

  NIOS2_READ_BADADDR(badaddr);
  8001fc:	0005333a 	rdctl	r2,badaddr
  800200:	e0bffe15 	stw	r2,-8(fp)
#else
  cause = NIOS2_EXCEPTION_CAUSE_NOT_PRESENT;
  badaddr = 0;
#endif /* NIOS2_HAS_EXTRA_EXCEPTION_INFO */

  if(alt_instruction_exception_handler) {
  800204:	d0a62917 	ldw	r2,-26460(gp)
  800208:	10000726 	beq	r2,zero,800228 <alt_instruction_exception_entry+0x58>
     * Call handler. Its return value indicates whether the exception-causing
     * instruction should be re-issued. The code that called us,
     * alt_eceptions_entry.S, will look at this value and adjust the ea
     * register as necessary
     */
    return alt_instruction_exception_handler(cause, exception_pc, badaddr);
  80020c:	d0a62917 	ldw	r2,-26460(gp)
  800210:	e0fffd17 	ldw	r3,-12(fp)
  800214:	e1bffe17 	ldw	r6,-8(fp)
  800218:	e17fff17 	ldw	r5,-4(fp)
  80021c:	1809883a 	mov	r4,r3
  800220:	103ee83a 	callr	r2
  800224:	00000206 	br	800230 <alt_instruction_exception_entry+0x60>
   *    (a peripheral which negates its interrupt output before its
   *    interrupt handler has been executed will cause spurious interrupts)
   */
  else {
#ifdef NIOS2_HAS_DEBUG_STUB
    NIOS2_BREAK();
  800228:	003da03a 	break	0
      ;
#endif /* NIOS2_HAS_DEBUG_STUB */
  }

  /* We should not get here. Remove compiler warning. */
  return NIOS2_EXCEPTION_RETURN_REISSUE_INST;
  80022c:	0005883a 	mov	r2,zero
}
  800230:	e037883a 	mov	sp,fp
  800234:	dfc00117 	ldw	ra,4(sp)
  800238:	df000017 	ldw	fp,0(sp)
  80023c:	dec00204 	addi	sp,sp,8
  800240:	f800283a 	ret

Disassembly of section .text:

00800244 <_start>:

    /* Assume the data cache size is always a power of two. */
#if NIOS2_DCACHE_SIZE > 0x8000
    movhi r2, %hi(NIOS2_DCACHE_SIZE)
#else
    movui r2, NIOS2_DCACHE_SIZE
  800244:	00820014 	movui	r2,2048
#endif

0:
    initd 0(r2)
  800248:	10000033 	initd	0(r2)
#ifdef NIOS2_ECC_PRESENT
    addi r2, r2, -4
#else
    addi r2, r2, -NIOS2_DCACHE_LINE_SIZE
  80024c:	10bff804 	addi	r2,r2,-32
#endif
    bgt r2, zero, 0b
  800250:	00bffd16 	blt	zero,r2,800248 <__alt_mem_onchip_mem+0xff7f8248>

    /*
     * Now that the caches are initialized, set up the stack pointer and global pointer.
     * The values provided by the linker are assumed to be correctly aligned.
     */
    movhi sp, %hi(__alt_stack_pointer)
  800254:	06c04034 	movhi	sp,256
    ori sp, sp, %lo(__alt_stack_pointer)
  800258:	dec00014 	ori	sp,sp,0
    movhi gp, %hi(_gp)
  80025c:	06802074 	movhi	gp,129
    ori gp, gp, %lo(_gp)
  800260:	d69a6514 	ori	gp,gp,27028
 */
#ifndef ALT_SIM_OPTIMIZE
    /* Log that the BSS is about to be cleared. */
    ALT_LOG_PUTS(alt_log_msg_bss)

    movhi r2, %hi(__bss_start)
  800264:	00802074 	movhi	r2,129
    ori r2, r2, %lo(__bss_start)
  800268:	10808514 	ori	r2,r2,532

    movhi r3, %hi(__bss_end)
  80026c:	00c02074 	movhi	r3,129
    ori r3, r3, %lo(__bss_end)
  800270:	18c15b14 	ori	r3,r3,1388

    beq r2, r3, 1f
  800274:	10c00326 	beq	r2,r3,800284 <_start+0x40>

0:
    stw zero, (r2)
  800278:	10000015 	stw	zero,0(r2)
    addi r2, r2, 4
  80027c:	10800104 	addi	r2,r2,4
    bltu r2, r3, 0b
  800280:	10fffd36 	bltu	r2,r3,800278 <__alt_mem_onchip_mem+0xff7f8278>
     * section aren't defined until alt_load() has been called).
     */
    mov   et, zero
#endif

    call alt_load
  800284:	0808fb40 	call	808fb4 <alt_load>

    /* Log that alt_main is about to be called. */
    ALT_LOG_PUTS(alt_log_msg_alt_main)

    /* Call the C entry point. It should never return. */
    call alt_main
  800288:	08090380 	call	809038 <alt_main>

0080028c <alt_after_alt_main>:

    /* Wait in infinite loop in case alt_main does return. */
alt_after_alt_main:
    br alt_after_alt_main
  80028c:	003fff06 	br	80028c <__alt_mem_onchip_mem+0xff7f828c>

00800290 <start_cycle>:
volatile alt_u8 started = 0;

volatile alt_u8 vp = 0, ap = 0;

// reset on V activity
void start_cycle(){
  800290:	defffe04 	addi	sp,sp,-8
  800294:	dfc00115 	stw	ra,4(sp)
  800298:	df000015 	stw	fp,0(sp)
  80029c:	d839883a 	mov	fp,sp
	if (started){
  8002a0:	d0a62103 	ldbu	r2,-26492(gp)
  8002a4:	10803fcc 	andi	r2,r2,255
  8002a8:	10000c26 	beq	r2,zero,8002dc <start_cycle+0x4c>
		alt_alarm_stop(&URI_LRI);
  8002ac:	01002074 	movhi	r4,129
  8002b0:	21009004 	addi	r4,r4,576
  8002b4:	08090b40 	call	8090b4 <alt_alarm_stop>
		alt_alarm_stop(&PVARP);
  8002b8:	01002074 	movhi	r4,129
  8002bc:	2100a204 	addi	r4,r4,648
  8002c0:	08090b40 	call	8090b4 <alt_alarm_stop>
		alt_alarm_stop(&VRP);
  8002c4:	01002074 	movhi	r4,129
  8002c8:	21009604 	addi	r4,r4,600
  8002cc:	08090b40 	call	8090b4 <alt_alarm_stop>
		alt_alarm_stop(&AEI_AVI);
  8002d0:	01002074 	movhi	r4,129
  8002d4:	21009c04 	addi	r4,r4,624
  8002d8:	08090b40 	call	8090b4 <alt_alarm_stop>
	}
	started = 1;
  8002dc:	00800044 	movi	r2,1
  8002e0:	d0a62105 	stb	r2,-26492(gp)
	alt_alarm_start(&URI_LRI, URI_VALUE, URI_LRI_interrupt, NULL);
  8002e4:	000f883a 	mov	r7,zero
  8002e8:	01802034 	movhi	r6,128
  8002ec:	3180f804 	addi	r6,r6,992
  8002f0:	0140e104 	movi	r5,900
  8002f4:	01002074 	movhi	r4,129
  8002f8:	21009004 	addi	r4,r4,576
  8002fc:	0808e200 	call	808e20 <alt_alarm_start>
	alt_alarm_start(&PVARP, PVARP_VALUE, PVARP_interrupt, NULL);
  800300:	000f883a 	mov	r7,zero
  800304:	01802034 	movhi	r6,128
  800308:	3180e204 	addi	r6,r6,904
  80030c:	01400c84 	movi	r5,50
  800310:	01002074 	movhi	r4,129
  800314:	2100a204 	addi	r4,r4,648
  800318:	0808e200 	call	808e20 <alt_alarm_start>
	alt_alarm_start(&VRP, VRP_VALUE, VRP_interrupt, NULL);
  80031c:	000f883a 	mov	r7,zero
  800320:	01802034 	movhi	r6,128
  800324:	3180eb04 	addi	r6,r6,940
  800328:	01402584 	movi	r5,150
  80032c:	01002074 	movhi	r4,129
  800330:	21009604 	addi	r4,r4,600
  800334:	0808e200 	call	808e20 <alt_alarm_start>
	alt_alarm_start(&AEI_AVI, AEI_VALUE, AEI_AVI_interrupt, NULL);
  800338:	000f883a 	mov	r7,zero
  80033c:	01802034 	movhi	r6,128
  800340:	31810d04 	addi	r6,r6,1076
  800344:	0140c804 	movi	r5,800
  800348:	01002074 	movhi	r4,129
  80034c:	21009c04 	addi	r4,r4,624
  800350:	0808e200 	call	808e20 <alt_alarm_start>
	ignore_a = 1;
  800354:	00800044 	movi	r2,1
  800358:	d0a00045 	stb	r2,-32767(gp)
	ignore_v = 1;
  80035c:	00800044 	movi	r2,1
  800360:	d0a00005 	stb	r2,-32768(gp)
	can_vpulse = 0;
  800364:	d0262005 	stb	zero,-26496(gp)
	need_v_pulse = 0;
  800368:	d02620c5 	stb	zero,-26493(gp)
	is_recent_a = 0;
  80036c:	d0262085 	stb	zero,-26494(gp)
}
  800370:	0001883a 	nop
  800374:	e037883a 	mov	sp,fp
  800378:	dfc00117 	ldw	ra,4(sp)
  80037c:	df000017 	ldw	fp,0(sp)
  800380:	dec00204 	addi	sp,sp,8
  800384:	f800283a 	ret

00800388 <PVARP_interrupt>:

// pvarp timeout
alt_u32 PVARP_interrupt(){
  800388:	deffff04 	addi	sp,sp,-4
  80038c:	df000015 	stw	fp,0(sp)
  800390:	d839883a 	mov	fp,sp
	ignore_a = 0;
  800394:	d0200045 	stb	zero,-32767(gp)
	return LRI_VALUE; // value so it does not trigger when unwanted
  800398:	0080ed84 	movi	r2,950
}
  80039c:	e037883a 	mov	sp,fp
  8003a0:	df000017 	ldw	fp,0(sp)
  8003a4:	dec00104 	addi	sp,sp,4
  8003a8:	f800283a 	ret

008003ac <VRP_interrupt>:

// vrp timeout
alt_u32 VRP_interrupt(){
  8003ac:	deffff04 	addi	sp,sp,-4
  8003b0:	df000015 	stw	fp,0(sp)
  8003b4:	d839883a 	mov	fp,sp
	ignore_v = 0;
  8003b8:	d0200005 	stb	zero,-32768(gp)
	IOWR_ALTERA_AVALON_PIO_DATA(LEDS_GREEN_BASE, 0);
  8003bc:	0007883a 	mov	r3,zero
  8003c0:	00804074 	movhi	r2,257
  8003c4:	10841c04 	addi	r2,r2,4208
  8003c8:	10c00035 	stwio	r3,0(r2)
	return LRI_VALUE; // value so it does not trigger when unwanted
  8003cc:	0080ed84 	movi	r2,950
}
  8003d0:	e037883a 	mov	sp,fp
  8003d4:	df000017 	ldw	fp,0(sp)
  8003d8:	dec00104 	addi	sp,sp,4
  8003dc:	f800283a 	ret

008003e0 <URI_LRI_interrupt>:

// upper and lower bounds for V pulse rate
alt_u32 URI_LRI_interrupt(){
  8003e0:	deffff04 	addi	sp,sp,-4
  8003e4:	df000015 	stw	fp,0(sp)
  8003e8:	d839883a 	mov	fp,sp
	if (!can_vpulse){ // URI timeout
  8003ec:	d0a62003 	ldbu	r2,-26496(gp)
  8003f0:	10803fcc 	andi	r2,r2,255
  8003f4:	1000041e 	bne	r2,zero,800408 <URI_LRI_interrupt+0x28>
		can_vpulse = 1;
  8003f8:	00800044 	movi	r2,1
  8003fc:	d0a62005 	stb	r2,-26496(gp)
		return LRI_VALUE - URI_VALUE;
  800400:	00800c84 	movi	r2,50
  800404:	00000706 	br	800424 <URI_LRI_interrupt+0x44>
	} else { // LRI timeout
		vp = 1;
  800408:	00800044 	movi	r2,1
  80040c:	d0a62145 	stb	r2,-26491(gp)
		is_recent_a = 0;
  800410:	d0262085 	stb	zero,-26494(gp)
		reset_cycle = 1;
  800414:	00800044 	movi	r2,1
  800418:	d0a62045 	stb	r2,-26495(gp)
		can_vpulse = 0;
  80041c:	d0262005 	stb	zero,-26496(gp)
		return URI_VALUE;
  800420:	0080e104 	movi	r2,900
	}
}
  800424:	e037883a 	mov	sp,fp
  800428:	df000017 	ldw	fp,0(sp)
  80042c:	dec00104 	addi	sp,sp,4
  800430:	f800283a 	ret

00800434 <AEI_AVI_interrupt>:

// A -> V -> A
alt_u32 AEI_AVI_interrupt(){
  800434:	deffff04 	addi	sp,sp,-4
  800438:	df000015 	stw	fp,0(sp)
  80043c:	d839883a 	mov	fp,sp
	if (is_recent_a){ // most recent is a a
  800440:	d0a62083 	ldbu	r2,-26494(gp)
  800444:	10803fcc 	andi	r2,r2,255
  800448:	10000d26 	beq	r2,zero,800480 <AEI_AVI_interrupt+0x4c>
		if (can_vpulse){
  80044c:	d0a62003 	ldbu	r2,-26496(gp)
  800450:	10803fcc 	andi	r2,r2,255
  800454:	10000626 	beq	r2,zero,800470 <AEI_AVI_interrupt+0x3c>
			vp = 1;
  800458:	00800044 	movi	r2,1
  80045c:	d0a62145 	stb	r2,-26491(gp)
			is_recent_a = 0;
  800460:	d0262085 	stb	zero,-26494(gp)
			reset_cycle = 1;
  800464:	00800044 	movi	r2,1
  800468:	d0a62045 	stb	r2,-26495(gp)
  80046c:	00000206 	br	800478 <AEI_AVI_interrupt+0x44>
		} else {
			need_v_pulse = 1;
  800470:	00800044 	movi	r2,1
  800474:	d0a620c5 	stb	r2,-26493(gp)
		}
		return LRI_VALUE; // large value
  800478:	0080ed84 	movi	r2,950
  80047c:	00000506 	br	800494 <AEI_AVI_interrupt+0x60>
	} else { // most recent is a v
		ap = 1;
  800480:	00800044 	movi	r2,1
  800484:	d0a62185 	stb	r2,-26490(gp)
		is_recent_a = 1;
  800488:	00800044 	movi	r2,1
  80048c:	d0a62085 	stb	r2,-26494(gp)
		return AVI_VALUE;
  800490:	00804b04 	movi	r2,300
	}
}
  800494:	e037883a 	mov	sp,fp
  800498:	df000017 	ldw	fp,0(sp)
  80049c:	dec00104 	addi	sp,sp,4
  8004a0:	f800283a 	ret

008004a4 <extern_v_interrupt>:

// VS detected
void extern_v_interrupt(){
  8004a4:	deffff04 	addi	sp,sp,-4
  8004a8:	df000015 	stw	fp,0(sp)
  8004ac:	d839883a 	mov	fp,sp
	if (!ignore_v){
  8004b0:	d0a00003 	ldbu	r2,-32768(gp)
  8004b4:	10803fcc 	andi	r2,r2,255
  8004b8:	1000041e 	bne	r2,zero,8004cc <extern_v_interrupt+0x28>
		can_vpulse = 0;
  8004bc:	d0262005 	stb	zero,-26496(gp)
		reset_cycle = 1;
  8004c0:	00800044 	movi	r2,1
  8004c4:	d0a62045 	stb	r2,-26495(gp)
		is_recent_a = 0;
  8004c8:	d0262085 	stb	zero,-26494(gp)
	}

}
  8004cc:	0001883a 	nop
  8004d0:	e037883a 	mov	sp,fp
  8004d4:	df000017 	ldw	fp,0(sp)
  8004d8:	dec00104 	addi	sp,sp,4
  8004dc:	f800283a 	ret

008004e0 <extern_a_interrupt>:

// AS detected
void extern_a_interrupt(){
  8004e0:	defffe04 	addi	sp,sp,-8
  8004e4:	dfc00115 	stw	ra,4(sp)
  8004e8:	df000015 	stw	fp,0(sp)
  8004ec:	d839883a 	mov	fp,sp
	if (!ignore_a){
  8004f0:	d0a00043 	ldbu	r2,-32767(gp)
  8004f4:	10803fcc 	andi	r2,r2,255
  8004f8:	10000c1e 	bne	r2,zero,80052c <extern_a_interrupt+0x4c>
		alt_alarm_stop(&AEI_AVI);
  8004fc:	01002074 	movhi	r4,129
  800500:	21009c04 	addi	r4,r4,624
  800504:	08090b40 	call	8090b4 <alt_alarm_stop>
		alt_alarm_start(&AEI_AVI, AVI_VALUE, AEI_AVI_interrupt, NULL);
  800508:	000f883a 	mov	r7,zero
  80050c:	01802034 	movhi	r6,128
  800510:	31810d04 	addi	r6,r6,1076
  800514:	01404b04 	movi	r5,300
  800518:	01002074 	movhi	r4,129
  80051c:	21009c04 	addi	r4,r4,624
  800520:	0808e200 	call	808e20 <alt_alarm_start>
		is_recent_a = 1;
  800524:	00800044 	movi	r2,1
  800528:	d0a62085 	stb	r2,-26494(gp)
	}
}
  80052c:	0001883a 	nop
  800530:	e037883a 	mov	sp,fp
  800534:	dfc00117 	ldw	ra,4(sp)
  800538:	df000017 	ldw	fp,0(sp)
  80053c:	dec00204 	addi	sp,sp,8
  800540:	f800283a 	ret

00800544 <scchart_interrupt>:
volatile alt_u8 scchart_update_flag = 0;

volatile alt_u8 sc_as = 0, sc_vs = 0;
volatile TickData t;

alt_u32 scchart_interrupt(){
  800544:	defffe04 	addi	sp,sp,-8
  800548:	dfc00115 	stw	ra,4(sp)
  80054c:	df000015 	stw	fp,0(sp)
  800550:	d839883a 	mov	fp,sp
	if (IORD_ALTERA_AVALON_PIO_DATA(SWITCHES_BASE) & 2){
  800554:	00804074 	movhi	r2,257
  800558:	10842404 	addi	r2,r2,4240
  80055c:	10800037 	ldwio	r2,0(r2)
  800560:	1080008c 	andi	r2,r2,2
  800564:	10001c26 	beq	r2,zero,8005d8 <scchart_interrupt+0x94>
		t.AS = sc_as;
  800568:	d0a62203 	ldbu	r2,-26488(gp)
  80056c:	1007883a 	mov	r3,r2
  800570:	00802074 	movhi	r2,129
  800574:	1080a804 	addi	r2,r2,672
  800578:	10c01705 	stb	r3,92(r2)
		t.VS = sc_vs;
  80057c:	d0a62243 	ldbu	r2,-26487(gp)
  800580:	1007883a 	mov	r3,r2
  800584:	00802074 	movhi	r2,129
  800588:	1080a804 	addi	r2,r2,672
  80058c:	10c01745 	stb	r3,93(r2)
		t.deltaT = 1;
  800590:	00802074 	movhi	r2,129
  800594:	1080a804 	addi	r2,r2,672
  800598:	10001315 	stw	zero,76(r2)
  80059c:	00cffc34 	movhi	r3,16368
  8005a0:	10c01415 	stw	r3,80(r2)
		tick( & t);
  8005a4:	01002074 	movhi	r4,129
  8005a8:	2100a804 	addi	r4,r4,672
  8005ac:	08076340 	call	807634 <tick>
		ap = t.AP;
  8005b0:	00802074 	movhi	r2,129
  8005b4:	1080a804 	addi	r2,r2,672
  8005b8:	10801783 	ldbu	r2,94(r2)
  8005bc:	d0a62185 	stb	r2,-26490(gp)
		vp = t.VP;
  8005c0:	00802074 	movhi	r2,129
  8005c4:	1080a804 	addi	r2,r2,672
  8005c8:	108017c3 	ldbu	r2,95(r2)
  8005cc:	d0a62145 	stb	r2,-26491(gp)
		sc_as = 0;
  8005d0:	d0262205 	stb	zero,-26488(gp)
		sc_vs = 0;
  8005d4:	d0262245 	stb	zero,-26487(gp)
	}

//	scchart_update_flag = 1;
	return 1;
  8005d8:	00800044 	movi	r2,1
}
  8005dc:	e037883a 	mov	sp,fp
  8005e0:	dfc00117 	ldw	ra,4(sp)
  8005e4:	df000017 	ldw	fp,0(sp)
  8005e8:	dec00204 	addi	sp,sp,8
  8005ec:	f800283a 	ret

008005f0 <main>:


int main() {
  8005f0:	defffd04 	addi	sp,sp,-12
  8005f4:	dfc00215 	stw	ra,8(sp)
  8005f8:	df000115 	stw	fp,4(sp)
  8005fc:	df000104 	addi	fp,sp,4
	// initialise the uart
    IOWR_ALTERA_AVALON_UART_CONTROL(UART_BASE, 0);
  800600:	0007883a 	mov	r3,zero
  800604:	00804074 	movhi	r2,257
  800608:	10841304 	addi	r2,r2,4172
  80060c:	10c00035 	stwio	r3,0(r2)

    // initialisaiton for sccharts mode
    reset( & t);
  800610:	01002074 	movhi	r4,129
  800614:	2100a804 	addi	r4,r4,672
  800618:	08074140 	call	807414 <reset>

    // keys and previous values
    alt_u8 key, key0_pre, key1_pre;

    // initialisation for C mode
    start_cycle();
  80061c:	08002900 	call	800290 <start_cycle>
    alt_alarm_start(&scchart_timer, 1, scchart_interrupt, NULL);
  800620:	000f883a 	mov	r7,zero
  800624:	01802034 	movhi	r6,128
  800628:	31815104 	addi	r6,r6,1348
  80062c:	01400044 	movi	r5,1
  800630:	01002074 	movhi	r4,129
  800634:	21011504 	addi	r4,r4,1108
  800638:	0808e200 	call	808e20 <alt_alarm_start>

    while (1) {

    	// sw 0: uart mode if off, buttons mode if on
        if (IORD_ALTERA_AVALON_PIO_DATA(SWITCHES_BASE) & 1) {
  80063c:	00804074 	movhi	r2,257
  800640:	10842404 	addi	r2,r2,4240
  800644:	10800037 	ldwio	r2,0(r2)
  800648:	1080004c 	andi	r2,r2,1
  80064c:	10004226 	beq	r2,zero,800758 <main+0x168>

            key = IORD_ALTERA_AVALON_PIO_DATA(KEYS_BASE);
  800650:	00804074 	movhi	r2,257
  800654:	10842804 	addi	r2,r2,4256
  800658:	10800037 	ldwio	r2,0(r2)
  80065c:	e0bfff85 	stb	r2,-2(fp)

            if ((~key & 0x01) == 1 && key0_pre == 0) { // key 0 rising : a V pulse is detected
  800660:	e0bfff83 	ldbu	r2,-2(fp)
  800664:	1080004c 	andi	r2,r2,1
  800668:	10000b1e 	bne	r2,zero,800698 <main+0xa8>
  80066c:	e0bfff03 	ldbu	r2,-4(fp)
  800670:	1000091e 	bne	r2,zero,800698 <main+0xa8>
                if (IORD_ALTERA_AVALON_PIO_DATA(SWITCHES_BASE) & 2) {
  800674:	00804074 	movhi	r2,257
  800678:	10842404 	addi	r2,r2,4240
  80067c:	10800037 	ldwio	r2,0(r2)
  800680:	1080008c 	andi	r2,r2,2
  800684:	10000326 	beq	r2,zero,800694 <main+0xa4>
                    sc_vs = 1;
  800688:	00800044 	movi	r2,1
  80068c:	d0a62245 	stb	r2,-26487(gp)
  800690:	00000106 	br	800698 <main+0xa8>
                } else {
                    extern_v_interrupt();
  800694:	08004a40 	call	8004a4 <extern_v_interrupt>
                }
            }
            key0_pre = ~key & 0x01;
  800698:	e0bfff83 	ldbu	r2,-2(fp)
  80069c:	1080004c 	andi	r2,r2,1
  8006a0:	1005003a 	cmpeq	r2,r2,zero
  8006a4:	e0bfff05 	stb	r2,-4(fp)

            if ((~key & 0x02) >> 1 == 1 && key1_pre == 0) { // key 1 rising : a A pulse is detected
  8006a8:	e0bfff83 	ldbu	r2,-2(fp)
  8006ac:	0084303a 	nor	r2,zero,r2
  8006b0:	1080008c 	andi	r2,r2,2
  8006b4:	1005d07a 	srai	r2,r2,1
  8006b8:	10800058 	cmpnei	r2,r2,1
  8006bc:	10000b1e 	bne	r2,zero,8006ec <main+0xfc>
  8006c0:	e0bfff43 	ldbu	r2,-3(fp)
  8006c4:	1000091e 	bne	r2,zero,8006ec <main+0xfc>

                if (IORD_ALTERA_AVALON_PIO_DATA(SWITCHES_BASE) & 2) {
  8006c8:	00804074 	movhi	r2,257
  8006cc:	10842404 	addi	r2,r2,4240
  8006d0:	10800037 	ldwio	r2,0(r2)
  8006d4:	1080008c 	andi	r2,r2,2
  8006d8:	10000326 	beq	r2,zero,8006e8 <main+0xf8>
                    sc_as = 1;
  8006dc:	00800044 	movi	r2,1
  8006e0:	d0a62205 	stb	r2,-26488(gp)
  8006e4:	00000106 	br	8006ec <main+0xfc>
                } else {
                    extern_a_interrupt();
  8006e8:	08004e00 	call	8004e0 <extern_a_interrupt>
                }
            }
            key1_pre = ~key & 0x02;
  8006ec:	e0bfff83 	ldbu	r2,-2(fp)
  8006f0:	0084303a 	nor	r2,zero,r2
  8006f4:	1080008c 	andi	r2,r2,2
  8006f8:	e0bfff45 	stb	r2,-3(fp)

            // make the pulses short, and control leds
            if (vp) {
  8006fc:	d0a62143 	ldbu	r2,-26491(gp)
  800700:	10803fcc 	andi	r2,r2,255
  800704:	10000826 	beq	r2,zero,800728 <main+0x138>
                vp = 0;
  800708:	d0262145 	stb	zero,-26491(gp)
                IOWR_ALTERA_AVALON_PIO_DATA(LEDS_GREEN_BASE, IORD_ALTERA_AVALON_PIO_DATA(LEDS_GREEN_BASE) | 0x0F); // upper 4 if VP
  80070c:	00804074 	movhi	r2,257
  800710:	10841c04 	addi	r2,r2,4208
  800714:	10800037 	ldwio	r2,0(r2)
  800718:	10c003d4 	ori	r3,r2,15
  80071c:	00804074 	movhi	r2,257
  800720:	10841c04 	addi	r2,r2,4208
  800724:	10c00035 	stwio	r3,0(r2)
            }
            if (ap) {
  800728:	d0a62183 	ldbu	r2,-26490(gp)
  80072c:	10803fcc 	andi	r2,r2,255
  800730:	10002a26 	beq	r2,zero,8007dc <main+0x1ec>
                ap = 0;
  800734:	d0262185 	stb	zero,-26490(gp)
                IOWR_ALTERA_AVALON_PIO_DATA(LEDS_GREEN_BASE, IORD_ALTERA_AVALON_PIO_DATA(LEDS_GREEN_BASE) | 0xF0); // lower 4 if AP
  800738:	00804074 	movhi	r2,257
  80073c:	10841c04 	addi	r2,r2,4208
  800740:	10800037 	ldwio	r2,0(r2)
  800744:	10c03c14 	ori	r3,r2,240
  800748:	00804074 	movhi	r2,257
  80074c:	10841c04 	addi	r2,r2,4208
  800750:	10c00035 	stwio	r3,0(r2)
  800754:	00002106 	br	8007dc <main+0x1ec>
            }


        } else {
        	// uart control, tx and rx
            uart_rx( &char_recieve);
  800758:	d1262284 	addi	r4,gp,-26486
  80075c:	08079100 	call	807910 <uart_rx>
            if (char_recieve == 'A') {
  800760:	d0a62283 	ldbu	r2,-26486(gp)
  800764:	10803fcc 	andi	r2,r2,255
  800768:	1080201c 	xori	r2,r2,128
  80076c:	10bfe004 	addi	r2,r2,-128
  800770:	10801058 	cmpnei	r2,r2,65
  800774:	1000031e 	bne	r2,zero,800784 <main+0x194>
                extern_a_interrupt();
  800778:	08004e00 	call	8004e0 <extern_a_interrupt>
                sc_as = 1;
  80077c:	00800044 	movi	r2,1
  800780:	d0a62205 	stb	r2,-26488(gp)
            }
            if (char_recieve == 'V') {
  800784:	d0a62283 	ldbu	r2,-26486(gp)
  800788:	10803fcc 	andi	r2,r2,255
  80078c:	1080201c 	xori	r2,r2,128
  800790:	10bfe004 	addi	r2,r2,-128
  800794:	10801598 	cmpnei	r2,r2,86
  800798:	1000031e 	bne	r2,zero,8007a8 <main+0x1b8>
                extern_v_interrupt();
  80079c:	08004a40 	call	8004a4 <extern_v_interrupt>
                sc_vs = 1;
  8007a0:	00800044 	movi	r2,1
  8007a4:	d0a62245 	stb	r2,-26487(gp)
            }

            if (vp) {
  8007a8:	d0a62143 	ldbu	r2,-26491(gp)
  8007ac:	10803fcc 	andi	r2,r2,255
  8007b0:	10000326 	beq	r2,zero,8007c0 <main+0x1d0>
                vp = 0;
  8007b4:	d0262145 	stb	zero,-26491(gp)
                uart_tx('V');
  8007b8:	01001584 	movi	r4,86
  8007bc:	08078c00 	call	8078c0 <uart_tx>
            }
            if (ap) {
  8007c0:	d0a62183 	ldbu	r2,-26490(gp)
  8007c4:	10803fcc 	andi	r2,r2,255
  8007c8:	10000326 	beq	r2,zero,8007d8 <main+0x1e8>
                ap = 0;
  8007cc:	d0262185 	stb	zero,-26490(gp)
                uart_tx('A');
  8007d0:	01001044 	movi	r4,65
  8007d4:	08078c00 	call	8078c0 <uart_tx>
            }
            char_recieve = '\0';
  8007d8:	d0262285 	stb	zero,-26486(gp)

        }

        if (IORD_ALTERA_AVALON_PIO_DATA(SWITCHES_BASE) & 2) { // if its on then sccharts SW1
  8007dc:	00804074 	movhi	r2,257
  8007e0:	10842404 	addi	r2,r2,4240
  8007e4:	10800037 	ldwio	r2,0(r2)
  8007e8:	1080008c 	andi	r2,r2,2
  8007ec:	103f931e 	bne	r2,zero,80063c <__alt_mem_onchip_mem+0xff7f863c>


        } else { // c mode
            if (reset_cycle) { // a v event has occurred and timers must be reset
  8007f0:	d0a62043 	ldbu	r2,-26495(gp)
  8007f4:	10803fcc 	andi	r2,r2,255
  8007f8:	10000226 	beq	r2,zero,800804 <main+0x214>
                reset_cycle = 0; // reset everything
  8007fc:	d0262045 	stb	zero,-26495(gp)
                start_cycle();
  800800:	08002900 	call	800290 <start_cycle>
            }
            if (can_vpulse && need_v_pulse) {
  800804:	d0a62003 	ldbu	r2,-26496(gp)
  800808:	10803fcc 	andi	r2,r2,255
  80080c:	103f8b26 	beq	r2,zero,80063c <__alt_mem_onchip_mem+0xff7f863c>
  800810:	d0a620c3 	ldbu	r2,-26493(gp)
  800814:	10803fcc 	andi	r2,r2,255
  800818:	103f8826 	beq	r2,zero,80063c <__alt_mem_onchip_mem+0xff7f863c>
                need_v_pulse = 0;
  80081c:	d02620c5 	stb	zero,-26493(gp)
                vp = 1;
  800820:	00800044 	movi	r2,1
  800824:	d0a62145 	stb	r2,-26491(gp)
                reset_cycle = 1;
  800828:	00800044 	movi	r2,1
  80082c:	d0a62045 	stb	r2,-26495(gp)
            }
        }

    }
  800830:	003f8206 	br	80063c <__alt_mem_onchip_mem+0xff7f863c>

00800834 <logic>:
#include "timing.h"
#include <stdio.h>

#include "scchart_heart.h"

void logic(TickData* d) {
  800834:	defffa04 	addi	sp,sp,-24
  800838:	dfc00515 	stw	ra,20(sp)
  80083c:	df000415 	stw	fp,16(sp)
  800840:	dc800315 	stw	r18,12(sp)
  800844:	dc400215 	stw	r17,8(sp)
  800848:	dc000115 	stw	r16,4(sp)
  80084c:	df000404 	addi	fp,sp,16
  800850:	e13ffc15 	stw	r4,-16(fp)
  d->_g30 = d->_pg9;
  800854:	e0bffc17 	ldw	r2,-16(fp)
  800858:	10c063c3 	ldbu	r3,399(r2)
  80085c:	e0bffc17 	ldw	r2,-16(fp)
  800860:	10c023c5 	stb	r3,143(r2)
  if (d->_g30) {
  800864:	e0bffc17 	ldw	r2,-16(fp)
  800868:	108023c3 	ldbu	r2,143(r2)
  80086c:	10803fcc 	andi	r2,r2,255
  800870:	1080201c 	xori	r2,r2,128
  800874:	10bfe004 	addi	r2,r2,-128
  800878:	10001226 	beq	r2,zero,8008c4 <logic+0x90>
    d->_region0_null_URI += d->deltaT;
  80087c:	e13ffc17 	ldw	r4,-16(fp)
  800880:	20800717 	ldw	r2,28(r4)
  800884:	20c00817 	ldw	r3,32(r4)
  800888:	e1bffc17 	ldw	r6,-16(fp)
  80088c:	31001317 	ldw	r4,76(r6)
  800890:	31401417 	ldw	r5,80(r6)
  800894:	200d883a 	mov	r6,r4
  800898:	280f883a 	mov	r7,r5
  80089c:	1009883a 	mov	r4,r2
  8008a0:	180b883a 	mov	r5,r3
  8008a4:	08079680 	call	807968 <__adddf3>
  8008a8:	1009883a 	mov	r4,r2
  8008ac:	180b883a 	mov	r5,r3
  8008b0:	2005883a 	mov	r2,r4
  8008b4:	2807883a 	mov	r3,r5
  8008b8:	e13ffc17 	ldw	r4,-16(fp)
  8008bc:	20800715 	stw	r2,28(r4)
  8008c0:	20c00815 	stw	r3,32(r4)
  }
  d->_g31_e1 = !d->_g30;
  8008c4:	e0bffc17 	ldw	r2,-16(fp)
  8008c8:	108023c3 	ldbu	r2,143(r2)
  8008cc:	10803fcc 	andi	r2,r2,255
  8008d0:	1080201c 	xori	r2,r2,128
  8008d4:	10bfe004 	addi	r2,r2,-128
  8008d8:	1005003a 	cmpeq	r2,r2,zero
  8008dc:	1007883a 	mov	r3,r2
  8008e0:	e0bffc17 	ldw	r2,-16(fp)
  8008e4:	10c05cc5 	stb	r3,371(r2)
  d->AP = 0;
  8008e8:	e0bffc17 	ldw	r2,-16(fp)
  8008ec:	10001785 	stb	zero,94(r2)
  d->VP = 0;
  8008f0:	e0bffc17 	ldw	r2,-16(fp)
  8008f4:	100017c5 	stb	zero,95(r2)
  d->VR = 0;
  8008f8:	e0bffc17 	ldw	r2,-16(fp)
  8008fc:	10001805 	stb	zero,96(r2)
  d->AR = 0;
  800900:	e0bffc17 	ldw	r2,-16(fp)
  800904:	10001845 	stb	zero,97(r2)
  d->a = 0;
  800908:	e0bffc17 	ldw	r2,-16(fp)
  80090c:	10001885 	stb	zero,98(r2)
  d->v = 0;
  800910:	e0bffc17 	ldw	r2,-16(fp)
  800914:	100018c5 	stb	zero,99(r2)
  d->VS_i = 0;
  800918:	e0bffc17 	ldw	r2,-16(fp)
  80091c:	10001905 	stb	zero,100(r2)
  d->_pre_VS_i = d->_reg_VS_i;
  800920:	e0bffc17 	ldw	r2,-16(fp)
  800924:	10c019c3 	ldbu	r3,103(r2)
  800928:	e0bffc17 	ldw	r2,-16(fp)
  80092c:	10c01a05 	stb	r3,104(r2)
  d->_g235 = d->_pg217;
  800930:	e0bffc17 	ldw	r2,-16(fp)
  800934:	10c06403 	ldbu	r3,400(r2)
  800938:	e0bffc17 	ldw	r2,-16(fp)
  80093c:	10c04485 	stb	r3,274(r2)
  d->_cg235 = d->_pre_VS_i;
  800940:	e0bffc17 	ldw	r2,-16(fp)
  800944:	10c01a03 	ldbu	r3,104(r2)
  800948:	e0bffc17 	ldw	r2,-16(fp)
  80094c:	10c05bc5 	stb	r3,367(r2)
  d->_g236 = d->_g235 && d->_cg235;
  800950:	e0bffc17 	ldw	r2,-16(fp)
  800954:	10804483 	ldbu	r2,274(r2)
  800958:	10803fcc 	andi	r2,r2,255
  80095c:	1080201c 	xori	r2,r2,128
  800960:	10bfe004 	addi	r2,r2,-128
  800964:	10000826 	beq	r2,zero,800988 <logic+0x154>
  800968:	e0bffc17 	ldw	r2,-16(fp)
  80096c:	10805bc3 	ldbu	r2,367(r2)
  800970:	10803fcc 	andi	r2,r2,255
  800974:	1080201c 	xori	r2,r2,128
  800978:	10bfe004 	addi	r2,r2,-128
  80097c:	10000226 	beq	r2,zero,800988 <logic+0x154>
  800980:	00800044 	movi	r2,1
  800984:	00000106 	br	80098c <logic+0x158>
  800988:	0005883a 	mov	r2,zero
  80098c:	1007883a 	mov	r3,r2
  800990:	e0bffc17 	ldw	r2,-16(fp)
  800994:	10c044c5 	stb	r3,275(r2)
  if (d->_g236) {
  800998:	e0bffc17 	ldw	r2,-16(fp)
  80099c:	108044c3 	ldbu	r2,275(r2)
  8009a0:	10803fcc 	andi	r2,r2,255
  8009a4:	1080201c 	xori	r2,r2,128
  8009a8:	10bfe004 	addi	r2,r2,-128
  8009ac:	10000626 	beq	r2,zero,8009c8 <logic+0x194>
    d->v |= 1;
  8009b0:	e0bffc17 	ldw	r2,-16(fp)
  8009b4:	108018c3 	ldbu	r2,99(r2)
  8009b8:	10800054 	ori	r2,r2,1
  8009bc:	1007883a 	mov	r3,r2
  8009c0:	e0bffc17 	ldw	r2,-16(fp)
  8009c4:	10c018c5 	stb	r3,99(r2)
  }
  d->_pre_VP = d->_reg_VP;
  8009c8:	e0bffc17 	ldw	r2,-16(fp)
  8009cc:	10c01943 	ldbu	r3,101(r2)
  8009d0:	e0bffc17 	ldw	r2,-16(fp)
  8009d4:	10c01985 	stb	r3,102(r2)
  d->_g235 = d->_g235 && !d->_cg235;
  8009d8:	e0bffc17 	ldw	r2,-16(fp)
  8009dc:	10804483 	ldbu	r2,274(r2)
  8009e0:	10803fcc 	andi	r2,r2,255
  8009e4:	1080201c 	xori	r2,r2,128
  8009e8:	10bfe004 	addi	r2,r2,-128
  8009ec:	10000826 	beq	r2,zero,800a10 <logic+0x1dc>
  8009f0:	e0bffc17 	ldw	r2,-16(fp)
  8009f4:	10805bc3 	ldbu	r2,367(r2)
  8009f8:	10803fcc 	andi	r2,r2,255
  8009fc:	1080201c 	xori	r2,r2,128
  800a00:	10bfe004 	addi	r2,r2,-128
  800a04:	1000021e 	bne	r2,zero,800a10 <logic+0x1dc>
  800a08:	00800044 	movi	r2,1
  800a0c:	00000106 	br	800a14 <logic+0x1e0>
  800a10:	0005883a 	mov	r2,zero
  800a14:	1007883a 	mov	r3,r2
  800a18:	e0bffc17 	ldw	r2,-16(fp)
  800a1c:	10c04485 	stb	r3,274(r2)
  d->_cg237 = d->_pre_VP;
  800a20:	e0bffc17 	ldw	r2,-16(fp)
  800a24:	10c01983 	ldbu	r3,102(r2)
  800a28:	e0bffc17 	ldw	r2,-16(fp)
  800a2c:	10c05b85 	stb	r3,366(r2)
  d->_g238 = d->_g235 && d->_cg237;
  800a30:	e0bffc17 	ldw	r2,-16(fp)
  800a34:	10804483 	ldbu	r2,274(r2)
  800a38:	10803fcc 	andi	r2,r2,255
  800a3c:	1080201c 	xori	r2,r2,128
  800a40:	10bfe004 	addi	r2,r2,-128
  800a44:	10000826 	beq	r2,zero,800a68 <logic+0x234>
  800a48:	e0bffc17 	ldw	r2,-16(fp)
  800a4c:	10805b83 	ldbu	r2,366(r2)
  800a50:	10803fcc 	andi	r2,r2,255
  800a54:	1080201c 	xori	r2,r2,128
  800a58:	10bfe004 	addi	r2,r2,-128
  800a5c:	10000226 	beq	r2,zero,800a68 <logic+0x234>
  800a60:	00800044 	movi	r2,1
  800a64:	00000106 	br	800a6c <logic+0x238>
  800a68:	0005883a 	mov	r2,zero
  800a6c:	1007883a 	mov	r3,r2
  800a70:	e0bffc17 	ldw	r2,-16(fp)
  800a74:	10c04505 	stb	r3,276(r2)
  if (d->_g238) {
  800a78:	e0bffc17 	ldw	r2,-16(fp)
  800a7c:	10804503 	ldbu	r2,276(r2)
  800a80:	10803fcc 	andi	r2,r2,255
  800a84:	1080201c 	xori	r2,r2,128
  800a88:	10bfe004 	addi	r2,r2,-128
  800a8c:	10000626 	beq	r2,zero,800aa8 <logic+0x274>
    d->v |= 1;
  800a90:	e0bffc17 	ldw	r2,-16(fp)
  800a94:	108018c3 	ldbu	r2,99(r2)
  800a98:	10800054 	ori	r2,r2,1
  800a9c:	1007883a 	mov	r3,r2
  800aa0:	e0bffc17 	ldw	r2,-16(fp)
  800aa4:	10c018c5 	stb	r3,99(r2)
  }
  d->_g34 = d->_pg13;
  800aa8:	e0bffc17 	ldw	r2,-16(fp)
  800aac:	10c06443 	ldbu	r3,401(r2)
  800ab0:	e0bffc17 	ldw	r2,-16(fp)
  800ab4:	10c02445 	stb	r3,145(r2)
  d->_cg34 = d->v;
  800ab8:	e0bffc17 	ldw	r2,-16(fp)
  800abc:	10c018c3 	ldbu	r3,99(r2)
  800ac0:	e0bffc17 	ldw	r2,-16(fp)
  800ac4:	10c048c5 	stb	r3,291(r2)
  d->_g35 = d->_g34 && d->_cg34;
  800ac8:	e0bffc17 	ldw	r2,-16(fp)
  800acc:	10802443 	ldbu	r2,145(r2)
  800ad0:	10803fcc 	andi	r2,r2,255
  800ad4:	1080201c 	xori	r2,r2,128
  800ad8:	10bfe004 	addi	r2,r2,-128
  800adc:	10000826 	beq	r2,zero,800b00 <logic+0x2cc>
  800ae0:	e0bffc17 	ldw	r2,-16(fp)
  800ae4:	108048c3 	ldbu	r2,291(r2)
  800ae8:	10803fcc 	andi	r2,r2,255
  800aec:	1080201c 	xori	r2,r2,128
  800af0:	10bfe004 	addi	r2,r2,-128
  800af4:	10000226 	beq	r2,zero,800b00 <logic+0x2cc>
  800af8:	00800044 	movi	r2,1
  800afc:	00000106 	br	800b04 <logic+0x2d0>
  800b00:	0005883a 	mov	r2,zero
  800b04:	1007883a 	mov	r3,r2
  800b08:	e0bffc17 	ldw	r2,-16(fp)
  800b0c:	10c02485 	stb	r3,146(r2)
  if (d->_g35) {
  800b10:	e0bffc17 	ldw	r2,-16(fp)
  800b14:	10802483 	ldbu	r2,146(r2)
  800b18:	10803fcc 	andi	r2,r2,255
  800b1c:	1080201c 	xori	r2,r2,128
  800b20:	10bfe004 	addi	r2,r2,-128
  800b24:	10000326 	beq	r2,zero,800b34 <logic+0x300>
    d->_heart2_local__Atrig2 = 1;
  800b28:	e0bffc17 	ldw	r2,-16(fp)
  800b2c:	00c00044 	movi	r3,1
  800b30:	10c01ac5 	stb	r3,107(r2)
  }
  d->_cg30 = d->_heart2_local__Atrig2;
  800b34:	e0bffc17 	ldw	r2,-16(fp)
  800b38:	10c01ac3 	ldbu	r3,107(r2)
  800b3c:	e0bffc17 	ldw	r2,-16(fp)
  800b40:	10c04885 	stb	r3,290(r2)
  d->_g31 = d->_g30 && d->_cg30;
  800b44:	e0bffc17 	ldw	r2,-16(fp)
  800b48:	108023c3 	ldbu	r2,143(r2)
  800b4c:	10803fcc 	andi	r2,r2,255
  800b50:	1080201c 	xori	r2,r2,128
  800b54:	10bfe004 	addi	r2,r2,-128
  800b58:	10000826 	beq	r2,zero,800b7c <logic+0x348>
  800b5c:	e0bffc17 	ldw	r2,-16(fp)
  800b60:	10804883 	ldbu	r2,290(r2)
  800b64:	10803fcc 	andi	r2,r2,255
  800b68:	1080201c 	xori	r2,r2,128
  800b6c:	10bfe004 	addi	r2,r2,-128
  800b70:	10000226 	beq	r2,zero,800b7c <logic+0x348>
  800b74:	00800044 	movi	r2,1
  800b78:	00000106 	br	800b80 <logic+0x34c>
  800b7c:	0005883a 	mov	r2,zero
  800b80:	1007883a 	mov	r3,r2
  800b84:	e0bffc17 	ldw	r2,-16(fp)
  800b88:	10c02405 	stb	r3,144(r2)
  d->_g35_e2 = !d->_g34;
  800b8c:	e0bffc17 	ldw	r2,-16(fp)
  800b90:	10802443 	ldbu	r2,145(r2)
  800b94:	10803fcc 	andi	r2,r2,255
  800b98:	1080201c 	xori	r2,r2,128
  800b9c:	10bfe004 	addi	r2,r2,-128
  800ba0:	1005003a 	cmpeq	r2,r2,zero
  800ba4:	1007883a 	mov	r3,r2
  800ba8:	e0bffc17 	ldw	r2,-16(fp)
  800bac:	10c05d05 	stb	r3,372(r2)
  d->_g35_e2 = (d->_g31_e1 || d->_g31) && (d->_g35_e2 || d->_g35) && (d->_g31 || d->_g35);
  800bb0:	e0bffc17 	ldw	r2,-16(fp)
  800bb4:	10805cc3 	ldbu	r2,371(r2)
  800bb8:	10803fcc 	andi	r2,r2,255
  800bbc:	1080201c 	xori	r2,r2,128
  800bc0:	10bfe004 	addi	r2,r2,-128
  800bc4:	1000061e 	bne	r2,zero,800be0 <logic+0x3ac>
  800bc8:	e0bffc17 	ldw	r2,-16(fp)
  800bcc:	10802403 	ldbu	r2,144(r2)
  800bd0:	10803fcc 	andi	r2,r2,255
  800bd4:	1080201c 	xori	r2,r2,128
  800bd8:	10bfe004 	addi	r2,r2,-128
  800bdc:	10001a26 	beq	r2,zero,800c48 <logic+0x414>
  800be0:	e0bffc17 	ldw	r2,-16(fp)
  800be4:	10805d03 	ldbu	r2,372(r2)
  800be8:	10803fcc 	andi	r2,r2,255
  800bec:	1080201c 	xori	r2,r2,128
  800bf0:	10bfe004 	addi	r2,r2,-128
  800bf4:	1000061e 	bne	r2,zero,800c10 <logic+0x3dc>
  800bf8:	e0bffc17 	ldw	r2,-16(fp)
  800bfc:	10802483 	ldbu	r2,146(r2)
  800c00:	10803fcc 	andi	r2,r2,255
  800c04:	1080201c 	xori	r2,r2,128
  800c08:	10bfe004 	addi	r2,r2,-128
  800c0c:	10000e26 	beq	r2,zero,800c48 <logic+0x414>
  800c10:	e0bffc17 	ldw	r2,-16(fp)
  800c14:	10802403 	ldbu	r2,144(r2)
  800c18:	10803fcc 	andi	r2,r2,255
  800c1c:	1080201c 	xori	r2,r2,128
  800c20:	10bfe004 	addi	r2,r2,-128
  800c24:	1000061e 	bne	r2,zero,800c40 <logic+0x40c>
  800c28:	e0bffc17 	ldw	r2,-16(fp)
  800c2c:	10802483 	ldbu	r2,146(r2)
  800c30:	10803fcc 	andi	r2,r2,255
  800c34:	1080201c 	xori	r2,r2,128
  800c38:	10bfe004 	addi	r2,r2,-128
  800c3c:	10000226 	beq	r2,zero,800c48 <logic+0x414>
  800c40:	00800044 	movi	r2,1
  800c44:	00000106 	br	800c4c <logic+0x418>
  800c48:	0005883a 	mov	r2,zero
  800c4c:	1007883a 	mov	r3,r2
  800c50:	e0bffc17 	ldw	r2,-16(fp)
  800c54:	10c05d05 	stb	r3,372(r2)
  if (d->_g35_e2) {
  800c58:	e0bffc17 	ldw	r2,-16(fp)
  800c5c:	10805d03 	ldbu	r2,372(r2)
  800c60:	10803fcc 	andi	r2,r2,255
  800c64:	1080201c 	xori	r2,r2,128
  800c68:	10bfe004 	addi	r2,r2,-128
  800c6c:	10000526 	beq	r2,zero,800c84 <logic+0x450>
    d->_region0_null_URI = 0;
  800c70:	e0bffc17 	ldw	r2,-16(fp)
  800c74:	10000715 	stw	zero,28(r2)
  800c78:	10000815 	stw	zero,32(r2)
    d->ready = 0;
  800c7c:	e0bffc17 	ldw	r2,-16(fp)
  800c80:	10000605 	stb	zero,24(r2)
  }
  d->_g31 = d->_pg7_e1;
  800c84:	e0bffc17 	ldw	r2,-16(fp)
  800c88:	10c06483 	ldbu	r3,402(r2)
  800c8c:	e0bffc17 	ldw	r2,-16(fp)
  800c90:	10c02405 	stb	r3,144(r2)
  if (d->_g31) {
  800c94:	e0bffc17 	ldw	r2,-16(fp)
  800c98:	10802403 	ldbu	r2,144(r2)
  800c9c:	10803fcc 	andi	r2,r2,255
  800ca0:	1080201c 	xori	r2,r2,128
  800ca4:	10bfe004 	addi	r2,r2,-128
  800ca8:	10001226 	beq	r2,zero,800cf4 <logic+0x4c0>
    d->_region0_null_URI += d->deltaT;
  800cac:	e13ffc17 	ldw	r4,-16(fp)
  800cb0:	20800717 	ldw	r2,28(r4)
  800cb4:	20c00817 	ldw	r3,32(r4)
  800cb8:	e1bffc17 	ldw	r6,-16(fp)
  800cbc:	31001317 	ldw	r4,76(r6)
  800cc0:	31401417 	ldw	r5,80(r6)
  800cc4:	200d883a 	mov	r6,r4
  800cc8:	280f883a 	mov	r7,r5
  800ccc:	1009883a 	mov	r4,r2
  800cd0:	180b883a 	mov	r5,r3
  800cd4:	08079680 	call	807968 <__adddf3>
  800cd8:	1009883a 	mov	r4,r2
  800cdc:	180b883a 	mov	r5,r3
  800ce0:	2005883a 	mov	r2,r4
  800ce4:	2807883a 	mov	r3,r5
  800ce8:	e13ffc17 	ldw	r4,-16(fp)
  800cec:	20800715 	stw	r2,28(r4)
  800cf0:	20c00815 	stw	r3,32(r4)
  }
  d->_g31_e1 = !d->_g31;
  800cf4:	e0bffc17 	ldw	r2,-16(fp)
  800cf8:	10802403 	ldbu	r2,144(r2)
  800cfc:	10803fcc 	andi	r2,r2,255
  800d00:	1080201c 	xori	r2,r2,128
  800d04:	10bfe004 	addi	r2,r2,-128
  800d08:	1005003a 	cmpeq	r2,r2,zero
  800d0c:	1007883a 	mov	r3,r2
  800d10:	e0bffc17 	ldw	r2,-16(fp)
  800d14:	10c05cc5 	stb	r3,371(r2)
  d->_g35 = d->_pg36;
  800d18:	e0bffc17 	ldw	r2,-16(fp)
  800d1c:	10c064c3 	ldbu	r3,403(r2)
  800d20:	e0bffc17 	ldw	r2,-16(fp)
  800d24:	10c02485 	stb	r3,146(r2)
  d->_cg21 = d->_region0_null_URI >= d->URI_time;
  800d28:	e0bffc17 	ldw	r2,-16(fp)
  800d2c:	14000717 	ldw	r16,28(r2)
  800d30:	14400817 	ldw	r17,32(r2)
  800d34:	e0bffc17 	ldw	r2,-16(fp)
  800d38:	10800217 	ldw	r2,8(r2)
  800d3c:	1009883a 	mov	r4,r2
  800d40:	0808ce00 	call	808ce0 <__floatsidf>
  800d44:	1009883a 	mov	r4,r2
  800d48:	180b883a 	mov	r5,r3
  800d4c:	04800044 	movi	r18,1
  800d50:	200d883a 	mov	r6,r4
  800d54:	280f883a 	mov	r7,r5
  800d58:	8009883a 	mov	r4,r16
  800d5c:	880b883a 	mov	r5,r17
  800d60:	08082140 	call	808214 <__gedf2>
  800d64:	1000010e 	bge	r2,zero,800d6c <logic+0x538>
  800d68:	0025883a 	mov	r18,zero
  800d6c:	9007883a 	mov	r3,r18
  800d70:	e0bffc17 	ldw	r2,-16(fp)
  800d74:	10c047c5 	stb	r3,287(r2)
  d->_g22 = d->_g35 && d->_cg21;
  800d78:	e0bffc17 	ldw	r2,-16(fp)
  800d7c:	10802483 	ldbu	r2,146(r2)
  800d80:	10803fcc 	andi	r2,r2,255
  800d84:	1080201c 	xori	r2,r2,128
  800d88:	10bfe004 	addi	r2,r2,-128
  800d8c:	10000826 	beq	r2,zero,800db0 <logic+0x57c>
  800d90:	e0bffc17 	ldw	r2,-16(fp)
  800d94:	108047c3 	ldbu	r2,287(r2)
  800d98:	10803fcc 	andi	r2,r2,255
  800d9c:	1080201c 	xori	r2,r2,128
  800da0:	10bfe004 	addi	r2,r2,-128
  800da4:	10000226 	beq	r2,zero,800db0 <logic+0x57c>
  800da8:	00800044 	movi	r2,1
  800dac:	00000106 	br	800db4 <logic+0x580>
  800db0:	0005883a 	mov	r2,zero
  800db4:	1007883a 	mov	r3,r2
  800db8:	e0bffc17 	ldw	r2,-16(fp)
  800dbc:	10c02245 	stb	r3,137(r2)
  if (d->_g22) {
  800dc0:	e0bffc17 	ldw	r2,-16(fp)
  800dc4:	10802243 	ldbu	r2,137(r2)
  800dc8:	10803fcc 	andi	r2,r2,255
  800dcc:	1080201c 	xori	r2,r2,128
  800dd0:	10bfe004 	addi	r2,r2,-128
  800dd4:	10000326 	beq	r2,zero,800de4 <logic+0x5b0>
    d->_heart2_local__Atrig = 1;
  800dd8:	e0bffc17 	ldw	r2,-16(fp)
  800ddc:	00c00044 	movi	r3,1
  800de0:	10c01a45 	stb	r3,105(r2)
  }
  d->_g24 = d->_g35 && !d->_cg21;
  800de4:	e0bffc17 	ldw	r2,-16(fp)
  800de8:	10802483 	ldbu	r2,146(r2)
  800dec:	10803fcc 	andi	r2,r2,255
  800df0:	1080201c 	xori	r2,r2,128
  800df4:	10bfe004 	addi	r2,r2,-128
  800df8:	10000826 	beq	r2,zero,800e1c <logic+0x5e8>
  800dfc:	e0bffc17 	ldw	r2,-16(fp)
  800e00:	108047c3 	ldbu	r2,287(r2)
  800e04:	10803fcc 	andi	r2,r2,255
  800e08:	1080201c 	xori	r2,r2,128
  800e0c:	10bfe004 	addi	r2,r2,-128
  800e10:	1000021e 	bne	r2,zero,800e1c <logic+0x5e8>
  800e14:	00800044 	movi	r2,1
  800e18:	00000106 	br	800e20 <logic+0x5ec>
  800e1c:	0005883a 	mov	r2,zero
  800e20:	1007883a 	mov	r3,r2
  800e24:	e0bffc17 	ldw	r2,-16(fp)
  800e28:	10c022c5 	stb	r3,139(r2)
  d->_cg24 = d->v;
  800e2c:	e0bffc17 	ldw	r2,-16(fp)
  800e30:	10c018c3 	ldbu	r3,99(r2)
  800e34:	e0bffc17 	ldw	r2,-16(fp)
  800e38:	10c04785 	stb	r3,286(r2)
  d->_g25 = d->_g24 && d->_cg24;
  800e3c:	e0bffc17 	ldw	r2,-16(fp)
  800e40:	108022c3 	ldbu	r2,139(r2)
  800e44:	10803fcc 	andi	r2,r2,255
  800e48:	1080201c 	xori	r2,r2,128
  800e4c:	10bfe004 	addi	r2,r2,-128
  800e50:	10000826 	beq	r2,zero,800e74 <logic+0x640>
  800e54:	e0bffc17 	ldw	r2,-16(fp)
  800e58:	10804783 	ldbu	r2,286(r2)
  800e5c:	10803fcc 	andi	r2,r2,255
  800e60:	1080201c 	xori	r2,r2,128
  800e64:	10bfe004 	addi	r2,r2,-128
  800e68:	10000226 	beq	r2,zero,800e74 <logic+0x640>
  800e6c:	00800044 	movi	r2,1
  800e70:	00000106 	br	800e78 <logic+0x644>
  800e74:	0005883a 	mov	r2,zero
  800e78:	1007883a 	mov	r3,r2
  800e7c:	e0bffc17 	ldw	r2,-16(fp)
  800e80:	10c02305 	stb	r3,140(r2)
  if (d->_g25) {
  800e84:	e0bffc17 	ldw	r2,-16(fp)
  800e88:	10802303 	ldbu	r2,140(r2)
  800e8c:	10803fcc 	andi	r2,r2,255
  800e90:	1080201c 	xori	r2,r2,128
  800e94:	10bfe004 	addi	r2,r2,-128
  800e98:	10000326 	beq	r2,zero,800ea8 <logic+0x674>
    d->_heart2_local__Atrig1 = 1;
  800e9c:	e0bffc17 	ldw	r2,-16(fp)
  800ea0:	00c00044 	movi	r3,1
  800ea4:	10c01a85 	stb	r3,106(r2)
  }
  d->_cg6 = d->_heart2_local__Atrig || d->_heart2_local__Atrig1;
  800ea8:	e0bffc17 	ldw	r2,-16(fp)
  800eac:	10801a43 	ldbu	r2,105(r2)
  800eb0:	10803fcc 	andi	r2,r2,255
  800eb4:	1080201c 	xori	r2,r2,128
  800eb8:	10bfe004 	addi	r2,r2,-128
  800ebc:	1000061e 	bne	r2,zero,800ed8 <logic+0x6a4>
  800ec0:	e0bffc17 	ldw	r2,-16(fp)
  800ec4:	10801a83 	ldbu	r2,106(r2)
  800ec8:	10803fcc 	andi	r2,r2,255
  800ecc:	1080201c 	xori	r2,r2,128
  800ed0:	10bfe004 	addi	r2,r2,-128
  800ed4:	10000226 	beq	r2,zero,800ee0 <logic+0x6ac>
  800ed8:	00800044 	movi	r2,1
  800edc:	00000106 	br	800ee4 <logic+0x6b0>
  800ee0:	0005883a 	mov	r2,zero
  800ee4:	1007883a 	mov	r3,r2
  800ee8:	e0bffc17 	ldw	r2,-16(fp)
  800eec:	10c045c5 	stb	r3,279(r2)
  d->_g7 = d->_g31 && d->_cg6;
  800ef0:	e0bffc17 	ldw	r2,-16(fp)
  800ef4:	10802403 	ldbu	r2,144(r2)
  800ef8:	10803fcc 	andi	r2,r2,255
  800efc:	1080201c 	xori	r2,r2,128
  800f00:	10bfe004 	addi	r2,r2,-128
  800f04:	10000826 	beq	r2,zero,800f28 <logic+0x6f4>
  800f08:	e0bffc17 	ldw	r2,-16(fp)
  800f0c:	108045c3 	ldbu	r2,279(r2)
  800f10:	10803fcc 	andi	r2,r2,255
  800f14:	1080201c 	xori	r2,r2,128
  800f18:	10bfe004 	addi	r2,r2,-128
  800f1c:	10000226 	beq	r2,zero,800f28 <logic+0x6f4>
  800f20:	00800044 	movi	r2,1
  800f24:	00000106 	br	800f2c <logic+0x6f8>
  800f28:	0005883a 	mov	r2,zero
  800f2c:	1007883a 	mov	r3,r2
  800f30:	e0bffc17 	ldw	r2,-16(fp)
  800f34:	10c01fc5 	stb	r3,127(r2)
  d->_g17 = d->_pg37;
  800f38:	e0bffc17 	ldw	r2,-16(fp)
  800f3c:	10c06503 	ldbu	r3,404(r2)
  800f40:	e0bffc17 	ldw	r2,-16(fp)
  800f44:	10c02185 	stb	r3,134(r2)
  d->_g11 = d->_pg14;
  800f48:	e0bffc17 	ldw	r2,-16(fp)
  800f4c:	10c06543 	ldbu	r3,405(r2)
  800f50:	e0bffc17 	ldw	r2,-16(fp)
  800f54:	10c02045 	stb	r3,129(r2)
  d->_g14_e2 = !(d->_g17 || d->_g11);
  800f58:	e0bffc17 	ldw	r2,-16(fp)
  800f5c:	10802183 	ldbu	r2,134(r2)
  800f60:	10803fcc 	andi	r2,r2,255
  800f64:	1080201c 	xori	r2,r2,128
  800f68:	10bfe004 	addi	r2,r2,-128
  800f6c:	1000081e 	bne	r2,zero,800f90 <logic+0x75c>
  800f70:	e0bffc17 	ldw	r2,-16(fp)
  800f74:	10802043 	ldbu	r2,129(r2)
  800f78:	10803fcc 	andi	r2,r2,255
  800f7c:	1080201c 	xori	r2,r2,128
  800f80:	10bfe004 	addi	r2,r2,-128
  800f84:	1000021e 	bne	r2,zero,800f90 <logic+0x75c>
  800f88:	00800044 	movi	r2,1
  800f8c:	00000106 	br	800f94 <logic+0x760>
  800f90:	0005883a 	mov	r2,zero
  800f94:	1007883a 	mov	r3,r2
  800f98:	e0bffc17 	ldw	r2,-16(fp)
  800f9c:	10c05c45 	stb	r3,369(r2)
  d->sleepT = 1000.0;
  800fa0:	e0fffc17 	ldw	r3,-16(fp)
  800fa4:	18001515 	stw	zero,84(r3)
  800fa8:	009023f4 	movhi	r2,16527
  800fac:	10900004 	addi	r2,r2,16384
  800fb0:	18801615 	stw	r2,88(r3)
  d->_g11 = d->_g11 || d->_g17;
  800fb4:	e0bffc17 	ldw	r2,-16(fp)
  800fb8:	10802043 	ldbu	r2,129(r2)
  800fbc:	10803fcc 	andi	r2,r2,255
  800fc0:	1080201c 	xori	r2,r2,128
  800fc4:	10bfe004 	addi	r2,r2,-128
  800fc8:	1000061e 	bne	r2,zero,800fe4 <logic+0x7b0>
  800fcc:	e0bffc17 	ldw	r2,-16(fp)
  800fd0:	10802183 	ldbu	r2,134(r2)
  800fd4:	10803fcc 	andi	r2,r2,255
  800fd8:	1080201c 	xori	r2,r2,128
  800fdc:	10bfe004 	addi	r2,r2,-128
  800fe0:	10000226 	beq	r2,zero,800fec <logic+0x7b8>
  800fe4:	00800044 	movi	r2,1
  800fe8:	00000106 	br	800ff0 <logic+0x7bc>
  800fec:	0005883a 	mov	r2,zero
  800ff0:	1007883a 	mov	r3,r2
  800ff4:	e0bffc17 	ldw	r2,-16(fp)
  800ff8:	10c02045 	stb	r3,129(r2)
  d->_cg12 = d->_region0_null_URI < d->URI_time;
  800ffc:	e0bffc17 	ldw	r2,-16(fp)
  801000:	14000717 	ldw	r16,28(r2)
  801004:	14400817 	ldw	r17,32(r2)
  801008:	e0bffc17 	ldw	r2,-16(fp)
  80100c:	10800217 	ldw	r2,8(r2)
  801010:	1009883a 	mov	r4,r2
  801014:	0808ce00 	call	808ce0 <__floatsidf>
  801018:	1009883a 	mov	r4,r2
  80101c:	180b883a 	mov	r5,r3
  801020:	04800044 	movi	r18,1
  801024:	200d883a 	mov	r6,r4
  801028:	280f883a 	mov	r7,r5
  80102c:	8009883a 	mov	r4,r16
  801030:	880b883a 	mov	r5,r17
  801034:	08082f00 	call	8082f0 <__ledf2>
  801038:	10000116 	blt	r2,zero,801040 <logic+0x80c>
  80103c:	0025883a 	mov	r18,zero
  801040:	9007883a 	mov	r3,r18
  801044:	e0bffc17 	ldw	r2,-16(fp)
  801048:	10c046c5 	stb	r3,283(r2)
  d->_g17 = d->_g11 && d->_cg12;
  80104c:	e0bffc17 	ldw	r2,-16(fp)
  801050:	10802043 	ldbu	r2,129(r2)
  801054:	10803fcc 	andi	r2,r2,255
  801058:	1080201c 	xori	r2,r2,128
  80105c:	10bfe004 	addi	r2,r2,-128
  801060:	10000826 	beq	r2,zero,801084 <logic+0x850>
  801064:	e0bffc17 	ldw	r2,-16(fp)
  801068:	108046c3 	ldbu	r2,283(r2)
  80106c:	10803fcc 	andi	r2,r2,255
  801070:	1080201c 	xori	r2,r2,128
  801074:	10bfe004 	addi	r2,r2,-128
  801078:	10000226 	beq	r2,zero,801084 <logic+0x850>
  80107c:	00800044 	movi	r2,1
  801080:	00000106 	br	801088 <logic+0x854>
  801084:	0005883a 	mov	r2,zero
  801088:	1007883a 	mov	r3,r2
  80108c:	e0bffc17 	ldw	r2,-16(fp)
  801090:	10c02185 	stb	r3,134(r2)
  if (d->_g17) {
  801094:	e0bffc17 	ldw	r2,-16(fp)
  801098:	10802183 	ldbu	r2,134(r2)
  80109c:	10803fcc 	andi	r2,r2,255
  8010a0:	1080201c 	xori	r2,r2,128
  8010a4:	10bfe004 	addi	r2,r2,-128
  8010a8:	10003426 	beq	r2,zero,80117c <logic+0x948>
    d->sleepT = (d->sleepT < (d->URI_time - d->_region0_null_URI)) ? d->sleepT : (d->URI_time - d->_region0_null_URI);
  8010ac:	e0bffc17 	ldw	r2,-16(fp)
  8010b0:	14001517 	ldw	r16,84(r2)
  8010b4:	14401617 	ldw	r17,88(r2)
  8010b8:	e0bffc17 	ldw	r2,-16(fp)
  8010bc:	10800217 	ldw	r2,8(r2)
  8010c0:	1009883a 	mov	r4,r2
  8010c4:	0808ce00 	call	808ce0 <__floatsidf>
  8010c8:	1011883a 	mov	r8,r2
  8010cc:	1813883a 	mov	r9,r3
  8010d0:	e13ffc17 	ldw	r4,-16(fp)
  8010d4:	20800717 	ldw	r2,28(r4)
  8010d8:	20c00817 	ldw	r3,32(r4)
  8010dc:	100d883a 	mov	r6,r2
  8010e0:	180f883a 	mov	r7,r3
  8010e4:	4009883a 	mov	r4,r8
  8010e8:	480b883a 	mov	r5,r9
  8010ec:	08083e40 	call	8083e4 <__subdf3>
  8010f0:	1009883a 	mov	r4,r2
  8010f4:	180b883a 	mov	r5,r3
  8010f8:	2005883a 	mov	r2,r4
  8010fc:	2807883a 	mov	r3,r5
  801100:	100d883a 	mov	r6,r2
  801104:	180f883a 	mov	r7,r3
  801108:	8009883a 	mov	r4,r16
  80110c:	880b883a 	mov	r5,r17
  801110:	08082f00 	call	8082f0 <__ledf2>
  801114:	1000040e 	bge	r2,zero,801128 <logic+0x8f4>
  801118:	e13ffc17 	ldw	r4,-16(fp)
  80111c:	20801517 	ldw	r2,84(r4)
  801120:	20c01617 	ldw	r3,88(r4)
  801124:	00001206 	br	801170 <logic+0x93c>
  801128:	e0bffc17 	ldw	r2,-16(fp)
  80112c:	10800217 	ldw	r2,8(r2)
  801130:	1009883a 	mov	r4,r2
  801134:	0808ce00 	call	808ce0 <__floatsidf>
  801138:	1011883a 	mov	r8,r2
  80113c:	1813883a 	mov	r9,r3
  801140:	e13ffc17 	ldw	r4,-16(fp)
  801144:	20800717 	ldw	r2,28(r4)
  801148:	20c00817 	ldw	r3,32(r4)
  80114c:	100d883a 	mov	r6,r2
  801150:	180f883a 	mov	r7,r3
  801154:	4009883a 	mov	r4,r8
  801158:	480b883a 	mov	r5,r9
  80115c:	08083e40 	call	8083e4 <__subdf3>
  801160:	1009883a 	mov	r4,r2
  801164:	180b883a 	mov	r5,r3
  801168:	2005883a 	mov	r2,r4
  80116c:	2807883a 	mov	r3,r5
  801170:	e13ffc17 	ldw	r4,-16(fp)
  801174:	20801515 	stw	r2,84(r4)
  801178:	20c01615 	stw	r3,88(r4)
  }
  d->_cg13 = d->_heart2_local__Atrig || d->_heart2_local__Atrig1;
  80117c:	e0bffc17 	ldw	r2,-16(fp)
  801180:	10801a43 	ldbu	r2,105(r2)
  801184:	10803fcc 	andi	r2,r2,255
  801188:	1080201c 	xori	r2,r2,128
  80118c:	10bfe004 	addi	r2,r2,-128
  801190:	1000061e 	bne	r2,zero,8011ac <logic+0x978>
  801194:	e0bffc17 	ldw	r2,-16(fp)
  801198:	10801a83 	ldbu	r2,106(r2)
  80119c:	10803fcc 	andi	r2,r2,255
  8011a0:	1080201c 	xori	r2,r2,128
  8011a4:	10bfe004 	addi	r2,r2,-128
  8011a8:	10000226 	beq	r2,zero,8011b4 <logic+0x980>
  8011ac:	00800044 	movi	r2,1
  8011b0:	00000106 	br	8011b8 <logic+0x984>
  8011b4:	0005883a 	mov	r2,zero
  8011b8:	1007883a 	mov	r3,r2
  8011bc:	e0bffc17 	ldw	r2,-16(fp)
  8011c0:	10c04685 	stb	r3,282(r2)
  d->_g12 = d->_g11 && !d->_cg12;
  8011c4:	e0bffc17 	ldw	r2,-16(fp)
  8011c8:	10802043 	ldbu	r2,129(r2)
  8011cc:	10803fcc 	andi	r2,r2,255
  8011d0:	1080201c 	xori	r2,r2,128
  8011d4:	10bfe004 	addi	r2,r2,-128
  8011d8:	10000826 	beq	r2,zero,8011fc <logic+0x9c8>
  8011dc:	e0bffc17 	ldw	r2,-16(fp)
  8011e0:	108046c3 	ldbu	r2,283(r2)
  8011e4:	10803fcc 	andi	r2,r2,255
  8011e8:	1080201c 	xori	r2,r2,128
  8011ec:	10bfe004 	addi	r2,r2,-128
  8011f0:	1000021e 	bne	r2,zero,8011fc <logic+0x9c8>
  8011f4:	00800044 	movi	r2,1
  8011f8:	00000106 	br	801200 <logic+0x9cc>
  8011fc:	0005883a 	mov	r2,zero
  801200:	1007883a 	mov	r3,r2
  801204:	e0bffc17 	ldw	r2,-16(fp)
  801208:	10c02085 	stb	r3,130(r2)
  d->_cg15 = d->_heart2_local__Atrig || d->_heart2_local__Atrig1;
  80120c:	e0bffc17 	ldw	r2,-16(fp)
  801210:	10801a43 	ldbu	r2,105(r2)
  801214:	10803fcc 	andi	r2,r2,255
  801218:	1080201c 	xori	r2,r2,128
  80121c:	10bfe004 	addi	r2,r2,-128
  801220:	1000061e 	bne	r2,zero,80123c <logic+0xa08>
  801224:	e0bffc17 	ldw	r2,-16(fp)
  801228:	10801a83 	ldbu	r2,106(r2)
  80122c:	10803fcc 	andi	r2,r2,255
  801230:	1080201c 	xori	r2,r2,128
  801234:	10bfe004 	addi	r2,r2,-128
  801238:	10000226 	beq	r2,zero,801244 <logic+0xa10>
  80123c:	00800044 	movi	r2,1
  801240:	00000106 	br	801248 <logic+0xa14>
  801244:	0005883a 	mov	r2,zero
  801248:	1007883a 	mov	r3,r2
  80124c:	e0bffc17 	ldw	r2,-16(fp)
  801250:	10c04705 	stb	r3,284(r2)
  d->_g14 = d->_g17 && d->_cg13 || d->_g12 && d->_cg15;
  801254:	e0bffc17 	ldw	r2,-16(fp)
  801258:	10802183 	ldbu	r2,134(r2)
  80125c:	10803fcc 	andi	r2,r2,255
  801260:	1080201c 	xori	r2,r2,128
  801264:	10bfe004 	addi	r2,r2,-128
  801268:	10000626 	beq	r2,zero,801284 <logic+0xa50>
  80126c:	e0bffc17 	ldw	r2,-16(fp)
  801270:	10804683 	ldbu	r2,282(r2)
  801274:	10803fcc 	andi	r2,r2,255
  801278:	1080201c 	xori	r2,r2,128
  80127c:	10bfe004 	addi	r2,r2,-128
  801280:	10000c1e 	bne	r2,zero,8012b4 <logic+0xa80>
  801284:	e0bffc17 	ldw	r2,-16(fp)
  801288:	10802083 	ldbu	r2,130(r2)
  80128c:	10803fcc 	andi	r2,r2,255
  801290:	1080201c 	xori	r2,r2,128
  801294:	10bfe004 	addi	r2,r2,-128
  801298:	10000826 	beq	r2,zero,8012bc <logic+0xa88>
  80129c:	e0bffc17 	ldw	r2,-16(fp)
  8012a0:	10804703 	ldbu	r2,284(r2)
  8012a4:	10803fcc 	andi	r2,r2,255
  8012a8:	1080201c 	xori	r2,r2,128
  8012ac:	10bfe004 	addi	r2,r2,-128
  8012b0:	10000226 	beq	r2,zero,8012bc <logic+0xa88>
  8012b4:	00800044 	movi	r2,1
  8012b8:	00000106 	br	8012c0 <logic+0xa8c>
  8012bc:	0005883a 	mov	r2,zero
  8012c0:	1007883a 	mov	r3,r2
  8012c4:	e0bffc17 	ldw	r2,-16(fp)
  8012c8:	10c02105 	stb	r3,132(r2)
  d->_g21 = !d->_g35;
  8012cc:	e0bffc17 	ldw	r2,-16(fp)
  8012d0:	10802483 	ldbu	r2,146(r2)
  8012d4:	10803fcc 	andi	r2,r2,255
  8012d8:	1080201c 	xori	r2,r2,128
  8012dc:	10bfe004 	addi	r2,r2,-128
  8012e0:	1005003a 	cmpeq	r2,r2,zero
  8012e4:	1007883a 	mov	r3,r2
  8012e8:	e0bffc17 	ldw	r2,-16(fp)
  8012ec:	10c02205 	stb	r3,136(r2)
  d->_g22 = d->_g22 || d->_g25;
  8012f0:	e0bffc17 	ldw	r2,-16(fp)
  8012f4:	10802243 	ldbu	r2,137(r2)
  8012f8:	10803fcc 	andi	r2,r2,255
  8012fc:	1080201c 	xori	r2,r2,128
  801300:	10bfe004 	addi	r2,r2,-128
  801304:	1000061e 	bne	r2,zero,801320 <logic+0xaec>
  801308:	e0bffc17 	ldw	r2,-16(fp)
  80130c:	10802303 	ldbu	r2,140(r2)
  801310:	10803fcc 	andi	r2,r2,255
  801314:	1080201c 	xori	r2,r2,128
  801318:	10bfe004 	addi	r2,r2,-128
  80131c:	10000226 	beq	r2,zero,801328 <logic+0xaf4>
  801320:	00800044 	movi	r2,1
  801324:	00000106 	br	80132c <logic+0xaf8>
  801328:	0005883a 	mov	r2,zero
  80132c:	1007883a 	mov	r3,r2
  801330:	e0bffc17 	ldw	r2,-16(fp)
  801334:	10c02245 	stb	r3,137(r2)
  d->_g25 = (d->_g31_e1 || d->_g7) && (d->_g14_e2 || d->_g14) && (d->_g21 || d->_g22) && (d->_g7 || d->_g14 || d->_g22);
  801338:	e0bffc17 	ldw	r2,-16(fp)
  80133c:	10805cc3 	ldbu	r2,371(r2)
  801340:	10803fcc 	andi	r2,r2,255
  801344:	1080201c 	xori	r2,r2,128
  801348:	10bfe004 	addi	r2,r2,-128
  80134c:	1000061e 	bne	r2,zero,801368 <logic+0xb34>
  801350:	e0bffc17 	ldw	r2,-16(fp)
  801354:	10801fc3 	ldbu	r2,127(r2)
  801358:	10803fcc 	andi	r2,r2,255
  80135c:	1080201c 	xori	r2,r2,128
  801360:	10bfe004 	addi	r2,r2,-128
  801364:	10002c26 	beq	r2,zero,801418 <logic+0xbe4>
  801368:	e0bffc17 	ldw	r2,-16(fp)
  80136c:	10805c43 	ldbu	r2,369(r2)
  801370:	10803fcc 	andi	r2,r2,255
  801374:	1080201c 	xori	r2,r2,128
  801378:	10bfe004 	addi	r2,r2,-128
  80137c:	1000061e 	bne	r2,zero,801398 <logic+0xb64>
  801380:	e0bffc17 	ldw	r2,-16(fp)
  801384:	10802103 	ldbu	r2,132(r2)
  801388:	10803fcc 	andi	r2,r2,255
  80138c:	1080201c 	xori	r2,r2,128
  801390:	10bfe004 	addi	r2,r2,-128
  801394:	10002026 	beq	r2,zero,801418 <logic+0xbe4>
  801398:	e0bffc17 	ldw	r2,-16(fp)
  80139c:	10802203 	ldbu	r2,136(r2)
  8013a0:	10803fcc 	andi	r2,r2,255
  8013a4:	1080201c 	xori	r2,r2,128
  8013a8:	10bfe004 	addi	r2,r2,-128
  8013ac:	1000061e 	bne	r2,zero,8013c8 <logic+0xb94>
  8013b0:	e0bffc17 	ldw	r2,-16(fp)
  8013b4:	10802243 	ldbu	r2,137(r2)
  8013b8:	10803fcc 	andi	r2,r2,255
  8013bc:	1080201c 	xori	r2,r2,128
  8013c0:	10bfe004 	addi	r2,r2,-128
  8013c4:	10001426 	beq	r2,zero,801418 <logic+0xbe4>
  8013c8:	e0bffc17 	ldw	r2,-16(fp)
  8013cc:	10801fc3 	ldbu	r2,127(r2)
  8013d0:	10803fcc 	andi	r2,r2,255
  8013d4:	1080201c 	xori	r2,r2,128
  8013d8:	10bfe004 	addi	r2,r2,-128
  8013dc:	10000c1e 	bne	r2,zero,801410 <logic+0xbdc>
  8013e0:	e0bffc17 	ldw	r2,-16(fp)
  8013e4:	10802103 	ldbu	r2,132(r2)
  8013e8:	10803fcc 	andi	r2,r2,255
  8013ec:	1080201c 	xori	r2,r2,128
  8013f0:	10bfe004 	addi	r2,r2,-128
  8013f4:	1000061e 	bne	r2,zero,801410 <logic+0xbdc>
  8013f8:	e0bffc17 	ldw	r2,-16(fp)
  8013fc:	10802243 	ldbu	r2,137(r2)
  801400:	10803fcc 	andi	r2,r2,255
  801404:	1080201c 	xori	r2,r2,128
  801408:	10bfe004 	addi	r2,r2,-128
  80140c:	10000226 	beq	r2,zero,801418 <logic+0xbe4>
  801410:	00800044 	movi	r2,1
  801414:	00000106 	br	80141c <logic+0xbe8>
  801418:	0005883a 	mov	r2,zero
  80141c:	1007883a 	mov	r3,r2
  801420:	e0bffc17 	ldw	r2,-16(fp)
  801424:	10c02305 	stb	r3,140(r2)
  d->_cg26 = d->_heart2_local__Atrig;
  801428:	e0bffc17 	ldw	r2,-16(fp)
  80142c:	10c01a43 	ldbu	r3,105(r2)
  801430:	e0bffc17 	ldw	r2,-16(fp)
  801434:	10c04805 	stb	r3,288(r2)
  d->_g23_e3 = d->_g25 && !d->_cg26;
  801438:	e0bffc17 	ldw	r2,-16(fp)
  80143c:	10802303 	ldbu	r2,140(r2)
  801440:	10803fcc 	andi	r2,r2,255
  801444:	1080201c 	xori	r2,r2,128
  801448:	10bfe004 	addi	r2,r2,-128
  80144c:	10000826 	beq	r2,zero,801470 <logic+0xc3c>
  801450:	e0bffc17 	ldw	r2,-16(fp)
  801454:	10804803 	ldbu	r2,288(r2)
  801458:	10803fcc 	andi	r2,r2,255
  80145c:	1080201c 	xori	r2,r2,128
  801460:	10bfe004 	addi	r2,r2,-128
  801464:	1000021e 	bne	r2,zero,801470 <logic+0xc3c>
  801468:	00800044 	movi	r2,1
  80146c:	00000106 	br	801474 <logic+0xc40>
  801470:	0005883a 	mov	r2,zero
  801474:	1007883a 	mov	r3,r2
  801478:	e0bffc17 	ldw	r2,-16(fp)
  80147c:	10c05c85 	stb	r3,370(r2)
  if (d->_g23_e3) {
  801480:	e0bffc17 	ldw	r2,-16(fp)
  801484:	10805c83 	ldbu	r2,370(r2)
  801488:	10803fcc 	andi	r2,r2,255
  80148c:	1080201c 	xori	r2,r2,128
  801490:	10bfe004 	addi	r2,r2,-128
  801494:	10000326 	beq	r2,zero,8014a4 <logic+0xc70>
    d->_region0_null_URI = 0;
  801498:	e0bffc17 	ldw	r2,-16(fp)
  80149c:	10000715 	stw	zero,28(r2)
  8014a0:	10000815 	stw	zero,32(r2)
  }
  d->_g23 = d->_GO || d->_g35_e2 || d->_g23_e3;
  8014a4:	e0bffc17 	ldw	r2,-16(fp)
  8014a8:	10804543 	ldbu	r2,277(r2)
  8014ac:	10803fcc 	andi	r2,r2,255
  8014b0:	1080201c 	xori	r2,r2,128
  8014b4:	10bfe004 	addi	r2,r2,-128
  8014b8:	10000c1e 	bne	r2,zero,8014ec <logic+0xcb8>
  8014bc:	e0bffc17 	ldw	r2,-16(fp)
  8014c0:	10805d03 	ldbu	r2,372(r2)
  8014c4:	10803fcc 	andi	r2,r2,255
  8014c8:	1080201c 	xori	r2,r2,128
  8014cc:	10bfe004 	addi	r2,r2,-128
  8014d0:	1000061e 	bne	r2,zero,8014ec <logic+0xcb8>
  8014d4:	e0bffc17 	ldw	r2,-16(fp)
  8014d8:	10805c83 	ldbu	r2,370(r2)
  8014dc:	10803fcc 	andi	r2,r2,255
  8014e0:	1080201c 	xori	r2,r2,128
  8014e4:	10bfe004 	addi	r2,r2,-128
  8014e8:	10000226 	beq	r2,zero,8014f4 <logic+0xcc0>
  8014ec:	00800044 	movi	r2,1
  8014f0:	00000106 	br	8014f8 <logic+0xcc4>
  8014f4:	0005883a 	mov	r2,zero
  8014f8:	1007883a 	mov	r3,r2
  8014fc:	e0bffc17 	ldw	r2,-16(fp)
  801500:	10c02285 	stb	r3,138(r2)
  if (d->_g23) {
  801504:	e0bffc17 	ldw	r2,-16(fp)
  801508:	10802283 	ldbu	r2,138(r2)
  80150c:	10803fcc 	andi	r2,r2,255
  801510:	1080201c 	xori	r2,r2,128
  801514:	10bfe004 	addi	r2,r2,-128
  801518:	10000426 	beq	r2,zero,80152c <logic+0xcf8>
    d->_heart2_local__Atrig = 0;
  80151c:	e0bffc17 	ldw	r2,-16(fp)
  801520:	10001a45 	stb	zero,105(r2)
    d->_heart2_local__Atrig1 = 0;
  801524:	e0bffc17 	ldw	r2,-16(fp)
  801528:	10001a85 	stb	zero,106(r2)
  }
  d->_cg4 = d->_heart2_local__Atrig || d->_heart2_local__Atrig1;
  80152c:	e0bffc17 	ldw	r2,-16(fp)
  801530:	10801a43 	ldbu	r2,105(r2)
  801534:	10803fcc 	andi	r2,r2,255
  801538:	1080201c 	xori	r2,r2,128
  80153c:	10bfe004 	addi	r2,r2,-128
  801540:	1000061e 	bne	r2,zero,80155c <logic+0xd28>
  801544:	e0bffc17 	ldw	r2,-16(fp)
  801548:	10801a83 	ldbu	r2,106(r2)
  80154c:	10803fcc 	andi	r2,r2,255
  801550:	1080201c 	xori	r2,r2,128
  801554:	10bfe004 	addi	r2,r2,-128
  801558:	10000226 	beq	r2,zero,801564 <logic+0xd30>
  80155c:	00800044 	movi	r2,1
  801560:	00000106 	br	801568 <logic+0xd34>
  801564:	0005883a 	mov	r2,zero
  801568:	1007883a 	mov	r3,r2
  80156c:	e0bffc17 	ldw	r2,-16(fp)
  801570:	10c04585 	stb	r3,278(r2)
  d->_g7_e1 = d->_g23 && !d->_cg4 || d->_g31 && !d->_cg6;
  801574:	e0bffc17 	ldw	r2,-16(fp)
  801578:	10802283 	ldbu	r2,138(r2)
  80157c:	10803fcc 	andi	r2,r2,255
  801580:	1080201c 	xori	r2,r2,128
  801584:	10bfe004 	addi	r2,r2,-128
  801588:	10000626 	beq	r2,zero,8015a4 <logic+0xd70>
  80158c:	e0bffc17 	ldw	r2,-16(fp)
  801590:	10804583 	ldbu	r2,278(r2)
  801594:	10803fcc 	andi	r2,r2,255
  801598:	1080201c 	xori	r2,r2,128
  80159c:	10bfe004 	addi	r2,r2,-128
  8015a0:	10000c26 	beq	r2,zero,8015d4 <logic+0xda0>
  8015a4:	e0bffc17 	ldw	r2,-16(fp)
  8015a8:	10802403 	ldbu	r2,144(r2)
  8015ac:	10803fcc 	andi	r2,r2,255
  8015b0:	1080201c 	xori	r2,r2,128
  8015b4:	10bfe004 	addi	r2,r2,-128
  8015b8:	10000826 	beq	r2,zero,8015dc <logic+0xda8>
  8015bc:	e0bffc17 	ldw	r2,-16(fp)
  8015c0:	108045c3 	ldbu	r2,279(r2)
  8015c4:	10803fcc 	andi	r2,r2,255
  8015c8:	1080201c 	xori	r2,r2,128
  8015cc:	10bfe004 	addi	r2,r2,-128
  8015d0:	1000021e 	bne	r2,zero,8015dc <logic+0xda8>
  8015d4:	00800044 	movi	r2,1
  8015d8:	00000106 	br	8015e0 <logic+0xdac>
  8015dc:	0005883a 	mov	r2,zero
  8015e0:	1007883a 	mov	r3,r2
  8015e4:	e0bffc17 	ldw	r2,-16(fp)
  8015e8:	10c05c05 	stb	r3,368(r2)
  d->_cg8 = d->_region0_null_URI < d->URI_time;
  8015ec:	e0bffc17 	ldw	r2,-16(fp)
  8015f0:	14000717 	ldw	r16,28(r2)
  8015f4:	14400817 	ldw	r17,32(r2)
  8015f8:	e0bffc17 	ldw	r2,-16(fp)
  8015fc:	10800217 	ldw	r2,8(r2)
  801600:	1009883a 	mov	r4,r2
  801604:	0808ce00 	call	808ce0 <__floatsidf>
  801608:	1009883a 	mov	r4,r2
  80160c:	180b883a 	mov	r5,r3
  801610:	04800044 	movi	r18,1
  801614:	200d883a 	mov	r6,r4
  801618:	280f883a 	mov	r7,r5
  80161c:	8009883a 	mov	r4,r16
  801620:	880b883a 	mov	r5,r17
  801624:	08082f00 	call	8082f0 <__ledf2>
  801628:	10000116 	blt	r2,zero,801630 <logic+0xdfc>
  80162c:	0025883a 	mov	r18,zero
  801630:	9007883a 	mov	r3,r18
  801634:	e0bffc17 	ldw	r2,-16(fp)
  801638:	10c04605 	stb	r3,280(r2)
  d->_g7 = d->_g23 && d->_cg8;
  80163c:	e0bffc17 	ldw	r2,-16(fp)
  801640:	10802283 	ldbu	r2,138(r2)
  801644:	10803fcc 	andi	r2,r2,255
  801648:	1080201c 	xori	r2,r2,128
  80164c:	10bfe004 	addi	r2,r2,-128
  801650:	10000826 	beq	r2,zero,801674 <logic+0xe40>
  801654:	e0bffc17 	ldw	r2,-16(fp)
  801658:	10804603 	ldbu	r2,280(r2)
  80165c:	10803fcc 	andi	r2,r2,255
  801660:	1080201c 	xori	r2,r2,128
  801664:	10bfe004 	addi	r2,r2,-128
  801668:	10000226 	beq	r2,zero,801674 <logic+0xe40>
  80166c:	00800044 	movi	r2,1
  801670:	00000106 	br	801678 <logic+0xe44>
  801674:	0005883a 	mov	r2,zero
  801678:	1007883a 	mov	r3,r2
  80167c:	e0bffc17 	ldw	r2,-16(fp)
  801680:	10c01fc5 	stb	r3,127(r2)
  if (d->_g7) {
  801684:	e0bffc17 	ldw	r2,-16(fp)
  801688:	10801fc3 	ldbu	r2,127(r2)
  80168c:	10803fcc 	andi	r2,r2,255
  801690:	1080201c 	xori	r2,r2,128
  801694:	10bfe004 	addi	r2,r2,-128
  801698:	10003426 	beq	r2,zero,80176c <logic+0xf38>
    d->sleepT = (d->sleepT < (d->URI_time - d->_region0_null_URI)) ? d->sleepT : (d->URI_time - d->_region0_null_URI);
  80169c:	e0bffc17 	ldw	r2,-16(fp)
  8016a0:	14001517 	ldw	r16,84(r2)
  8016a4:	14401617 	ldw	r17,88(r2)
  8016a8:	e0bffc17 	ldw	r2,-16(fp)
  8016ac:	10800217 	ldw	r2,8(r2)
  8016b0:	1009883a 	mov	r4,r2
  8016b4:	0808ce00 	call	808ce0 <__floatsidf>
  8016b8:	1011883a 	mov	r8,r2
  8016bc:	1813883a 	mov	r9,r3
  8016c0:	e13ffc17 	ldw	r4,-16(fp)
  8016c4:	20800717 	ldw	r2,28(r4)
  8016c8:	20c00817 	ldw	r3,32(r4)
  8016cc:	100d883a 	mov	r6,r2
  8016d0:	180f883a 	mov	r7,r3
  8016d4:	4009883a 	mov	r4,r8
  8016d8:	480b883a 	mov	r5,r9
  8016dc:	08083e40 	call	8083e4 <__subdf3>
  8016e0:	1009883a 	mov	r4,r2
  8016e4:	180b883a 	mov	r5,r3
  8016e8:	2005883a 	mov	r2,r4
  8016ec:	2807883a 	mov	r3,r5
  8016f0:	100d883a 	mov	r6,r2
  8016f4:	180f883a 	mov	r7,r3
  8016f8:	8009883a 	mov	r4,r16
  8016fc:	880b883a 	mov	r5,r17
  801700:	08082f00 	call	8082f0 <__ledf2>
  801704:	1000040e 	bge	r2,zero,801718 <logic+0xee4>
  801708:	e13ffc17 	ldw	r4,-16(fp)
  80170c:	20801517 	ldw	r2,84(r4)
  801710:	20c01617 	ldw	r3,88(r4)
  801714:	00001206 	br	801760 <logic+0xf2c>
  801718:	e0bffc17 	ldw	r2,-16(fp)
  80171c:	10800217 	ldw	r2,8(r2)
  801720:	1009883a 	mov	r4,r2
  801724:	0808ce00 	call	808ce0 <__floatsidf>
  801728:	1011883a 	mov	r8,r2
  80172c:	1813883a 	mov	r9,r3
  801730:	e13ffc17 	ldw	r4,-16(fp)
  801734:	20800717 	ldw	r2,28(r4)
  801738:	20c00817 	ldw	r3,32(r4)
  80173c:	100d883a 	mov	r6,r2
  801740:	180f883a 	mov	r7,r3
  801744:	4009883a 	mov	r4,r8
  801748:	480b883a 	mov	r5,r9
  80174c:	08083e40 	call	8083e4 <__subdf3>
  801750:	1009883a 	mov	r4,r2
  801754:	180b883a 	mov	r5,r3
  801758:	2005883a 	mov	r2,r4
  80175c:	2807883a 	mov	r3,r5
  801760:	e13ffc17 	ldw	r4,-16(fp)
  801764:	20801515 	stw	r2,84(r4)
  801768:	20c01615 	stw	r3,88(r4)
  }
  d->_cg9 = d->_heart2_local__Atrig || d->_heart2_local__Atrig1;
  80176c:	e0bffc17 	ldw	r2,-16(fp)
  801770:	10801a43 	ldbu	r2,105(r2)
  801774:	10803fcc 	andi	r2,r2,255
  801778:	1080201c 	xori	r2,r2,128
  80177c:	10bfe004 	addi	r2,r2,-128
  801780:	1000061e 	bne	r2,zero,80179c <logic+0xf68>
  801784:	e0bffc17 	ldw	r2,-16(fp)
  801788:	10801a83 	ldbu	r2,106(r2)
  80178c:	10803fcc 	andi	r2,r2,255
  801790:	1080201c 	xori	r2,r2,128
  801794:	10bfe004 	addi	r2,r2,-128
  801798:	10000226 	beq	r2,zero,8017a4 <logic+0xf70>
  80179c:	00800044 	movi	r2,1
  8017a0:	00000106 	br	8017a8 <logic+0xf74>
  8017a4:	0005883a 	mov	r2,zero
  8017a8:	1007883a 	mov	r3,r2
  8017ac:	e0bffc17 	ldw	r2,-16(fp)
  8017b0:	10c04645 	stb	r3,281(r2)
  d->_g14 = d->_g7 && !d->_cg9 || d->_g17 && !d->_cg13;
  8017b4:	e0bffc17 	ldw	r2,-16(fp)
  8017b8:	10801fc3 	ldbu	r2,127(r2)
  8017bc:	10803fcc 	andi	r2,r2,255
  8017c0:	1080201c 	xori	r2,r2,128
  8017c4:	10bfe004 	addi	r2,r2,-128
  8017c8:	10000626 	beq	r2,zero,8017e4 <logic+0xfb0>
  8017cc:	e0bffc17 	ldw	r2,-16(fp)
  8017d0:	10804643 	ldbu	r2,281(r2)
  8017d4:	10803fcc 	andi	r2,r2,255
  8017d8:	1080201c 	xori	r2,r2,128
  8017dc:	10bfe004 	addi	r2,r2,-128
  8017e0:	10000c26 	beq	r2,zero,801814 <logic+0xfe0>
  8017e4:	e0bffc17 	ldw	r2,-16(fp)
  8017e8:	10802183 	ldbu	r2,134(r2)
  8017ec:	10803fcc 	andi	r2,r2,255
  8017f0:	1080201c 	xori	r2,r2,128
  8017f4:	10bfe004 	addi	r2,r2,-128
  8017f8:	10000826 	beq	r2,zero,80181c <logic+0xfe8>
  8017fc:	e0bffc17 	ldw	r2,-16(fp)
  801800:	10804683 	ldbu	r2,282(r2)
  801804:	10803fcc 	andi	r2,r2,255
  801808:	1080201c 	xori	r2,r2,128
  80180c:	10bfe004 	addi	r2,r2,-128
  801810:	1000021e 	bne	r2,zero,80181c <logic+0xfe8>
  801814:	00800044 	movi	r2,1
  801818:	00000106 	br	801820 <logic+0xfec>
  80181c:	0005883a 	mov	r2,zero
  801820:	1007883a 	mov	r3,r2
  801824:	e0bffc17 	ldw	r2,-16(fp)
  801828:	10c02105 	stb	r3,132(r2)
  d->_g14_e2 = d->_g23 && !d->_cg8;
  80182c:	e0bffc17 	ldw	r2,-16(fp)
  801830:	10802283 	ldbu	r2,138(r2)
  801834:	10803fcc 	andi	r2,r2,255
  801838:	1080201c 	xori	r2,r2,128
  80183c:	10bfe004 	addi	r2,r2,-128
  801840:	10000826 	beq	r2,zero,801864 <logic+0x1030>
  801844:	e0bffc17 	ldw	r2,-16(fp)
  801848:	10804603 	ldbu	r2,280(r2)
  80184c:	10803fcc 	andi	r2,r2,255
  801850:	1080201c 	xori	r2,r2,128
  801854:	10bfe004 	addi	r2,r2,-128
  801858:	1000021e 	bne	r2,zero,801864 <logic+0x1030>
  80185c:	00800044 	movi	r2,1
  801860:	00000106 	br	801868 <logic+0x1034>
  801864:	0005883a 	mov	r2,zero
  801868:	1007883a 	mov	r3,r2
  80186c:	e0bffc17 	ldw	r2,-16(fp)
  801870:	10c05c45 	stb	r3,369(r2)
  d->_cg18 = d->_heart2_local__Atrig || d->_heart2_local__Atrig1;
  801874:	e0bffc17 	ldw	r2,-16(fp)
  801878:	10801a43 	ldbu	r2,105(r2)
  80187c:	10803fcc 	andi	r2,r2,255
  801880:	1080201c 	xori	r2,r2,128
  801884:	10bfe004 	addi	r2,r2,-128
  801888:	1000061e 	bne	r2,zero,8018a4 <logic+0x1070>
  80188c:	e0bffc17 	ldw	r2,-16(fp)
  801890:	10801a83 	ldbu	r2,106(r2)
  801894:	10803fcc 	andi	r2,r2,255
  801898:	1080201c 	xori	r2,r2,128
  80189c:	10bfe004 	addi	r2,r2,-128
  8018a0:	10000226 	beq	r2,zero,8018ac <logic+0x1078>
  8018a4:	00800044 	movi	r2,1
  8018a8:	00000106 	br	8018b0 <logic+0x107c>
  8018ac:	0005883a 	mov	r2,zero
  8018b0:	1007883a 	mov	r3,r2
  8018b4:	e0bffc17 	ldw	r2,-16(fp)
  8018b8:	10c04745 	stb	r3,285(r2)
  d->_g37 = d->_g12 && !d->_cg15 || d->_g14_e2 && !d->_cg18;
  8018bc:	e0bffc17 	ldw	r2,-16(fp)
  8018c0:	10802083 	ldbu	r2,130(r2)
  8018c4:	10803fcc 	andi	r2,r2,255
  8018c8:	1080201c 	xori	r2,r2,128
  8018cc:	10bfe004 	addi	r2,r2,-128
  8018d0:	10000626 	beq	r2,zero,8018ec <logic+0x10b8>
  8018d4:	e0bffc17 	ldw	r2,-16(fp)
  8018d8:	10804703 	ldbu	r2,284(r2)
  8018dc:	10803fcc 	andi	r2,r2,255
  8018e0:	1080201c 	xori	r2,r2,128
  8018e4:	10bfe004 	addi	r2,r2,-128
  8018e8:	10000c26 	beq	r2,zero,80191c <logic+0x10e8>
  8018ec:	e0bffc17 	ldw	r2,-16(fp)
  8018f0:	10805c43 	ldbu	r2,369(r2)
  8018f4:	10803fcc 	andi	r2,r2,255
  8018f8:	1080201c 	xori	r2,r2,128
  8018fc:	10bfe004 	addi	r2,r2,-128
  801900:	10000826 	beq	r2,zero,801924 <logic+0x10f0>
  801904:	e0bffc17 	ldw	r2,-16(fp)
  801908:	10804743 	ldbu	r2,285(r2)
  80190c:	10803fcc 	andi	r2,r2,255
  801910:	1080201c 	xori	r2,r2,128
  801914:	10bfe004 	addi	r2,r2,-128
  801918:	1000021e 	bne	r2,zero,801924 <logic+0x10f0>
  80191c:	00800044 	movi	r2,1
  801920:	00000106 	br	801928 <logic+0x10f4>
  801924:	0005883a 	mov	r2,zero
  801928:	1007883a 	mov	r3,r2
  80192c:	e0bffc17 	ldw	r2,-16(fp)
  801930:	10c02505 	stb	r3,148(r2)
  d->_g36 = d->_g23 || d->_g24 && !d->_cg24;
  801934:	e0bffc17 	ldw	r2,-16(fp)
  801938:	10802283 	ldbu	r2,138(r2)
  80193c:	10803fcc 	andi	r2,r2,255
  801940:	1080201c 	xori	r2,r2,128
  801944:	10bfe004 	addi	r2,r2,-128
  801948:	10000c1e 	bne	r2,zero,80197c <logic+0x1148>
  80194c:	e0bffc17 	ldw	r2,-16(fp)
  801950:	108022c3 	ldbu	r2,139(r2)
  801954:	10803fcc 	andi	r2,r2,255
  801958:	1080201c 	xori	r2,r2,128
  80195c:	10bfe004 	addi	r2,r2,-128
  801960:	10000826 	beq	r2,zero,801984 <logic+0x1150>
  801964:	e0bffc17 	ldw	r2,-16(fp)
  801968:	10804783 	ldbu	r2,286(r2)
  80196c:	10803fcc 	andi	r2,r2,255
  801970:	1080201c 	xori	r2,r2,128
  801974:	10bfe004 	addi	r2,r2,-128
  801978:	1000021e 	bne	r2,zero,801984 <logic+0x1150>
  80197c:	00800044 	movi	r2,1
  801980:	00000106 	br	801988 <logic+0x1154>
  801984:	0005883a 	mov	r2,zero
  801988:	1007883a 	mov	r3,r2
  80198c:	e0bffc17 	ldw	r2,-16(fp)
  801990:	10c024c5 	stb	r3,147(r2)
  d->_g6 = d->_g25 && d->_cg26;
  801994:	e0bffc17 	ldw	r2,-16(fp)
  801998:	10802303 	ldbu	r2,140(r2)
  80199c:	10803fcc 	andi	r2,r2,255
  8019a0:	1080201c 	xori	r2,r2,128
  8019a4:	10bfe004 	addi	r2,r2,-128
  8019a8:	10000826 	beq	r2,zero,8019cc <logic+0x1198>
  8019ac:	e0bffc17 	ldw	r2,-16(fp)
  8019b0:	10804803 	ldbu	r2,288(r2)
  8019b4:	10803fcc 	andi	r2,r2,255
  8019b8:	1080201c 	xori	r2,r2,128
  8019bc:	10bfe004 	addi	r2,r2,-128
  8019c0:	10000226 	beq	r2,zero,8019cc <logic+0x1198>
  8019c4:	00800044 	movi	r2,1
  8019c8:	00000106 	br	8019d0 <logic+0x119c>
  8019cc:	0005883a 	mov	r2,zero
  8019d0:	1007883a 	mov	r3,r2
  8019d4:	e0bffc17 	ldw	r2,-16(fp)
  8019d8:	10c01f85 	stb	r3,126(r2)
  if (d->_g6) {
  8019dc:	e0bffc17 	ldw	r2,-16(fp)
  8019e0:	10801f83 	ldbu	r2,126(r2)
  8019e4:	10803fcc 	andi	r2,r2,255
  8019e8:	1080201c 	xori	r2,r2,128
  8019ec:	10bfe004 	addi	r2,r2,-128
  8019f0:	10000526 	beq	r2,zero,801a08 <logic+0x11d4>
    d->ready = 1;
  8019f4:	e0bffc17 	ldw	r2,-16(fp)
  8019f8:	00c00044 	movi	r3,1
  8019fc:	10c00605 	stb	r3,24(r2)
    d->_heart2_local__Atrig2 = 0;
  801a00:	e0bffc17 	ldw	r2,-16(fp)
  801a04:	10001ac5 	stb	zero,107(r2)
  }
  d->_cg28 = d->_heart2_local__Atrig2;
  801a08:	e0bffc17 	ldw	r2,-16(fp)
  801a0c:	10c01ac3 	ldbu	r3,107(r2)
  801a10:	e0bffc17 	ldw	r2,-16(fp)
  801a14:	10c04845 	stb	r3,289(r2)
  d->_g9 = d->_g6 && !d->_cg28 || d->_g30 && !d->_cg30;
  801a18:	e0bffc17 	ldw	r2,-16(fp)
  801a1c:	10801f83 	ldbu	r2,126(r2)
  801a20:	10803fcc 	andi	r2,r2,255
  801a24:	1080201c 	xori	r2,r2,128
  801a28:	10bfe004 	addi	r2,r2,-128
  801a2c:	10000626 	beq	r2,zero,801a48 <logic+0x1214>
  801a30:	e0bffc17 	ldw	r2,-16(fp)
  801a34:	10804843 	ldbu	r2,289(r2)
  801a38:	10803fcc 	andi	r2,r2,255
  801a3c:	1080201c 	xori	r2,r2,128
  801a40:	10bfe004 	addi	r2,r2,-128
  801a44:	10000c26 	beq	r2,zero,801a78 <logic+0x1244>
  801a48:	e0bffc17 	ldw	r2,-16(fp)
  801a4c:	108023c3 	ldbu	r2,143(r2)
  801a50:	10803fcc 	andi	r2,r2,255
  801a54:	1080201c 	xori	r2,r2,128
  801a58:	10bfe004 	addi	r2,r2,-128
  801a5c:	10000826 	beq	r2,zero,801a80 <logic+0x124c>
  801a60:	e0bffc17 	ldw	r2,-16(fp)
  801a64:	10804883 	ldbu	r2,290(r2)
  801a68:	10803fcc 	andi	r2,r2,255
  801a6c:	1080201c 	xori	r2,r2,128
  801a70:	10bfe004 	addi	r2,r2,-128
  801a74:	1000021e 	bne	r2,zero,801a80 <logic+0x124c>
  801a78:	00800044 	movi	r2,1
  801a7c:	00000106 	br	801a84 <logic+0x1250>
  801a80:	0005883a 	mov	r2,zero
  801a84:	1007883a 	mov	r3,r2
  801a88:	e0bffc17 	ldw	r2,-16(fp)
  801a8c:	10c02005 	stb	r3,128(r2)
  d->_g13 = d->_g6 || d->_g34 && !d->_cg34;
  801a90:	e0bffc17 	ldw	r2,-16(fp)
  801a94:	10801f83 	ldbu	r2,126(r2)
  801a98:	10803fcc 	andi	r2,r2,255
  801a9c:	1080201c 	xori	r2,r2,128
  801aa0:	10bfe004 	addi	r2,r2,-128
  801aa4:	10000c1e 	bne	r2,zero,801ad8 <logic+0x12a4>
  801aa8:	e0bffc17 	ldw	r2,-16(fp)
  801aac:	10802443 	ldbu	r2,145(r2)
  801ab0:	10803fcc 	andi	r2,r2,255
  801ab4:	1080201c 	xori	r2,r2,128
  801ab8:	10bfe004 	addi	r2,r2,-128
  801abc:	10000826 	beq	r2,zero,801ae0 <logic+0x12ac>
  801ac0:	e0bffc17 	ldw	r2,-16(fp)
  801ac4:	108048c3 	ldbu	r2,291(r2)
  801ac8:	10803fcc 	andi	r2,r2,255
  801acc:	1080201c 	xori	r2,r2,128
  801ad0:	10bfe004 	addi	r2,r2,-128
  801ad4:	1000021e 	bne	r2,zero,801ae0 <logic+0x12ac>
  801ad8:	00800044 	movi	r2,1
  801adc:	00000106 	br	801ae4 <logic+0x12b0>
  801ae0:	0005883a 	mov	r2,zero
  801ae4:	1007883a 	mov	r3,r2
  801ae8:	e0bffc17 	ldw	r2,-16(fp)
  801aec:	10c020c5 	stb	r3,131(r2)
  d->_g15 = d->_pg46;
  801af0:	e0bffc17 	ldw	r2,-16(fp)
  801af4:	10c06583 	ldbu	r3,406(r2)
  801af8:	e0bffc17 	ldw	r2,-16(fp)
  801afc:	10c02145 	stb	r3,133(r2)
  if (d->_g15) {
  801b00:	e0bffc17 	ldw	r2,-16(fp)
  801b04:	10802143 	ldbu	r2,133(r2)
  801b08:	10803fcc 	andi	r2,r2,255
  801b0c:	1080201c 	xori	r2,r2,128
  801b10:	10bfe004 	addi	r2,r2,-128
  801b14:	10001226 	beq	r2,zero,801b60 <logic+0x132c>
    d->_region1_null_LRI += d->deltaT;
  801b18:	e13ffc17 	ldw	r4,-16(fp)
  801b1c:	20800917 	ldw	r2,36(r4)
  801b20:	20c00a17 	ldw	r3,40(r4)
  801b24:	e1bffc17 	ldw	r6,-16(fp)
  801b28:	31001317 	ldw	r4,76(r6)
  801b2c:	31401417 	ldw	r5,80(r6)
  801b30:	200d883a 	mov	r6,r4
  801b34:	280f883a 	mov	r7,r5
  801b38:	1009883a 	mov	r4,r2
  801b3c:	180b883a 	mov	r5,r3
  801b40:	08079680 	call	807968 <__adddf3>
  801b44:	1009883a 	mov	r4,r2
  801b48:	180b883a 	mov	r5,r3
  801b4c:	2005883a 	mov	r2,r4
  801b50:	2807883a 	mov	r3,r5
  801b54:	e13ffc17 	ldw	r4,-16(fp)
  801b58:	20800915 	stw	r2,36(r4)
  801b5c:	20c00a15 	stw	r3,40(r4)
  }
  d->_g18 = !d->_g15;
  801b60:	e0bffc17 	ldw	r2,-16(fp)
  801b64:	10802143 	ldbu	r2,133(r2)
  801b68:	10803fcc 	andi	r2,r2,255
  801b6c:	1080201c 	xori	r2,r2,128
  801b70:	10bfe004 	addi	r2,r2,-128
  801b74:	1005003a 	cmpeq	r2,r2,zero
  801b78:	1007883a 	mov	r3,r2
  801b7c:	e0bffc17 	ldw	r2,-16(fp)
  801b80:	10c021c5 	stb	r3,135(r2)
  d->_g24 = d->_pg50;
  801b84:	e0bffc17 	ldw	r2,-16(fp)
  801b88:	10c065c3 	ldbu	r3,407(r2)
  801b8c:	e0bffc17 	ldw	r2,-16(fp)
  801b90:	10c022c5 	stb	r3,139(r2)
  d->_cg71 = d->v;
  801b94:	e0bffc17 	ldw	r2,-16(fp)
  801b98:	10c018c3 	ldbu	r3,99(r2)
  801b9c:	e0bffc17 	ldw	r2,-16(fp)
  801ba0:	10c04c45 	stb	r3,305(r2)
  d->_g3 = d->_g24 && d->_cg71;
  801ba4:	e0bffc17 	ldw	r2,-16(fp)
  801ba8:	108022c3 	ldbu	r2,139(r2)
  801bac:	10803fcc 	andi	r2,r2,255
  801bb0:	1080201c 	xori	r2,r2,128
  801bb4:	10bfe004 	addi	r2,r2,-128
  801bb8:	10000826 	beq	r2,zero,801bdc <logic+0x13a8>
  801bbc:	e0bffc17 	ldw	r2,-16(fp)
  801bc0:	10804c43 	ldbu	r2,305(r2)
  801bc4:	10803fcc 	andi	r2,r2,255
  801bc8:	1080201c 	xori	r2,r2,128
  801bcc:	10bfe004 	addi	r2,r2,-128
  801bd0:	10000226 	beq	r2,zero,801bdc <logic+0x13a8>
  801bd4:	00800044 	movi	r2,1
  801bd8:	00000106 	br	801be0 <logic+0x13ac>
  801bdc:	0005883a 	mov	r2,zero
  801be0:	1007883a 	mov	r3,r2
  801be4:	e0bffc17 	ldw	r2,-16(fp)
  801be8:	10c01f45 	stb	r3,125(r2)
  if (d->_g3) {
  801bec:	e0bffc17 	ldw	r2,-16(fp)
  801bf0:	10801f43 	ldbu	r2,125(r2)
  801bf4:	10803fcc 	andi	r2,r2,255
  801bf8:	1080201c 	xori	r2,r2,128
  801bfc:	10bfe004 	addi	r2,r2,-128
  801c00:	10000326 	beq	r2,zero,801c10 <logic+0x13dc>
    d->_heart2_local__Atrig5 = 1;
  801c04:	e0bffc17 	ldw	r2,-16(fp)
  801c08:	00c00044 	movi	r3,1
  801c0c:	10c01b85 	stb	r3,110(r2)
  }
  d->_cg67 = d->_heart2_local__Atrig5;
  801c10:	e0bffc17 	ldw	r2,-16(fp)
  801c14:	10c01b83 	ldbu	r3,110(r2)
  801c18:	e0bffc17 	ldw	r2,-16(fp)
  801c1c:	10c04c05 	stb	r3,304(r2)
  d->_g26 = d->_g15 && d->_cg67;
  801c20:	e0bffc17 	ldw	r2,-16(fp)
  801c24:	10802143 	ldbu	r2,133(r2)
  801c28:	10803fcc 	andi	r2,r2,255
  801c2c:	1080201c 	xori	r2,r2,128
  801c30:	10bfe004 	addi	r2,r2,-128
  801c34:	10000826 	beq	r2,zero,801c58 <logic+0x1424>
  801c38:	e0bffc17 	ldw	r2,-16(fp)
  801c3c:	10804c03 	ldbu	r2,304(r2)
  801c40:	10803fcc 	andi	r2,r2,255
  801c44:	1080201c 	xori	r2,r2,128
  801c48:	10bfe004 	addi	r2,r2,-128
  801c4c:	10000226 	beq	r2,zero,801c58 <logic+0x1424>
  801c50:	00800044 	movi	r2,1
  801c54:	00000106 	br	801c5c <logic+0x1428>
  801c58:	0005883a 	mov	r2,zero
  801c5c:	1007883a 	mov	r3,r2
  801c60:	e0bffc17 	ldw	r2,-16(fp)
  801c64:	10c02345 	stb	r3,141(r2)
  d->_g30 = !d->_g24;
  801c68:	e0bffc17 	ldw	r2,-16(fp)
  801c6c:	108022c3 	ldbu	r2,139(r2)
  801c70:	10803fcc 	andi	r2,r2,255
  801c74:	1080201c 	xori	r2,r2,128
  801c78:	10bfe004 	addi	r2,r2,-128
  801c7c:	1005003a 	cmpeq	r2,r2,zero
  801c80:	1007883a 	mov	r3,r2
  801c84:	e0bffc17 	ldw	r2,-16(fp)
  801c88:	10c023c5 	stb	r3,143(r2)
  d->_g27 = (d->_g18 || d->_g26) && (d->_g30 || d->_g3) && (d->_g26 || d->_g3);
  801c8c:	e0bffc17 	ldw	r2,-16(fp)
  801c90:	108021c3 	ldbu	r2,135(r2)
  801c94:	10803fcc 	andi	r2,r2,255
  801c98:	1080201c 	xori	r2,r2,128
  801c9c:	10bfe004 	addi	r2,r2,-128
  801ca0:	1000061e 	bne	r2,zero,801cbc <logic+0x1488>
  801ca4:	e0bffc17 	ldw	r2,-16(fp)
  801ca8:	10802343 	ldbu	r2,141(r2)
  801cac:	10803fcc 	andi	r2,r2,255
  801cb0:	1080201c 	xori	r2,r2,128
  801cb4:	10bfe004 	addi	r2,r2,-128
  801cb8:	10001a26 	beq	r2,zero,801d24 <logic+0x14f0>
  801cbc:	e0bffc17 	ldw	r2,-16(fp)
  801cc0:	108023c3 	ldbu	r2,143(r2)
  801cc4:	10803fcc 	andi	r2,r2,255
  801cc8:	1080201c 	xori	r2,r2,128
  801ccc:	10bfe004 	addi	r2,r2,-128
  801cd0:	1000061e 	bne	r2,zero,801cec <logic+0x14b8>
  801cd4:	e0bffc17 	ldw	r2,-16(fp)
  801cd8:	10801f43 	ldbu	r2,125(r2)
  801cdc:	10803fcc 	andi	r2,r2,255
  801ce0:	1080201c 	xori	r2,r2,128
  801ce4:	10bfe004 	addi	r2,r2,-128
  801ce8:	10000e26 	beq	r2,zero,801d24 <logic+0x14f0>
  801cec:	e0bffc17 	ldw	r2,-16(fp)
  801cf0:	10802343 	ldbu	r2,141(r2)
  801cf4:	10803fcc 	andi	r2,r2,255
  801cf8:	1080201c 	xori	r2,r2,128
  801cfc:	10bfe004 	addi	r2,r2,-128
  801d00:	1000061e 	bne	r2,zero,801d1c <logic+0x14e8>
  801d04:	e0bffc17 	ldw	r2,-16(fp)
  801d08:	10801f43 	ldbu	r2,125(r2)
  801d0c:	10803fcc 	andi	r2,r2,255
  801d10:	1080201c 	xori	r2,r2,128
  801d14:	10bfe004 	addi	r2,r2,-128
  801d18:	10000226 	beq	r2,zero,801d24 <logic+0x14f0>
  801d1c:	00800044 	movi	r2,1
  801d20:	00000106 	br	801d28 <logic+0x14f4>
  801d24:	0005883a 	mov	r2,zero
  801d28:	1007883a 	mov	r3,r2
  801d2c:	e0bffc17 	ldw	r2,-16(fp)
  801d30:	10c02385 	stb	r3,142(r2)
  if (d->_g27) {
  801d34:	e0bffc17 	ldw	r2,-16(fp)
  801d38:	10802383 	ldbu	r2,142(r2)
  801d3c:	10803fcc 	andi	r2,r2,255
  801d40:	1080201c 	xori	r2,r2,128
  801d44:	10bfe004 	addi	r2,r2,-128
  801d48:	10000326 	beq	r2,zero,801d58 <logic+0x1524>
    d->_region1_null_LRI = 0;
  801d4c:	e0bffc17 	ldw	r2,-16(fp)
  801d50:	10000915 	stw	zero,36(r2)
  801d54:	10000a15 	stw	zero,40(r2)
  }
  d->_g34 = d->_pg44_e1;
  801d58:	e0bffc17 	ldw	r2,-16(fp)
  801d5c:	10c06603 	ldbu	r3,408(r2)
  801d60:	e0bffc17 	ldw	r2,-16(fp)
  801d64:	10c02445 	stb	r3,145(r2)
  if (d->_g34) {
  801d68:	e0bffc17 	ldw	r2,-16(fp)
  801d6c:	10802443 	ldbu	r2,145(r2)
  801d70:	10803fcc 	andi	r2,r2,255
  801d74:	1080201c 	xori	r2,r2,128
  801d78:	10bfe004 	addi	r2,r2,-128
  801d7c:	10001226 	beq	r2,zero,801dc8 <logic+0x1594>
    d->_region1_null_LRI += d->deltaT;
  801d80:	e13ffc17 	ldw	r4,-16(fp)
  801d84:	20800917 	ldw	r2,36(r4)
  801d88:	20c00a17 	ldw	r3,40(r4)
  801d8c:	e1bffc17 	ldw	r6,-16(fp)
  801d90:	31001317 	ldw	r4,76(r6)
  801d94:	31401417 	ldw	r5,80(r6)
  801d98:	200d883a 	mov	r6,r4
  801d9c:	280f883a 	mov	r7,r5
  801da0:	1009883a 	mov	r4,r2
  801da4:	180b883a 	mov	r5,r3
  801da8:	08079680 	call	807968 <__adddf3>
  801dac:	1009883a 	mov	r4,r2
  801db0:	180b883a 	mov	r5,r3
  801db4:	2005883a 	mov	r2,r4
  801db8:	2807883a 	mov	r3,r5
  801dbc:	e13ffc17 	ldw	r4,-16(fp)
  801dc0:	20800915 	stw	r2,36(r4)
  801dc4:	20c00a15 	stw	r3,40(r4)
  }
  d->_g72_e2 = !d->_g34;
  801dc8:	e0bffc17 	ldw	r2,-16(fp)
  801dcc:	10802443 	ldbu	r2,145(r2)
  801dd0:	10803fcc 	andi	r2,r2,255
  801dd4:	1080201c 	xori	r2,r2,128
  801dd8:	10bfe004 	addi	r2,r2,-128
  801ddc:	1005003a 	cmpeq	r2,r2,zero
  801de0:	1007883a 	mov	r3,r2
  801de4:	e0bffc17 	ldw	r2,-16(fp)
  801de8:	10c05e45 	stb	r3,377(r2)
  d->_g68_e1 = d->_pg74;
  801dec:	e0bffc17 	ldw	r2,-16(fp)
  801df0:	10c06643 	ldbu	r3,409(r2)
  801df4:	e0bffc17 	ldw	r2,-16(fp)
  801df8:	10c05e05 	stb	r3,376(r2)
  d->_cg58 = d->_region1_null_LRI >= d->LRI_time;
  801dfc:	e0bffc17 	ldw	r2,-16(fp)
  801e00:	14000917 	ldw	r16,36(r2)
  801e04:	14400a17 	ldw	r17,40(r2)
  801e08:	e0bffc17 	ldw	r2,-16(fp)
  801e0c:	10800317 	ldw	r2,12(r2)
  801e10:	1009883a 	mov	r4,r2
  801e14:	0808ce00 	call	808ce0 <__floatsidf>
  801e18:	1009883a 	mov	r4,r2
  801e1c:	180b883a 	mov	r5,r3
  801e20:	04800044 	movi	r18,1
  801e24:	200d883a 	mov	r6,r4
  801e28:	280f883a 	mov	r7,r5
  801e2c:	8009883a 	mov	r4,r16
  801e30:	880b883a 	mov	r5,r17
  801e34:	08082140 	call	808214 <__gedf2>
  801e38:	1000010e 	bge	r2,zero,801e40 <logic+0x160c>
  801e3c:	0025883a 	mov	r18,zero
  801e40:	9007883a 	mov	r3,r18
  801e44:	e0bffc17 	ldw	r2,-16(fp)
  801e48:	10c04b45 	stb	r3,301(r2)
  d->_g68 = d->_g68_e1 && d->_cg58;
  801e4c:	e0bffc17 	ldw	r2,-16(fp)
  801e50:	10805e03 	ldbu	r2,376(r2)
  801e54:	10803fcc 	andi	r2,r2,255
  801e58:	1080201c 	xori	r2,r2,128
  801e5c:	10bfe004 	addi	r2,r2,-128
  801e60:	10000826 	beq	r2,zero,801e84 <logic+0x1650>
  801e64:	e0bffc17 	ldw	r2,-16(fp)
  801e68:	10804b43 	ldbu	r2,301(r2)
  801e6c:	10803fcc 	andi	r2,r2,255
  801e70:	1080201c 	xori	r2,r2,128
  801e74:	10bfe004 	addi	r2,r2,-128
  801e78:	10000226 	beq	r2,zero,801e84 <logic+0x1650>
  801e7c:	00800044 	movi	r2,1
  801e80:	00000106 	br	801e88 <logic+0x1654>
  801e84:	0005883a 	mov	r2,zero
  801e88:	1007883a 	mov	r3,r2
  801e8c:	e0bffc17 	ldw	r2,-16(fp)
  801e90:	10c02a05 	stb	r3,168(r2)
  if (d->_g68) {
  801e94:	e0bffc17 	ldw	r2,-16(fp)
  801e98:	10802a03 	ldbu	r2,168(r2)
  801e9c:	10803fcc 	andi	r2,r2,255
  801ea0:	1080201c 	xori	r2,r2,128
  801ea4:	10bfe004 	addi	r2,r2,-128
  801ea8:	10000326 	beq	r2,zero,801eb8 <logic+0x1684>
    d->_heart2_local__Atrig3 = 1;
  801eac:	e0bffc17 	ldw	r2,-16(fp)
  801eb0:	00c00044 	movi	r3,1
  801eb4:	10c01b05 	stb	r3,108(r2)
  }
  d->_g72 = d->_g68_e1 && !d->_cg58;
  801eb8:	e0bffc17 	ldw	r2,-16(fp)
  801ebc:	10805e03 	ldbu	r2,376(r2)
  801ec0:	10803fcc 	andi	r2,r2,255
  801ec4:	1080201c 	xori	r2,r2,128
  801ec8:	10bfe004 	addi	r2,r2,-128
  801ecc:	10000826 	beq	r2,zero,801ef0 <logic+0x16bc>
  801ed0:	e0bffc17 	ldw	r2,-16(fp)
  801ed4:	10804b43 	ldbu	r2,301(r2)
  801ed8:	10803fcc 	andi	r2,r2,255
  801edc:	1080201c 	xori	r2,r2,128
  801ee0:	10bfe004 	addi	r2,r2,-128
  801ee4:	1000021e 	bne	r2,zero,801ef0 <logic+0x16bc>
  801ee8:	00800044 	movi	r2,1
  801eec:	00000106 	br	801ef4 <logic+0x16c0>
  801ef0:	0005883a 	mov	r2,zero
  801ef4:	1007883a 	mov	r3,r2
  801ef8:	e0bffc17 	ldw	r2,-16(fp)
  801efc:	10c02a85 	stb	r3,170(r2)
  d->_cg61 = d->v;
  801f00:	e0bffc17 	ldw	r2,-16(fp)
  801f04:	10c018c3 	ldbu	r3,99(r2)
  801f08:	e0bffc17 	ldw	r2,-16(fp)
  801f0c:	10c04b05 	stb	r3,300(r2)
  d->_g62 = d->_g72 && d->_cg61;
  801f10:	e0bffc17 	ldw	r2,-16(fp)
  801f14:	10802a83 	ldbu	r2,170(r2)
  801f18:	10803fcc 	andi	r2,r2,255
  801f1c:	1080201c 	xori	r2,r2,128
  801f20:	10bfe004 	addi	r2,r2,-128
  801f24:	10000826 	beq	r2,zero,801f48 <logic+0x1714>
  801f28:	e0bffc17 	ldw	r2,-16(fp)
  801f2c:	10804b03 	ldbu	r2,300(r2)
  801f30:	10803fcc 	andi	r2,r2,255
  801f34:	1080201c 	xori	r2,r2,128
  801f38:	10bfe004 	addi	r2,r2,-128
  801f3c:	10000226 	beq	r2,zero,801f48 <logic+0x1714>
  801f40:	00800044 	movi	r2,1
  801f44:	00000106 	br	801f4c <logic+0x1718>
  801f48:	0005883a 	mov	r2,zero
  801f4c:	1007883a 	mov	r3,r2
  801f50:	e0bffc17 	ldw	r2,-16(fp)
  801f54:	10c02905 	stb	r3,164(r2)
  if (d->_g62) {
  801f58:	e0bffc17 	ldw	r2,-16(fp)
  801f5c:	10802903 	ldbu	r2,164(r2)
  801f60:	10803fcc 	andi	r2,r2,255
  801f64:	1080201c 	xori	r2,r2,128
  801f68:	10bfe004 	addi	r2,r2,-128
  801f6c:	10000326 	beq	r2,zero,801f7c <logic+0x1748>
    d->_heart2_local__Atrig4 = 1;
  801f70:	e0bffc17 	ldw	r2,-16(fp)
  801f74:	00c00044 	movi	r3,1
  801f78:	10c01b45 	stb	r3,109(r2)
  }
  d->_cg43 = d->_heart2_local__Atrig3 || d->_heart2_local__Atrig4;
  801f7c:	e0bffc17 	ldw	r2,-16(fp)
  801f80:	10801b03 	ldbu	r2,108(r2)
  801f84:	10803fcc 	andi	r2,r2,255
  801f88:	1080201c 	xori	r2,r2,128
  801f8c:	10bfe004 	addi	r2,r2,-128
  801f90:	1000061e 	bne	r2,zero,801fac <logic+0x1778>
  801f94:	e0bffc17 	ldw	r2,-16(fp)
  801f98:	10801b43 	ldbu	r2,109(r2)
  801f9c:	10803fcc 	andi	r2,r2,255
  801fa0:	1080201c 	xori	r2,r2,128
  801fa4:	10bfe004 	addi	r2,r2,-128
  801fa8:	10000226 	beq	r2,zero,801fb4 <logic+0x1780>
  801fac:	00800044 	movi	r2,1
  801fb0:	00000106 	br	801fb8 <logic+0x1784>
  801fb4:	0005883a 	mov	r2,zero
  801fb8:	1007883a 	mov	r3,r2
  801fbc:	e0bffc17 	ldw	r2,-16(fp)
  801fc0:	10c04945 	stb	r3,293(r2)
  d->_g44 = d->_g34 && d->_cg43;
  801fc4:	e0bffc17 	ldw	r2,-16(fp)
  801fc8:	10802443 	ldbu	r2,145(r2)
  801fcc:	10803fcc 	andi	r2,r2,255
  801fd0:	1080201c 	xori	r2,r2,128
  801fd4:	10bfe004 	addi	r2,r2,-128
  801fd8:	10000826 	beq	r2,zero,801ffc <logic+0x17c8>
  801fdc:	e0bffc17 	ldw	r2,-16(fp)
  801fe0:	10804943 	ldbu	r2,293(r2)
  801fe4:	10803fcc 	andi	r2,r2,255
  801fe8:	1080201c 	xori	r2,r2,128
  801fec:	10bfe004 	addi	r2,r2,-128
  801ff0:	10000226 	beq	r2,zero,801ffc <logic+0x17c8>
  801ff4:	00800044 	movi	r2,1
  801ff8:	00000106 	br	802000 <logic+0x17cc>
  801ffc:	0005883a 	mov	r2,zero
  802000:	1007883a 	mov	r3,r2
  802004:	e0bffc17 	ldw	r2,-16(fp)
  802008:	10c025c5 	stb	r3,151(r2)
  d->_g54 = d->_pg73;
  80200c:	e0bffc17 	ldw	r2,-16(fp)
  802010:	10c06683 	ldbu	r3,410(r2)
  802014:	e0bffc17 	ldw	r2,-16(fp)
  802018:	10c02785 	stb	r3,158(r2)
  d->_g48 = d->_pg51_e2;
  80201c:	e0bffc17 	ldw	r2,-16(fp)
  802020:	10c066c3 	ldbu	r3,411(r2)
  802024:	e0bffc17 	ldw	r2,-16(fp)
  802028:	10c02645 	stb	r3,153(r2)
  d->_g51_e2 = !(d->_g54 || d->_g48);
  80202c:	e0bffc17 	ldw	r2,-16(fp)
  802030:	10802783 	ldbu	r2,158(r2)
  802034:	10803fcc 	andi	r2,r2,255
  802038:	1080201c 	xori	r2,r2,128
  80203c:	10bfe004 	addi	r2,r2,-128
  802040:	1000081e 	bne	r2,zero,802064 <logic+0x1830>
  802044:	e0bffc17 	ldw	r2,-16(fp)
  802048:	10802643 	ldbu	r2,153(r2)
  80204c:	10803fcc 	andi	r2,r2,255
  802050:	1080201c 	xori	r2,r2,128
  802054:	10bfe004 	addi	r2,r2,-128
  802058:	1000021e 	bne	r2,zero,802064 <logic+0x1830>
  80205c:	00800044 	movi	r2,1
  802060:	00000106 	br	802068 <logic+0x1834>
  802064:	0005883a 	mov	r2,zero
  802068:	1007883a 	mov	r3,r2
  80206c:	e0bffc17 	ldw	r2,-16(fp)
  802070:	10c05d85 	stb	r3,374(r2)
  d->_g48 = d->_g48 || d->_g54;
  802074:	e0bffc17 	ldw	r2,-16(fp)
  802078:	10802643 	ldbu	r2,153(r2)
  80207c:	10803fcc 	andi	r2,r2,255
  802080:	1080201c 	xori	r2,r2,128
  802084:	10bfe004 	addi	r2,r2,-128
  802088:	1000061e 	bne	r2,zero,8020a4 <logic+0x1870>
  80208c:	e0bffc17 	ldw	r2,-16(fp)
  802090:	10802783 	ldbu	r2,158(r2)
  802094:	10803fcc 	andi	r2,r2,255
  802098:	1080201c 	xori	r2,r2,128
  80209c:	10bfe004 	addi	r2,r2,-128
  8020a0:	10000226 	beq	r2,zero,8020ac <logic+0x1878>
  8020a4:	00800044 	movi	r2,1
  8020a8:	00000106 	br	8020b0 <logic+0x187c>
  8020ac:	0005883a 	mov	r2,zero
  8020b0:	1007883a 	mov	r3,r2
  8020b4:	e0bffc17 	ldw	r2,-16(fp)
  8020b8:	10c02645 	stb	r3,153(r2)
  d->_cg49 = d->_region1_null_LRI < d->LRI_time;
  8020bc:	e0bffc17 	ldw	r2,-16(fp)
  8020c0:	14000917 	ldw	r16,36(r2)
  8020c4:	14400a17 	ldw	r17,40(r2)
  8020c8:	e0bffc17 	ldw	r2,-16(fp)
  8020cc:	10800317 	ldw	r2,12(r2)
  8020d0:	1009883a 	mov	r4,r2
  8020d4:	0808ce00 	call	808ce0 <__floatsidf>
  8020d8:	1009883a 	mov	r4,r2
  8020dc:	180b883a 	mov	r5,r3
  8020e0:	04800044 	movi	r18,1
  8020e4:	200d883a 	mov	r6,r4
  8020e8:	280f883a 	mov	r7,r5
  8020ec:	8009883a 	mov	r4,r16
  8020f0:	880b883a 	mov	r5,r17
  8020f4:	08082f00 	call	8082f0 <__ledf2>
  8020f8:	10000116 	blt	r2,zero,802100 <logic+0x18cc>
  8020fc:	0025883a 	mov	r18,zero
  802100:	9007883a 	mov	r3,r18
  802104:	e0bffc17 	ldw	r2,-16(fp)
  802108:	10c04a45 	stb	r3,297(r2)
  d->_g54 = d->_g48 && d->_cg49;
  80210c:	e0bffc17 	ldw	r2,-16(fp)
  802110:	10802643 	ldbu	r2,153(r2)
  802114:	10803fcc 	andi	r2,r2,255
  802118:	1080201c 	xori	r2,r2,128
  80211c:	10bfe004 	addi	r2,r2,-128
  802120:	10000826 	beq	r2,zero,802144 <logic+0x1910>
  802124:	e0bffc17 	ldw	r2,-16(fp)
  802128:	10804a43 	ldbu	r2,297(r2)
  80212c:	10803fcc 	andi	r2,r2,255
  802130:	1080201c 	xori	r2,r2,128
  802134:	10bfe004 	addi	r2,r2,-128
  802138:	10000226 	beq	r2,zero,802144 <logic+0x1910>
  80213c:	00800044 	movi	r2,1
  802140:	00000106 	br	802148 <logic+0x1914>
  802144:	0005883a 	mov	r2,zero
  802148:	1007883a 	mov	r3,r2
  80214c:	e0bffc17 	ldw	r2,-16(fp)
  802150:	10c02785 	stb	r3,158(r2)
  if (d->_g54) {
  802154:	e0bffc17 	ldw	r2,-16(fp)
  802158:	10802783 	ldbu	r2,158(r2)
  80215c:	10803fcc 	andi	r2,r2,255
  802160:	1080201c 	xori	r2,r2,128
  802164:	10bfe004 	addi	r2,r2,-128
  802168:	10003426 	beq	r2,zero,80223c <logic+0x1a08>
    d->sleepT = (d->sleepT < (d->LRI_time - d->_region1_null_LRI)) ? d->sleepT : (d->LRI_time - d->_region1_null_LRI);
  80216c:	e0bffc17 	ldw	r2,-16(fp)
  802170:	14001517 	ldw	r16,84(r2)
  802174:	14401617 	ldw	r17,88(r2)
  802178:	e0bffc17 	ldw	r2,-16(fp)
  80217c:	10800317 	ldw	r2,12(r2)
  802180:	1009883a 	mov	r4,r2
  802184:	0808ce00 	call	808ce0 <__floatsidf>
  802188:	1011883a 	mov	r8,r2
  80218c:	1813883a 	mov	r9,r3
  802190:	e13ffc17 	ldw	r4,-16(fp)
  802194:	20800917 	ldw	r2,36(r4)
  802198:	20c00a17 	ldw	r3,40(r4)
  80219c:	100d883a 	mov	r6,r2
  8021a0:	180f883a 	mov	r7,r3
  8021a4:	4009883a 	mov	r4,r8
  8021a8:	480b883a 	mov	r5,r9
  8021ac:	08083e40 	call	8083e4 <__subdf3>
  8021b0:	1009883a 	mov	r4,r2
  8021b4:	180b883a 	mov	r5,r3
  8021b8:	2005883a 	mov	r2,r4
  8021bc:	2807883a 	mov	r3,r5
  8021c0:	100d883a 	mov	r6,r2
  8021c4:	180f883a 	mov	r7,r3
  8021c8:	8009883a 	mov	r4,r16
  8021cc:	880b883a 	mov	r5,r17
  8021d0:	08082f00 	call	8082f0 <__ledf2>
  8021d4:	1000040e 	bge	r2,zero,8021e8 <logic+0x19b4>
  8021d8:	e13ffc17 	ldw	r4,-16(fp)
  8021dc:	20801517 	ldw	r2,84(r4)
  8021e0:	20c01617 	ldw	r3,88(r4)
  8021e4:	00001206 	br	802230 <logic+0x19fc>
  8021e8:	e0bffc17 	ldw	r2,-16(fp)
  8021ec:	10800317 	ldw	r2,12(r2)
  8021f0:	1009883a 	mov	r4,r2
  8021f4:	0808ce00 	call	808ce0 <__floatsidf>
  8021f8:	1011883a 	mov	r8,r2
  8021fc:	1813883a 	mov	r9,r3
  802200:	e13ffc17 	ldw	r4,-16(fp)
  802204:	20800917 	ldw	r2,36(r4)
  802208:	20c00a17 	ldw	r3,40(r4)
  80220c:	100d883a 	mov	r6,r2
  802210:	180f883a 	mov	r7,r3
  802214:	4009883a 	mov	r4,r8
  802218:	480b883a 	mov	r5,r9
  80221c:	08083e40 	call	8083e4 <__subdf3>
  802220:	1009883a 	mov	r4,r2
  802224:	180b883a 	mov	r5,r3
  802228:	2005883a 	mov	r2,r4
  80222c:	2807883a 	mov	r3,r5
  802230:	e13ffc17 	ldw	r4,-16(fp)
  802234:	20801515 	stw	r2,84(r4)
  802238:	20c01615 	stw	r3,88(r4)
  }
  d->_cg50 = d->_heart2_local__Atrig3 || d->_heart2_local__Atrig4;
  80223c:	e0bffc17 	ldw	r2,-16(fp)
  802240:	10801b03 	ldbu	r2,108(r2)
  802244:	10803fcc 	andi	r2,r2,255
  802248:	1080201c 	xori	r2,r2,128
  80224c:	10bfe004 	addi	r2,r2,-128
  802250:	1000061e 	bne	r2,zero,80226c <logic+0x1a38>
  802254:	e0bffc17 	ldw	r2,-16(fp)
  802258:	10801b43 	ldbu	r2,109(r2)
  80225c:	10803fcc 	andi	r2,r2,255
  802260:	1080201c 	xori	r2,r2,128
  802264:	10bfe004 	addi	r2,r2,-128
  802268:	10000226 	beq	r2,zero,802274 <logic+0x1a40>
  80226c:	00800044 	movi	r2,1
  802270:	00000106 	br	802278 <logic+0x1a44>
  802274:	0005883a 	mov	r2,zero
  802278:	1007883a 	mov	r3,r2
  80227c:	e0bffc17 	ldw	r2,-16(fp)
  802280:	10c04a05 	stb	r3,296(r2)
  d->_g49 = d->_g48 && !d->_cg49;
  802284:	e0bffc17 	ldw	r2,-16(fp)
  802288:	10802643 	ldbu	r2,153(r2)
  80228c:	10803fcc 	andi	r2,r2,255
  802290:	1080201c 	xori	r2,r2,128
  802294:	10bfe004 	addi	r2,r2,-128
  802298:	10000826 	beq	r2,zero,8022bc <logic+0x1a88>
  80229c:	e0bffc17 	ldw	r2,-16(fp)
  8022a0:	10804a43 	ldbu	r2,297(r2)
  8022a4:	10803fcc 	andi	r2,r2,255
  8022a8:	1080201c 	xori	r2,r2,128
  8022ac:	10bfe004 	addi	r2,r2,-128
  8022b0:	1000021e 	bne	r2,zero,8022bc <logic+0x1a88>
  8022b4:	00800044 	movi	r2,1
  8022b8:	00000106 	br	8022c0 <logic+0x1a8c>
  8022bc:	0005883a 	mov	r2,zero
  8022c0:	1007883a 	mov	r3,r2
  8022c4:	e0bffc17 	ldw	r2,-16(fp)
  8022c8:	10c02685 	stb	r3,154(r2)
  d->_cg52 = d->_heart2_local__Atrig3 || d->_heart2_local__Atrig4;
  8022cc:	e0bffc17 	ldw	r2,-16(fp)
  8022d0:	10801b03 	ldbu	r2,108(r2)
  8022d4:	10803fcc 	andi	r2,r2,255
  8022d8:	1080201c 	xori	r2,r2,128
  8022dc:	10bfe004 	addi	r2,r2,-128
  8022e0:	1000061e 	bne	r2,zero,8022fc <logic+0x1ac8>
  8022e4:	e0bffc17 	ldw	r2,-16(fp)
  8022e8:	10801b43 	ldbu	r2,109(r2)
  8022ec:	10803fcc 	andi	r2,r2,255
  8022f0:	1080201c 	xori	r2,r2,128
  8022f4:	10bfe004 	addi	r2,r2,-128
  8022f8:	10000226 	beq	r2,zero,802304 <logic+0x1ad0>
  8022fc:	00800044 	movi	r2,1
  802300:	00000106 	br	802308 <logic+0x1ad4>
  802304:	0005883a 	mov	r2,zero
  802308:	1007883a 	mov	r3,r2
  80230c:	e0bffc17 	ldw	r2,-16(fp)
  802310:	10c04a85 	stb	r3,298(r2)
  d->_g51 = d->_g54 && d->_cg50 || d->_g49 && d->_cg52;
  802314:	e0bffc17 	ldw	r2,-16(fp)
  802318:	10802783 	ldbu	r2,158(r2)
  80231c:	10803fcc 	andi	r2,r2,255
  802320:	1080201c 	xori	r2,r2,128
  802324:	10bfe004 	addi	r2,r2,-128
  802328:	10000626 	beq	r2,zero,802344 <logic+0x1b10>
  80232c:	e0bffc17 	ldw	r2,-16(fp)
  802330:	10804a03 	ldbu	r2,296(r2)
  802334:	10803fcc 	andi	r2,r2,255
  802338:	1080201c 	xori	r2,r2,128
  80233c:	10bfe004 	addi	r2,r2,-128
  802340:	10000c1e 	bne	r2,zero,802374 <logic+0x1b40>
  802344:	e0bffc17 	ldw	r2,-16(fp)
  802348:	10802683 	ldbu	r2,154(r2)
  80234c:	10803fcc 	andi	r2,r2,255
  802350:	1080201c 	xori	r2,r2,128
  802354:	10bfe004 	addi	r2,r2,-128
  802358:	10000826 	beq	r2,zero,80237c <logic+0x1b48>
  80235c:	e0bffc17 	ldw	r2,-16(fp)
  802360:	10804a83 	ldbu	r2,298(r2)
  802364:	10803fcc 	andi	r2,r2,255
  802368:	1080201c 	xori	r2,r2,128
  80236c:	10bfe004 	addi	r2,r2,-128
  802370:	10000226 	beq	r2,zero,80237c <logic+0x1b48>
  802374:	00800044 	movi	r2,1
  802378:	00000106 	br	802380 <logic+0x1b4c>
  80237c:	0005883a 	mov	r2,zero
  802380:	1007883a 	mov	r3,r2
  802384:	e0bffc17 	ldw	r2,-16(fp)
  802388:	10c02705 	stb	r3,156(r2)
  d->_g58 = !d->_g68_e1;
  80238c:	e0bffc17 	ldw	r2,-16(fp)
  802390:	10805e03 	ldbu	r2,376(r2)
  802394:	10803fcc 	andi	r2,r2,255
  802398:	1080201c 	xori	r2,r2,128
  80239c:	10bfe004 	addi	r2,r2,-128
  8023a0:	1005003a 	cmpeq	r2,r2,zero
  8023a4:	1007883a 	mov	r3,r2
  8023a8:	e0bffc17 	ldw	r2,-16(fp)
  8023ac:	10c02805 	stb	r3,160(r2)
  d->_g62 = d->_g68 || d->_g62;
  8023b0:	e0bffc17 	ldw	r2,-16(fp)
  8023b4:	10802a03 	ldbu	r2,168(r2)
  8023b8:	10803fcc 	andi	r2,r2,255
  8023bc:	1080201c 	xori	r2,r2,128
  8023c0:	10bfe004 	addi	r2,r2,-128
  8023c4:	1000061e 	bne	r2,zero,8023e0 <logic+0x1bac>
  8023c8:	e0bffc17 	ldw	r2,-16(fp)
  8023cc:	10802903 	ldbu	r2,164(r2)
  8023d0:	10803fcc 	andi	r2,r2,255
  8023d4:	1080201c 	xori	r2,r2,128
  8023d8:	10bfe004 	addi	r2,r2,-128
  8023dc:	10000226 	beq	r2,zero,8023e8 <logic+0x1bb4>
  8023e0:	00800044 	movi	r2,1
  8023e4:	00000106 	br	8023ec <logic+0x1bb8>
  8023e8:	0005883a 	mov	r2,zero
  8023ec:	1007883a 	mov	r3,r2
  8023f0:	e0bffc17 	ldw	r2,-16(fp)
  8023f4:	10c02905 	stb	r3,164(r2)
  d->_g59 = (d->_g72_e2 || d->_g44) && (d->_g51_e2 || d->_g51) && (d->_g58 || d->_g62) && (d->_g44 || d->_g51 || d->_g62);
  8023f8:	e0bffc17 	ldw	r2,-16(fp)
  8023fc:	10805e43 	ldbu	r2,377(r2)
  802400:	10803fcc 	andi	r2,r2,255
  802404:	1080201c 	xori	r2,r2,128
  802408:	10bfe004 	addi	r2,r2,-128
  80240c:	1000061e 	bne	r2,zero,802428 <logic+0x1bf4>
  802410:	e0bffc17 	ldw	r2,-16(fp)
  802414:	108025c3 	ldbu	r2,151(r2)
  802418:	10803fcc 	andi	r2,r2,255
  80241c:	1080201c 	xori	r2,r2,128
  802420:	10bfe004 	addi	r2,r2,-128
  802424:	10002c26 	beq	r2,zero,8024d8 <logic+0x1ca4>
  802428:	e0bffc17 	ldw	r2,-16(fp)
  80242c:	10805d83 	ldbu	r2,374(r2)
  802430:	10803fcc 	andi	r2,r2,255
  802434:	1080201c 	xori	r2,r2,128
  802438:	10bfe004 	addi	r2,r2,-128
  80243c:	1000061e 	bne	r2,zero,802458 <logic+0x1c24>
  802440:	e0bffc17 	ldw	r2,-16(fp)
  802444:	10802703 	ldbu	r2,156(r2)
  802448:	10803fcc 	andi	r2,r2,255
  80244c:	1080201c 	xori	r2,r2,128
  802450:	10bfe004 	addi	r2,r2,-128
  802454:	10002026 	beq	r2,zero,8024d8 <logic+0x1ca4>
  802458:	e0bffc17 	ldw	r2,-16(fp)
  80245c:	10802803 	ldbu	r2,160(r2)
  802460:	10803fcc 	andi	r2,r2,255
  802464:	1080201c 	xori	r2,r2,128
  802468:	10bfe004 	addi	r2,r2,-128
  80246c:	1000061e 	bne	r2,zero,802488 <logic+0x1c54>
  802470:	e0bffc17 	ldw	r2,-16(fp)
  802474:	10802903 	ldbu	r2,164(r2)
  802478:	10803fcc 	andi	r2,r2,255
  80247c:	1080201c 	xori	r2,r2,128
  802480:	10bfe004 	addi	r2,r2,-128
  802484:	10001426 	beq	r2,zero,8024d8 <logic+0x1ca4>
  802488:	e0bffc17 	ldw	r2,-16(fp)
  80248c:	108025c3 	ldbu	r2,151(r2)
  802490:	10803fcc 	andi	r2,r2,255
  802494:	1080201c 	xori	r2,r2,128
  802498:	10bfe004 	addi	r2,r2,-128
  80249c:	10000c1e 	bne	r2,zero,8024d0 <logic+0x1c9c>
  8024a0:	e0bffc17 	ldw	r2,-16(fp)
  8024a4:	10802703 	ldbu	r2,156(r2)
  8024a8:	10803fcc 	andi	r2,r2,255
  8024ac:	1080201c 	xori	r2,r2,128
  8024b0:	10bfe004 	addi	r2,r2,-128
  8024b4:	1000061e 	bne	r2,zero,8024d0 <logic+0x1c9c>
  8024b8:	e0bffc17 	ldw	r2,-16(fp)
  8024bc:	10802903 	ldbu	r2,164(r2)
  8024c0:	10803fcc 	andi	r2,r2,255
  8024c4:	1080201c 	xori	r2,r2,128
  8024c8:	10bfe004 	addi	r2,r2,-128
  8024cc:	10000226 	beq	r2,zero,8024d8 <logic+0x1ca4>
  8024d0:	00800044 	movi	r2,1
  8024d4:	00000106 	br	8024dc <logic+0x1ca8>
  8024d8:	0005883a 	mov	r2,zero
  8024dc:	1007883a 	mov	r3,r2
  8024e0:	e0bffc17 	ldw	r2,-16(fp)
  8024e4:	10c02845 	stb	r3,161(r2)
  d->_cg63 = d->_heart2_local__Atrig3;
  8024e8:	e0bffc17 	ldw	r2,-16(fp)
  8024ec:	10c01b03 	ldbu	r3,108(r2)
  8024f0:	e0bffc17 	ldw	r2,-16(fp)
  8024f4:	10c04b85 	stb	r3,302(r2)
  d->_g51 = d->_g59 && !d->_cg63;
  8024f8:	e0bffc17 	ldw	r2,-16(fp)
  8024fc:	10802843 	ldbu	r2,161(r2)
  802500:	10803fcc 	andi	r2,r2,255
  802504:	1080201c 	xori	r2,r2,128
  802508:	10bfe004 	addi	r2,r2,-128
  80250c:	10000826 	beq	r2,zero,802530 <logic+0x1cfc>
  802510:	e0bffc17 	ldw	r2,-16(fp)
  802514:	10804b83 	ldbu	r2,302(r2)
  802518:	10803fcc 	andi	r2,r2,255
  80251c:	1080201c 	xori	r2,r2,128
  802520:	10bfe004 	addi	r2,r2,-128
  802524:	1000021e 	bne	r2,zero,802530 <logic+0x1cfc>
  802528:	00800044 	movi	r2,1
  80252c:	00000106 	br	802534 <logic+0x1d00>
  802530:	0005883a 	mov	r2,zero
  802534:	1007883a 	mov	r3,r2
  802538:	e0bffc17 	ldw	r2,-16(fp)
  80253c:	10c02705 	stb	r3,156(r2)
  if (d->_g51) {
  802540:	e0bffc17 	ldw	r2,-16(fp)
  802544:	10802703 	ldbu	r2,156(r2)
  802548:	10803fcc 	andi	r2,r2,255
  80254c:	1080201c 	xori	r2,r2,128
  802550:	10bfe004 	addi	r2,r2,-128
  802554:	10000326 	beq	r2,zero,802564 <logic+0x1d30>
    d->_region1_null_LRI = 0;
  802558:	e0bffc17 	ldw	r2,-16(fp)
  80255c:	10000915 	stw	zero,36(r2)
  802560:	10000a15 	stw	zero,40(r2)
  }
  d->_g60_e3 = d->_GO || d->_g27 || d->_g51;
  802564:	e0bffc17 	ldw	r2,-16(fp)
  802568:	10804543 	ldbu	r2,277(r2)
  80256c:	10803fcc 	andi	r2,r2,255
  802570:	1080201c 	xori	r2,r2,128
  802574:	10bfe004 	addi	r2,r2,-128
  802578:	10000c1e 	bne	r2,zero,8025ac <logic+0x1d78>
  80257c:	e0bffc17 	ldw	r2,-16(fp)
  802580:	10802383 	ldbu	r2,142(r2)
  802584:	10803fcc 	andi	r2,r2,255
  802588:	1080201c 	xori	r2,r2,128
  80258c:	10bfe004 	addi	r2,r2,-128
  802590:	1000061e 	bne	r2,zero,8025ac <logic+0x1d78>
  802594:	e0bffc17 	ldw	r2,-16(fp)
  802598:	10802703 	ldbu	r2,156(r2)
  80259c:	10803fcc 	andi	r2,r2,255
  8025a0:	1080201c 	xori	r2,r2,128
  8025a4:	10bfe004 	addi	r2,r2,-128
  8025a8:	10000226 	beq	r2,zero,8025b4 <logic+0x1d80>
  8025ac:	00800044 	movi	r2,1
  8025b0:	00000106 	br	8025b8 <logic+0x1d84>
  8025b4:	0005883a 	mov	r2,zero
  8025b8:	1007883a 	mov	r3,r2
  8025bc:	e0bffc17 	ldw	r2,-16(fp)
  8025c0:	10c05dc5 	stb	r3,375(r2)
  if (d->_g60_e3) {
  8025c4:	e0bffc17 	ldw	r2,-16(fp)
  8025c8:	10805dc3 	ldbu	r2,375(r2)
  8025cc:	10803fcc 	andi	r2,r2,255
  8025d0:	1080201c 	xori	r2,r2,128
  8025d4:	10bfe004 	addi	r2,r2,-128
  8025d8:	10000426 	beq	r2,zero,8025ec <logic+0x1db8>
    d->_heart2_local__Atrig3 = 0;
  8025dc:	e0bffc17 	ldw	r2,-16(fp)
  8025e0:	10001b05 	stb	zero,108(r2)
    d->_heart2_local__Atrig4 = 0;
  8025e4:	e0bffc17 	ldw	r2,-16(fp)
  8025e8:	10001b45 	stb	zero,109(r2)
  }
  d->_cg41 = d->_heart2_local__Atrig3 || d->_heart2_local__Atrig4;
  8025ec:	e0bffc17 	ldw	r2,-16(fp)
  8025f0:	10801b03 	ldbu	r2,108(r2)
  8025f4:	10803fcc 	andi	r2,r2,255
  8025f8:	1080201c 	xori	r2,r2,128
  8025fc:	10bfe004 	addi	r2,r2,-128
  802600:	1000061e 	bne	r2,zero,80261c <logic+0x1de8>
  802604:	e0bffc17 	ldw	r2,-16(fp)
  802608:	10801b43 	ldbu	r2,109(r2)
  80260c:	10803fcc 	andi	r2,r2,255
  802610:	1080201c 	xori	r2,r2,128
  802614:	10bfe004 	addi	r2,r2,-128
  802618:	10000226 	beq	r2,zero,802624 <logic+0x1df0>
  80261c:	00800044 	movi	r2,1
  802620:	00000106 	br	802628 <logic+0x1df4>
  802624:	0005883a 	mov	r2,zero
  802628:	1007883a 	mov	r3,r2
  80262c:	e0bffc17 	ldw	r2,-16(fp)
  802630:	10c04905 	stb	r3,292(r2)
  d->_g44_e1 = d->_g60_e3 && !d->_cg41 || d->_g34 && !d->_cg43;
  802634:	e0bffc17 	ldw	r2,-16(fp)
  802638:	10805dc3 	ldbu	r2,375(r2)
  80263c:	10803fcc 	andi	r2,r2,255
  802640:	1080201c 	xori	r2,r2,128
  802644:	10bfe004 	addi	r2,r2,-128
  802648:	10000626 	beq	r2,zero,802664 <logic+0x1e30>
  80264c:	e0bffc17 	ldw	r2,-16(fp)
  802650:	10804903 	ldbu	r2,292(r2)
  802654:	10803fcc 	andi	r2,r2,255
  802658:	1080201c 	xori	r2,r2,128
  80265c:	10bfe004 	addi	r2,r2,-128
  802660:	10000c26 	beq	r2,zero,802694 <logic+0x1e60>
  802664:	e0bffc17 	ldw	r2,-16(fp)
  802668:	10802443 	ldbu	r2,145(r2)
  80266c:	10803fcc 	andi	r2,r2,255
  802670:	1080201c 	xori	r2,r2,128
  802674:	10bfe004 	addi	r2,r2,-128
  802678:	10000826 	beq	r2,zero,80269c <logic+0x1e68>
  80267c:	e0bffc17 	ldw	r2,-16(fp)
  802680:	10804943 	ldbu	r2,293(r2)
  802684:	10803fcc 	andi	r2,r2,255
  802688:	1080201c 	xori	r2,r2,128
  80268c:	10bfe004 	addi	r2,r2,-128
  802690:	1000021e 	bne	r2,zero,80269c <logic+0x1e68>
  802694:	00800044 	movi	r2,1
  802698:	00000106 	br	8026a0 <logic+0x1e6c>
  80269c:	0005883a 	mov	r2,zero
  8026a0:	1007883a 	mov	r3,r2
  8026a4:	e0bffc17 	ldw	r2,-16(fp)
  8026a8:	10c05d45 	stb	r3,373(r2)
  d->_cg45 = d->_region1_null_LRI < d->LRI_time;
  8026ac:	e0bffc17 	ldw	r2,-16(fp)
  8026b0:	14000917 	ldw	r16,36(r2)
  8026b4:	14400a17 	ldw	r17,40(r2)
  8026b8:	e0bffc17 	ldw	r2,-16(fp)
  8026bc:	10800317 	ldw	r2,12(r2)
  8026c0:	1009883a 	mov	r4,r2
  8026c4:	0808ce00 	call	808ce0 <__floatsidf>
  8026c8:	1009883a 	mov	r4,r2
  8026cc:	180b883a 	mov	r5,r3
  8026d0:	04800044 	movi	r18,1
  8026d4:	200d883a 	mov	r6,r4
  8026d8:	280f883a 	mov	r7,r5
  8026dc:	8009883a 	mov	r4,r16
  8026e0:	880b883a 	mov	r5,r17
  8026e4:	08082f00 	call	8082f0 <__ledf2>
  8026e8:	10000116 	blt	r2,zero,8026f0 <logic+0x1ebc>
  8026ec:	0025883a 	mov	r18,zero
  8026f0:	9007883a 	mov	r3,r18
  8026f4:	e0bffc17 	ldw	r2,-16(fp)
  8026f8:	10c04985 	stb	r3,294(r2)
  d->_g44 = d->_g60_e3 && d->_cg45;
  8026fc:	e0bffc17 	ldw	r2,-16(fp)
  802700:	10805dc3 	ldbu	r2,375(r2)
  802704:	10803fcc 	andi	r2,r2,255
  802708:	1080201c 	xori	r2,r2,128
  80270c:	10bfe004 	addi	r2,r2,-128
  802710:	10000826 	beq	r2,zero,802734 <logic+0x1f00>
  802714:	e0bffc17 	ldw	r2,-16(fp)
  802718:	10804983 	ldbu	r2,294(r2)
  80271c:	10803fcc 	andi	r2,r2,255
  802720:	1080201c 	xori	r2,r2,128
  802724:	10bfe004 	addi	r2,r2,-128
  802728:	10000226 	beq	r2,zero,802734 <logic+0x1f00>
  80272c:	00800044 	movi	r2,1
  802730:	00000106 	br	802738 <logic+0x1f04>
  802734:	0005883a 	mov	r2,zero
  802738:	1007883a 	mov	r3,r2
  80273c:	e0bffc17 	ldw	r2,-16(fp)
  802740:	10c025c5 	stb	r3,151(r2)
  if (d->_g44) {
  802744:	e0bffc17 	ldw	r2,-16(fp)
  802748:	108025c3 	ldbu	r2,151(r2)
  80274c:	10803fcc 	andi	r2,r2,255
  802750:	1080201c 	xori	r2,r2,128
  802754:	10bfe004 	addi	r2,r2,-128
  802758:	10003426 	beq	r2,zero,80282c <logic+0x1ff8>
    d->sleepT = (d->sleepT < (d->LRI_time - d->_region1_null_LRI)) ? d->sleepT : (d->LRI_time - d->_region1_null_LRI);
  80275c:	e0bffc17 	ldw	r2,-16(fp)
  802760:	14001517 	ldw	r16,84(r2)
  802764:	14401617 	ldw	r17,88(r2)
  802768:	e0bffc17 	ldw	r2,-16(fp)
  80276c:	10800317 	ldw	r2,12(r2)
  802770:	1009883a 	mov	r4,r2
  802774:	0808ce00 	call	808ce0 <__floatsidf>
  802778:	1011883a 	mov	r8,r2
  80277c:	1813883a 	mov	r9,r3
  802780:	e13ffc17 	ldw	r4,-16(fp)
  802784:	20800917 	ldw	r2,36(r4)
  802788:	20c00a17 	ldw	r3,40(r4)
  80278c:	100d883a 	mov	r6,r2
  802790:	180f883a 	mov	r7,r3
  802794:	4009883a 	mov	r4,r8
  802798:	480b883a 	mov	r5,r9
  80279c:	08083e40 	call	8083e4 <__subdf3>
  8027a0:	1009883a 	mov	r4,r2
  8027a4:	180b883a 	mov	r5,r3
  8027a8:	2005883a 	mov	r2,r4
  8027ac:	2807883a 	mov	r3,r5
  8027b0:	100d883a 	mov	r6,r2
  8027b4:	180f883a 	mov	r7,r3
  8027b8:	8009883a 	mov	r4,r16
  8027bc:	880b883a 	mov	r5,r17
  8027c0:	08082f00 	call	8082f0 <__ledf2>
  8027c4:	1000040e 	bge	r2,zero,8027d8 <logic+0x1fa4>
  8027c8:	e13ffc17 	ldw	r4,-16(fp)
  8027cc:	20801517 	ldw	r2,84(r4)
  8027d0:	20c01617 	ldw	r3,88(r4)
  8027d4:	00001206 	br	802820 <logic+0x1fec>
  8027d8:	e0bffc17 	ldw	r2,-16(fp)
  8027dc:	10800317 	ldw	r2,12(r2)
  8027e0:	1009883a 	mov	r4,r2
  8027e4:	0808ce00 	call	808ce0 <__floatsidf>
  8027e8:	1011883a 	mov	r8,r2
  8027ec:	1813883a 	mov	r9,r3
  8027f0:	e13ffc17 	ldw	r4,-16(fp)
  8027f4:	20800917 	ldw	r2,36(r4)
  8027f8:	20c00a17 	ldw	r3,40(r4)
  8027fc:	100d883a 	mov	r6,r2
  802800:	180f883a 	mov	r7,r3
  802804:	4009883a 	mov	r4,r8
  802808:	480b883a 	mov	r5,r9
  80280c:	08083e40 	call	8083e4 <__subdf3>
  802810:	1009883a 	mov	r4,r2
  802814:	180b883a 	mov	r5,r3
  802818:	2005883a 	mov	r2,r4
  80281c:	2807883a 	mov	r3,r5
  802820:	e13ffc17 	ldw	r4,-16(fp)
  802824:	20801515 	stw	r2,84(r4)
  802828:	20c01615 	stw	r3,88(r4)
  }
  d->_cg46 = d->_heart2_local__Atrig3 || d->_heart2_local__Atrig4;
  80282c:	e0bffc17 	ldw	r2,-16(fp)
  802830:	10801b03 	ldbu	r2,108(r2)
  802834:	10803fcc 	andi	r2,r2,255
  802838:	1080201c 	xori	r2,r2,128
  80283c:	10bfe004 	addi	r2,r2,-128
  802840:	1000061e 	bne	r2,zero,80285c <logic+0x2028>
  802844:	e0bffc17 	ldw	r2,-16(fp)
  802848:	10801b43 	ldbu	r2,109(r2)
  80284c:	10803fcc 	andi	r2,r2,255
  802850:	1080201c 	xori	r2,r2,128
  802854:	10bfe004 	addi	r2,r2,-128
  802858:	10000226 	beq	r2,zero,802864 <logic+0x2030>
  80285c:	00800044 	movi	r2,1
  802860:	00000106 	br	802868 <logic+0x2034>
  802864:	0005883a 	mov	r2,zero
  802868:	1007883a 	mov	r3,r2
  80286c:	e0bffc17 	ldw	r2,-16(fp)
  802870:	10c049c5 	stb	r3,295(r2)
  d->_g51_e2 = d->_g44 && !d->_cg46 || d->_g54 && !d->_cg50;
  802874:	e0bffc17 	ldw	r2,-16(fp)
  802878:	108025c3 	ldbu	r2,151(r2)
  80287c:	10803fcc 	andi	r2,r2,255
  802880:	1080201c 	xori	r2,r2,128
  802884:	10bfe004 	addi	r2,r2,-128
  802888:	10000626 	beq	r2,zero,8028a4 <logic+0x2070>
  80288c:	e0bffc17 	ldw	r2,-16(fp)
  802890:	108049c3 	ldbu	r2,295(r2)
  802894:	10803fcc 	andi	r2,r2,255
  802898:	1080201c 	xori	r2,r2,128
  80289c:	10bfe004 	addi	r2,r2,-128
  8028a0:	10000c26 	beq	r2,zero,8028d4 <logic+0x20a0>
  8028a4:	e0bffc17 	ldw	r2,-16(fp)
  8028a8:	10802783 	ldbu	r2,158(r2)
  8028ac:	10803fcc 	andi	r2,r2,255
  8028b0:	1080201c 	xori	r2,r2,128
  8028b4:	10bfe004 	addi	r2,r2,-128
  8028b8:	10000826 	beq	r2,zero,8028dc <logic+0x20a8>
  8028bc:	e0bffc17 	ldw	r2,-16(fp)
  8028c0:	10804a03 	ldbu	r2,296(r2)
  8028c4:	10803fcc 	andi	r2,r2,255
  8028c8:	1080201c 	xori	r2,r2,128
  8028cc:	10bfe004 	addi	r2,r2,-128
  8028d0:	1000021e 	bne	r2,zero,8028dc <logic+0x20a8>
  8028d4:	00800044 	movi	r2,1
  8028d8:	00000106 	br	8028e0 <logic+0x20ac>
  8028dc:	0005883a 	mov	r2,zero
  8028e0:	1007883a 	mov	r3,r2
  8028e4:	e0bffc17 	ldw	r2,-16(fp)
  8028e8:	10c05d85 	stb	r3,374(r2)
  d->_g60 = d->_g60_e3 && !d->_cg45;
  8028ec:	e0bffc17 	ldw	r2,-16(fp)
  8028f0:	10805dc3 	ldbu	r2,375(r2)
  8028f4:	10803fcc 	andi	r2,r2,255
  8028f8:	1080201c 	xori	r2,r2,128
  8028fc:	10bfe004 	addi	r2,r2,-128
  802900:	10000826 	beq	r2,zero,802924 <logic+0x20f0>
  802904:	e0bffc17 	ldw	r2,-16(fp)
  802908:	10804983 	ldbu	r2,294(r2)
  80290c:	10803fcc 	andi	r2,r2,255
  802910:	1080201c 	xori	r2,r2,128
  802914:	10bfe004 	addi	r2,r2,-128
  802918:	1000021e 	bne	r2,zero,802924 <logic+0x20f0>
  80291c:	00800044 	movi	r2,1
  802920:	00000106 	br	802928 <logic+0x20f4>
  802924:	0005883a 	mov	r2,zero
  802928:	1007883a 	mov	r3,r2
  80292c:	e0bffc17 	ldw	r2,-16(fp)
  802930:	10c02885 	stb	r3,162(r2)
  d->_cg55 = d->_heart2_local__Atrig3 || d->_heart2_local__Atrig4;
  802934:	e0bffc17 	ldw	r2,-16(fp)
  802938:	10801b03 	ldbu	r2,108(r2)
  80293c:	10803fcc 	andi	r2,r2,255
  802940:	1080201c 	xori	r2,r2,128
  802944:	10bfe004 	addi	r2,r2,-128
  802948:	1000061e 	bne	r2,zero,802964 <logic+0x2130>
  80294c:	e0bffc17 	ldw	r2,-16(fp)
  802950:	10801b43 	ldbu	r2,109(r2)
  802954:	10803fcc 	andi	r2,r2,255
  802958:	1080201c 	xori	r2,r2,128
  80295c:	10bfe004 	addi	r2,r2,-128
  802960:	10000226 	beq	r2,zero,80296c <logic+0x2138>
  802964:	00800044 	movi	r2,1
  802968:	00000106 	br	802970 <logic+0x213c>
  80296c:	0005883a 	mov	r2,zero
  802970:	1007883a 	mov	r3,r2
  802974:	e0bffc17 	ldw	r2,-16(fp)
  802978:	10c04ac5 	stb	r3,299(r2)
  d->_g73 = d->_g49 && !d->_cg52 || d->_g60 && !d->_cg55;
  80297c:	e0bffc17 	ldw	r2,-16(fp)
  802980:	10802683 	ldbu	r2,154(r2)
  802984:	10803fcc 	andi	r2,r2,255
  802988:	1080201c 	xori	r2,r2,128
  80298c:	10bfe004 	addi	r2,r2,-128
  802990:	10000626 	beq	r2,zero,8029ac <logic+0x2178>
  802994:	e0bffc17 	ldw	r2,-16(fp)
  802998:	10804a83 	ldbu	r2,298(r2)
  80299c:	10803fcc 	andi	r2,r2,255
  8029a0:	1080201c 	xori	r2,r2,128
  8029a4:	10bfe004 	addi	r2,r2,-128
  8029a8:	10000c26 	beq	r2,zero,8029dc <logic+0x21a8>
  8029ac:	e0bffc17 	ldw	r2,-16(fp)
  8029b0:	10802883 	ldbu	r2,162(r2)
  8029b4:	10803fcc 	andi	r2,r2,255
  8029b8:	1080201c 	xori	r2,r2,128
  8029bc:	10bfe004 	addi	r2,r2,-128
  8029c0:	10000826 	beq	r2,zero,8029e4 <logic+0x21b0>
  8029c4:	e0bffc17 	ldw	r2,-16(fp)
  8029c8:	10804ac3 	ldbu	r2,299(r2)
  8029cc:	10803fcc 	andi	r2,r2,255
  8029d0:	1080201c 	xori	r2,r2,128
  8029d4:	10bfe004 	addi	r2,r2,-128
  8029d8:	1000021e 	bne	r2,zero,8029e4 <logic+0x21b0>
  8029dc:	00800044 	movi	r2,1
  8029e0:	00000106 	br	8029e8 <logic+0x21b4>
  8029e4:	0005883a 	mov	r2,zero
  8029e8:	1007883a 	mov	r3,r2
  8029ec:	e0bffc17 	ldw	r2,-16(fp)
  8029f0:	10c02ac5 	stb	r3,171(r2)
  d->_g74 = d->_g60_e3 || d->_g72 && !d->_cg61;
  8029f4:	e0bffc17 	ldw	r2,-16(fp)
  8029f8:	10805dc3 	ldbu	r2,375(r2)
  8029fc:	10803fcc 	andi	r2,r2,255
  802a00:	1080201c 	xori	r2,r2,128
  802a04:	10bfe004 	addi	r2,r2,-128
  802a08:	10000c1e 	bne	r2,zero,802a3c <logic+0x2208>
  802a0c:	e0bffc17 	ldw	r2,-16(fp)
  802a10:	10802a83 	ldbu	r2,170(r2)
  802a14:	10803fcc 	andi	r2,r2,255
  802a18:	1080201c 	xori	r2,r2,128
  802a1c:	10bfe004 	addi	r2,r2,-128
  802a20:	10000826 	beq	r2,zero,802a44 <logic+0x2210>
  802a24:	e0bffc17 	ldw	r2,-16(fp)
  802a28:	10804b03 	ldbu	r2,300(r2)
  802a2c:	10803fcc 	andi	r2,r2,255
  802a30:	1080201c 	xori	r2,r2,128
  802a34:	10bfe004 	addi	r2,r2,-128
  802a38:	1000021e 	bne	r2,zero,802a44 <logic+0x2210>
  802a3c:	00800044 	movi	r2,1
  802a40:	00000106 	br	802a48 <logic+0x2214>
  802a44:	0005883a 	mov	r2,zero
  802a48:	1007883a 	mov	r3,r2
  802a4c:	e0bffc17 	ldw	r2,-16(fp)
  802a50:	10c02b05 	stb	r3,172(r2)
  d->_g43 = d->_g59 && d->_cg63;
  802a54:	e0bffc17 	ldw	r2,-16(fp)
  802a58:	10802843 	ldbu	r2,161(r2)
  802a5c:	10803fcc 	andi	r2,r2,255
  802a60:	1080201c 	xori	r2,r2,128
  802a64:	10bfe004 	addi	r2,r2,-128
  802a68:	10000826 	beq	r2,zero,802a8c <logic+0x2258>
  802a6c:	e0bffc17 	ldw	r2,-16(fp)
  802a70:	10804b83 	ldbu	r2,302(r2)
  802a74:	10803fcc 	andi	r2,r2,255
  802a78:	1080201c 	xori	r2,r2,128
  802a7c:	10bfe004 	addi	r2,r2,-128
  802a80:	10000226 	beq	r2,zero,802a8c <logic+0x2258>
  802a84:	00800044 	movi	r2,1
  802a88:	00000106 	br	802a90 <logic+0x225c>
  802a8c:	0005883a 	mov	r2,zero
  802a90:	1007883a 	mov	r3,r2
  802a94:	e0bffc17 	ldw	r2,-16(fp)
  802a98:	10c02585 	stb	r3,150(r2)
  if (d->_g43) {
  802a9c:	e0bffc17 	ldw	r2,-16(fp)
  802aa0:	10802583 	ldbu	r2,150(r2)
  802aa4:	10803fcc 	andi	r2,r2,255
  802aa8:	1080201c 	xori	r2,r2,128
  802aac:	10bfe004 	addi	r2,r2,-128
  802ab0:	10000826 	beq	r2,zero,802ad4 <logic+0x22a0>
    d->VP |= 1;
  802ab4:	e0bffc17 	ldw	r2,-16(fp)
  802ab8:	108017c3 	ldbu	r2,95(r2)
  802abc:	10800054 	ori	r2,r2,1
  802ac0:	1007883a 	mov	r3,r2
  802ac4:	e0bffc17 	ldw	r2,-16(fp)
  802ac8:	10c017c5 	stb	r3,95(r2)
    d->_heart2_local__Atrig5 = 0;
  802acc:	e0bffc17 	ldw	r2,-16(fp)
  802ad0:	10001b85 	stb	zero,110(r2)
  }
  d->_cg65 = d->_heart2_local__Atrig5;
  802ad4:	e0bffc17 	ldw	r2,-16(fp)
  802ad8:	10c01b83 	ldbu	r3,110(r2)
  802adc:	e0bffc17 	ldw	r2,-16(fp)
  802ae0:	10c04bc5 	stb	r3,303(r2)
  d->_g46 = d->_g43 && !d->_cg65 || d->_g15 && !d->_cg67;
  802ae4:	e0bffc17 	ldw	r2,-16(fp)
  802ae8:	10802583 	ldbu	r2,150(r2)
  802aec:	10803fcc 	andi	r2,r2,255
  802af0:	1080201c 	xori	r2,r2,128
  802af4:	10bfe004 	addi	r2,r2,-128
  802af8:	10000626 	beq	r2,zero,802b14 <logic+0x22e0>
  802afc:	e0bffc17 	ldw	r2,-16(fp)
  802b00:	10804bc3 	ldbu	r2,303(r2)
  802b04:	10803fcc 	andi	r2,r2,255
  802b08:	1080201c 	xori	r2,r2,128
  802b0c:	10bfe004 	addi	r2,r2,-128
  802b10:	10000c26 	beq	r2,zero,802b44 <logic+0x2310>
  802b14:	e0bffc17 	ldw	r2,-16(fp)
  802b18:	10802143 	ldbu	r2,133(r2)
  802b1c:	10803fcc 	andi	r2,r2,255
  802b20:	1080201c 	xori	r2,r2,128
  802b24:	10bfe004 	addi	r2,r2,-128
  802b28:	10000826 	beq	r2,zero,802b4c <logic+0x2318>
  802b2c:	e0bffc17 	ldw	r2,-16(fp)
  802b30:	10804c03 	ldbu	r2,304(r2)
  802b34:	10803fcc 	andi	r2,r2,255
  802b38:	1080201c 	xori	r2,r2,128
  802b3c:	10bfe004 	addi	r2,r2,-128
  802b40:	1000021e 	bne	r2,zero,802b4c <logic+0x2318>
  802b44:	00800044 	movi	r2,1
  802b48:	00000106 	br	802b50 <logic+0x231c>
  802b4c:	0005883a 	mov	r2,zero
  802b50:	1007883a 	mov	r3,r2
  802b54:	e0bffc17 	ldw	r2,-16(fp)
  802b58:	10c02605 	stb	r3,152(r2)
  d->_g50 = d->_g43 || d->_g24 && !d->_cg71;
  802b5c:	e0bffc17 	ldw	r2,-16(fp)
  802b60:	10802583 	ldbu	r2,150(r2)
  802b64:	10803fcc 	andi	r2,r2,255
  802b68:	1080201c 	xori	r2,r2,128
  802b6c:	10bfe004 	addi	r2,r2,-128
  802b70:	10000c1e 	bne	r2,zero,802ba4 <logic+0x2370>
  802b74:	e0bffc17 	ldw	r2,-16(fp)
  802b78:	108022c3 	ldbu	r2,139(r2)
  802b7c:	10803fcc 	andi	r2,r2,255
  802b80:	1080201c 	xori	r2,r2,128
  802b84:	10bfe004 	addi	r2,r2,-128
  802b88:	10000826 	beq	r2,zero,802bac <logic+0x2378>
  802b8c:	e0bffc17 	ldw	r2,-16(fp)
  802b90:	10804c43 	ldbu	r2,305(r2)
  802b94:	10803fcc 	andi	r2,r2,255
  802b98:	1080201c 	xori	r2,r2,128
  802b9c:	10bfe004 	addi	r2,r2,-128
  802ba0:	1000021e 	bne	r2,zero,802bac <logic+0x2378>
  802ba4:	00800044 	movi	r2,1
  802ba8:	00000106 	br	802bb0 <logic+0x237c>
  802bac:	0005883a 	mov	r2,zero
  802bb0:	1007883a 	mov	r3,r2
  802bb4:	e0bffc17 	ldw	r2,-16(fp)
  802bb8:	10c026c5 	stb	r3,155(r2)
  d->_g55 = d->_pg83;
  802bbc:	e0bffc17 	ldw	r2,-16(fp)
  802bc0:	10c06703 	ldbu	r3,412(r2)
  802bc4:	e0bffc17 	ldw	r2,-16(fp)
  802bc8:	10c027c5 	stb	r3,159(r2)
  if (d->_g55) {
  802bcc:	e0bffc17 	ldw	r2,-16(fp)
  802bd0:	108027c3 	ldbu	r2,159(r2)
  802bd4:	10803fcc 	andi	r2,r2,255
  802bd8:	1080201c 	xori	r2,r2,128
  802bdc:	10bfe004 	addi	r2,r2,-128
  802be0:	10001226 	beq	r2,zero,802c2c <logic+0x23f8>
    d->_region2_null_VRP += d->deltaT;
  802be4:	e13ffc17 	ldw	r4,-16(fp)
  802be8:	20800b17 	ldw	r2,44(r4)
  802bec:	20c00c17 	ldw	r3,48(r4)
  802bf0:	e1bffc17 	ldw	r6,-16(fp)
  802bf4:	31001317 	ldw	r4,76(r6)
  802bf8:	31401417 	ldw	r5,80(r6)
  802bfc:	200d883a 	mov	r6,r4
  802c00:	280f883a 	mov	r7,r5
  802c04:	1009883a 	mov	r4,r2
  802c08:	180b883a 	mov	r5,r3
  802c0c:	08079680 	call	807968 <__adddf3>
  802c10:	1009883a 	mov	r4,r2
  802c14:	180b883a 	mov	r5,r3
  802c18:	2005883a 	mov	r2,r4
  802c1c:	2807883a 	mov	r3,r5
  802c20:	e13ffc17 	ldw	r4,-16(fp)
  802c24:	20800b15 	stw	r2,44(r4)
  802c28:	20c00c15 	stw	r3,48(r4)
  }
  d->_g52 = !d->_g55;
  802c2c:	e0bffc17 	ldw	r2,-16(fp)
  802c30:	108027c3 	ldbu	r2,159(r2)
  802c34:	10803fcc 	andi	r2,r2,255
  802c38:	1080201c 	xori	r2,r2,128
  802c3c:	10bfe004 	addi	r2,r2,-128
  802c40:	1005003a 	cmpeq	r2,r2,zero
  802c44:	1007883a 	mov	r3,r2
  802c48:	e0bffc17 	ldw	r2,-16(fp)
  802c4c:	10c02745 	stb	r3,157(r2)
  d->_g40 = d->_pg89;
  802c50:	e0bffc17 	ldw	r2,-16(fp)
  802c54:	10c06743 	ldbu	r3,413(r2)
  802c58:	e0bffc17 	ldw	r2,-16(fp)
  802c5c:	10c02545 	stb	r3,149(r2)
  d->_cg108 = d->v;
  802c60:	e0bffc17 	ldw	r2,-16(fp)
  802c64:	10c018c3 	ldbu	r3,99(r2)
  802c68:	e0bffc17 	ldw	r2,-16(fp)
  802c6c:	10c05005 	stb	r3,320(r2)
  d->_g61 = d->_g40 && d->_cg108;
  802c70:	e0bffc17 	ldw	r2,-16(fp)
  802c74:	10802543 	ldbu	r2,149(r2)
  802c78:	10803fcc 	andi	r2,r2,255
  802c7c:	1080201c 	xori	r2,r2,128
  802c80:	10bfe004 	addi	r2,r2,-128
  802c84:	10000826 	beq	r2,zero,802ca8 <logic+0x2474>
  802c88:	e0bffc17 	ldw	r2,-16(fp)
  802c8c:	10805003 	ldbu	r2,320(r2)
  802c90:	10803fcc 	andi	r2,r2,255
  802c94:	1080201c 	xori	r2,r2,128
  802c98:	10bfe004 	addi	r2,r2,-128
  802c9c:	10000226 	beq	r2,zero,802ca8 <logic+0x2474>
  802ca0:	00800044 	movi	r2,1
  802ca4:	00000106 	br	802cac <logic+0x2478>
  802ca8:	0005883a 	mov	r2,zero
  802cac:	1007883a 	mov	r3,r2
  802cb0:	e0bffc17 	ldw	r2,-16(fp)
  802cb4:	10c028c5 	stb	r3,163(r2)
  if (d->_g61) {
  802cb8:	e0bffc17 	ldw	r2,-16(fp)
  802cbc:	108028c3 	ldbu	r2,163(r2)
  802cc0:	10803fcc 	andi	r2,r2,255
  802cc4:	1080201c 	xori	r2,r2,128
  802cc8:	10bfe004 	addi	r2,r2,-128
  802ccc:	10000326 	beq	r2,zero,802cdc <logic+0x24a8>
    d->_heart2_local__Atrig8 = 1;
  802cd0:	e0bffc17 	ldw	r2,-16(fp)
  802cd4:	00c00044 	movi	r3,1
  802cd8:	10c01c45 	stb	r3,113(r2)
  }
  d->_g63 = d->_g40 && !d->_cg108;
  802cdc:	e0bffc17 	ldw	r2,-16(fp)
  802ce0:	10802543 	ldbu	r2,149(r2)
  802ce4:	10803fcc 	andi	r2,r2,255
  802ce8:	1080201c 	xori	r2,r2,128
  802cec:	10bfe004 	addi	r2,r2,-128
  802cf0:	10000826 	beq	r2,zero,802d14 <logic+0x24e0>
  802cf4:	e0bffc17 	ldw	r2,-16(fp)
  802cf8:	10805003 	ldbu	r2,320(r2)
  802cfc:	10803fcc 	andi	r2,r2,255
  802d00:	1080201c 	xori	r2,r2,128
  802d04:	10bfe004 	addi	r2,r2,-128
  802d08:	1000021e 	bne	r2,zero,802d14 <logic+0x24e0>
  802d0c:	00800044 	movi	r2,1
  802d10:	00000106 	br	802d18 <logic+0x24e4>
  802d14:	0005883a 	mov	r2,zero
  802d18:	1007883a 	mov	r3,r2
  802d1c:	e0bffc17 	ldw	r2,-16(fp)
  802d20:	10c02945 	stb	r3,165(r2)
  d->_g67 = d->_g63 && d->VS;
  802d24:	e0bffc17 	ldw	r2,-16(fp)
  802d28:	10802943 	ldbu	r2,165(r2)
  802d2c:	10803fcc 	andi	r2,r2,255
  802d30:	1080201c 	xori	r2,r2,128
  802d34:	10bfe004 	addi	r2,r2,-128
  802d38:	10000826 	beq	r2,zero,802d5c <logic+0x2528>
  802d3c:	e0bffc17 	ldw	r2,-16(fp)
  802d40:	10801743 	ldbu	r2,93(r2)
  802d44:	10803fcc 	andi	r2,r2,255
  802d48:	1080201c 	xori	r2,r2,128
  802d4c:	10bfe004 	addi	r2,r2,-128
  802d50:	10000226 	beq	r2,zero,802d5c <logic+0x2528>
  802d54:	00800044 	movi	r2,1
  802d58:	00000106 	br	802d60 <logic+0x252c>
  802d5c:	0005883a 	mov	r2,zero
  802d60:	1007883a 	mov	r3,r2
  802d64:	e0bffc17 	ldw	r2,-16(fp)
  802d68:	10c029c5 	stb	r3,167(r2)
  if (d->_g67) {
  802d6c:	e0bffc17 	ldw	r2,-16(fp)
  802d70:	108029c3 	ldbu	r2,167(r2)
  802d74:	10803fcc 	andi	r2,r2,255
  802d78:	1080201c 	xori	r2,r2,128
  802d7c:	10bfe004 	addi	r2,r2,-128
  802d80:	10000326 	beq	r2,zero,802d90 <logic+0x255c>
    d->_heart2_local__Atrig9 = 1;
  802d84:	e0bffc17 	ldw	r2,-16(fp)
  802d88:	00c00044 	movi	r3,1
  802d8c:	10c01c85 	stb	r3,114(r2)
  }
  d->_cg104 = d->_heart2_local__Atrig8 || d->_heart2_local__Atrig9;
  802d90:	e0bffc17 	ldw	r2,-16(fp)
  802d94:	10801c43 	ldbu	r2,113(r2)
  802d98:	10803fcc 	andi	r2,r2,255
  802d9c:	1080201c 	xori	r2,r2,128
  802da0:	10bfe004 	addi	r2,r2,-128
  802da4:	1000061e 	bne	r2,zero,802dc0 <logic+0x258c>
  802da8:	e0bffc17 	ldw	r2,-16(fp)
  802dac:	10801c83 	ldbu	r2,114(r2)
  802db0:	10803fcc 	andi	r2,r2,255
  802db4:	1080201c 	xori	r2,r2,128
  802db8:	10bfe004 	addi	r2,r2,-128
  802dbc:	10000226 	beq	r2,zero,802dc8 <logic+0x2594>
  802dc0:	00800044 	movi	r2,1
  802dc4:	00000106 	br	802dcc <logic+0x2598>
  802dc8:	0005883a 	mov	r2,zero
  802dcc:	1007883a 	mov	r3,r2
  802dd0:	e0bffc17 	ldw	r2,-16(fp)
  802dd4:	10c04f85 	stb	r3,318(r2)
  d->_g64 = d->_g55 && d->_cg104;
  802dd8:	e0bffc17 	ldw	r2,-16(fp)
  802ddc:	108027c3 	ldbu	r2,159(r2)
  802de0:	10803fcc 	andi	r2,r2,255
  802de4:	1080201c 	xori	r2,r2,128
  802de8:	10bfe004 	addi	r2,r2,-128
  802dec:	10000826 	beq	r2,zero,802e10 <logic+0x25dc>
  802df0:	e0bffc17 	ldw	r2,-16(fp)
  802df4:	10804f83 	ldbu	r2,318(r2)
  802df8:	10803fcc 	andi	r2,r2,255
  802dfc:	1080201c 	xori	r2,r2,128
  802e00:	10bfe004 	addi	r2,r2,-128
  802e04:	10000226 	beq	r2,zero,802e10 <logic+0x25dc>
  802e08:	00800044 	movi	r2,1
  802e0c:	00000106 	br	802e14 <logic+0x25e0>
  802e10:	0005883a 	mov	r2,zero
  802e14:	1007883a 	mov	r3,r2
  802e18:	e0bffc17 	ldw	r2,-16(fp)
  802e1c:	10c02985 	stb	r3,166(r2)
  d->_g71 = !d->_g40;
  802e20:	e0bffc17 	ldw	r2,-16(fp)
  802e24:	10802543 	ldbu	r2,149(r2)
  802e28:	10803fcc 	andi	r2,r2,255
  802e2c:	1080201c 	xori	r2,r2,128
  802e30:	10bfe004 	addi	r2,r2,-128
  802e34:	1005003a 	cmpeq	r2,r2,zero
  802e38:	1007883a 	mov	r3,r2
  802e3c:	e0bffc17 	ldw	r2,-16(fp)
  802e40:	10c02a45 	stb	r3,169(r2)
  d->_g108 = d->_g61 || d->_g67;
  802e44:	e0bffc17 	ldw	r2,-16(fp)
  802e48:	108028c3 	ldbu	r2,163(r2)
  802e4c:	10803fcc 	andi	r2,r2,255
  802e50:	1080201c 	xori	r2,r2,128
  802e54:	10bfe004 	addi	r2,r2,-128
  802e58:	1000061e 	bne	r2,zero,802e74 <logic+0x2640>
  802e5c:	e0bffc17 	ldw	r2,-16(fp)
  802e60:	108029c3 	ldbu	r2,167(r2)
  802e64:	10803fcc 	andi	r2,r2,255
  802e68:	1080201c 	xori	r2,r2,128
  802e6c:	10bfe004 	addi	r2,r2,-128
  802e70:	10000226 	beq	r2,zero,802e7c <logic+0x2648>
  802e74:	00800044 	movi	r2,1
  802e78:	00000106 	br	802e80 <logic+0x264c>
  802e7c:	0005883a 	mov	r2,zero
  802e80:	1007883a 	mov	r3,r2
  802e84:	e0bffc17 	ldw	r2,-16(fp)
  802e88:	10c03045 	stb	r3,193(r2)
  d->_g112 = (d->_g52 || d->_g64) && (d->_g71 || d->_g108) && (d->_g64 || d->_g108);
  802e8c:	e0bffc17 	ldw	r2,-16(fp)
  802e90:	10802743 	ldbu	r2,157(r2)
  802e94:	10803fcc 	andi	r2,r2,255
  802e98:	1080201c 	xori	r2,r2,128
  802e9c:	10bfe004 	addi	r2,r2,-128
  802ea0:	1000061e 	bne	r2,zero,802ebc <logic+0x2688>
  802ea4:	e0bffc17 	ldw	r2,-16(fp)
  802ea8:	10802983 	ldbu	r2,166(r2)
  802eac:	10803fcc 	andi	r2,r2,255
  802eb0:	1080201c 	xori	r2,r2,128
  802eb4:	10bfe004 	addi	r2,r2,-128
  802eb8:	10001a26 	beq	r2,zero,802f24 <logic+0x26f0>
  802ebc:	e0bffc17 	ldw	r2,-16(fp)
  802ec0:	10802a43 	ldbu	r2,169(r2)
  802ec4:	10803fcc 	andi	r2,r2,255
  802ec8:	1080201c 	xori	r2,r2,128
  802ecc:	10bfe004 	addi	r2,r2,-128
  802ed0:	1000061e 	bne	r2,zero,802eec <logic+0x26b8>
  802ed4:	e0bffc17 	ldw	r2,-16(fp)
  802ed8:	10803043 	ldbu	r2,193(r2)
  802edc:	10803fcc 	andi	r2,r2,255
  802ee0:	1080201c 	xori	r2,r2,128
  802ee4:	10bfe004 	addi	r2,r2,-128
  802ee8:	10000e26 	beq	r2,zero,802f24 <logic+0x26f0>
  802eec:	e0bffc17 	ldw	r2,-16(fp)
  802ef0:	10802983 	ldbu	r2,166(r2)
  802ef4:	10803fcc 	andi	r2,r2,255
  802ef8:	1080201c 	xori	r2,r2,128
  802efc:	10bfe004 	addi	r2,r2,-128
  802f00:	1000061e 	bne	r2,zero,802f1c <logic+0x26e8>
  802f04:	e0bffc17 	ldw	r2,-16(fp)
  802f08:	10803043 	ldbu	r2,193(r2)
  802f0c:	10803fcc 	andi	r2,r2,255
  802f10:	1080201c 	xori	r2,r2,128
  802f14:	10bfe004 	addi	r2,r2,-128
  802f18:	10000226 	beq	r2,zero,802f24 <logic+0x26f0>
  802f1c:	00800044 	movi	r2,1
  802f20:	00000106 	br	802f28 <logic+0x26f4>
  802f24:	0005883a 	mov	r2,zero
  802f28:	1007883a 	mov	r3,r2
  802f2c:	e0bffc17 	ldw	r2,-16(fp)
  802f30:	10c03145 	stb	r3,197(r2)
  d->_cg113 = d->_heart2_local__Atrig8;
  802f34:	e0bffc17 	ldw	r2,-16(fp)
  802f38:	10c01c43 	ldbu	r3,113(r2)
  802f3c:	e0bffc17 	ldw	r2,-16(fp)
  802f40:	10c05045 	stb	r3,321(r2)
  d->_g109 = d->_g112 && d->_cg113;
  802f44:	e0bffc17 	ldw	r2,-16(fp)
  802f48:	10803143 	ldbu	r2,197(r2)
  802f4c:	10803fcc 	andi	r2,r2,255
  802f50:	1080201c 	xori	r2,r2,128
  802f54:	10bfe004 	addi	r2,r2,-128
  802f58:	10000826 	beq	r2,zero,802f7c <logic+0x2748>
  802f5c:	e0bffc17 	ldw	r2,-16(fp)
  802f60:	10805043 	ldbu	r2,321(r2)
  802f64:	10803fcc 	andi	r2,r2,255
  802f68:	1080201c 	xori	r2,r2,128
  802f6c:	10bfe004 	addi	r2,r2,-128
  802f70:	10000226 	beq	r2,zero,802f7c <logic+0x2748>
  802f74:	00800044 	movi	r2,1
  802f78:	00000106 	br	802f80 <logic+0x274c>
  802f7c:	0005883a 	mov	r2,zero
  802f80:	1007883a 	mov	r3,r2
  802f84:	e0bffc17 	ldw	r2,-16(fp)
  802f88:	10c03085 	stb	r3,194(r2)
  if (d->_g109) {
  802f8c:	e0bffc17 	ldw	r2,-16(fp)
  802f90:	10803083 	ldbu	r2,194(r2)
  802f94:	10803fcc 	andi	r2,r2,255
  802f98:	1080201c 	xori	r2,r2,128
  802f9c:	10bfe004 	addi	r2,r2,-128
  802fa0:	10000326 	beq	r2,zero,802fb0 <logic+0x277c>
    d->_region2_null_VRP = 0;
  802fa4:	e0bffc17 	ldw	r2,-16(fp)
  802fa8:	10000b15 	stw	zero,44(r2)
  802fac:	10000c15 	stw	zero,48(r2)
  }
  d->_g105_e1 = d->_pg88;
  802fb0:	e0bffc17 	ldw	r2,-16(fp)
  802fb4:	10c06783 	ldbu	r3,414(r2)
  802fb8:	e0bffc17 	ldw	r2,-16(fp)
  802fbc:	10c05f45 	stb	r3,381(r2)
  if (d->_g105_e1) {
  802fc0:	e0bffc17 	ldw	r2,-16(fp)
  802fc4:	10805f43 	ldbu	r2,381(r2)
  802fc8:	10803fcc 	andi	r2,r2,255
  802fcc:	1080201c 	xori	r2,r2,128
  802fd0:	10bfe004 	addi	r2,r2,-128
  802fd4:	10001226 	beq	r2,zero,803020 <logic+0x27ec>
    d->_region2_null_VRP += d->deltaT;
  802fd8:	e13ffc17 	ldw	r4,-16(fp)
  802fdc:	20800b17 	ldw	r2,44(r4)
  802fe0:	20c00c17 	ldw	r3,48(r4)
  802fe4:	e1bffc17 	ldw	r6,-16(fp)
  802fe8:	31001317 	ldw	r4,76(r6)
  802fec:	31401417 	ldw	r5,80(r6)
  802ff0:	200d883a 	mov	r6,r4
  802ff4:	280f883a 	mov	r7,r5
  802ff8:	1009883a 	mov	r4,r2
  802ffc:	180b883a 	mov	r5,r3
  803000:	08079680 	call	807968 <__adddf3>
  803004:	1009883a 	mov	r4,r2
  803008:	180b883a 	mov	r5,r3
  80300c:	2005883a 	mov	r2,r4
  803010:	2807883a 	mov	r3,r5
  803014:	e13ffc17 	ldw	r4,-16(fp)
  803018:	20800b15 	stw	r2,44(r4)
  80301c:	20c00c15 	stw	r3,48(r4)
  }
  d->_g110 = !d->_g105_e1;
  803020:	e0bffc17 	ldw	r2,-16(fp)
  803024:	10805f43 	ldbu	r2,381(r2)
  803028:	10803fcc 	andi	r2,r2,255
  80302c:	1080201c 	xori	r2,r2,128
  803030:	10bfe004 	addi	r2,r2,-128
  803034:	1005003a 	cmpeq	r2,r2,zero
  803038:	1007883a 	mov	r3,r2
  80303c:	e0bffc17 	ldw	r2,-16(fp)
  803040:	10c030c5 	stb	r3,195(r2)
  d->_g105 = d->_pg114;
  803044:	e0bffc17 	ldw	r2,-16(fp)
  803048:	10c067c3 	ldbu	r3,415(r2)
  80304c:	e0bffc17 	ldw	r2,-16(fp)
  803050:	10c03005 	stb	r3,192(r2)
  d->_cg95 = d->_region2_null_VRP >= d->VRP_time;
  803054:	e0bffc17 	ldw	r2,-16(fp)
  803058:	14000b17 	ldw	r16,44(r2)
  80305c:	14400c17 	ldw	r17,48(r2)
  803060:	e0bffc17 	ldw	r2,-16(fp)
  803064:	10800017 	ldw	r2,0(r2)
  803068:	1009883a 	mov	r4,r2
  80306c:	0808ce00 	call	808ce0 <__floatsidf>
  803070:	1009883a 	mov	r4,r2
  803074:	180b883a 	mov	r5,r3
  803078:	04800044 	movi	r18,1
  80307c:	200d883a 	mov	r6,r4
  803080:	280f883a 	mov	r7,r5
  803084:	8009883a 	mov	r4,r16
  803088:	880b883a 	mov	r5,r17
  80308c:	08082140 	call	808214 <__gedf2>
  803090:	1000010e 	bge	r2,zero,803098 <logic+0x2864>
  803094:	0025883a 	mov	r18,zero
  803098:	9007883a 	mov	r3,r18
  80309c:	e0bffc17 	ldw	r2,-16(fp)
  8030a0:	10c04ec5 	stb	r3,315(r2)
  d->_g110_e2 = d->_g105 && d->_cg95;
  8030a4:	e0bffc17 	ldw	r2,-16(fp)
  8030a8:	10803003 	ldbu	r2,192(r2)
  8030ac:	10803fcc 	andi	r2,r2,255
  8030b0:	1080201c 	xori	r2,r2,128
  8030b4:	10bfe004 	addi	r2,r2,-128
  8030b8:	10000826 	beq	r2,zero,8030dc <logic+0x28a8>
  8030bc:	e0bffc17 	ldw	r2,-16(fp)
  8030c0:	10804ec3 	ldbu	r2,315(r2)
  8030c4:	10803fcc 	andi	r2,r2,255
  8030c8:	1080201c 	xori	r2,r2,128
  8030cc:	10bfe004 	addi	r2,r2,-128
  8030d0:	10000226 	beq	r2,zero,8030dc <logic+0x28a8>
  8030d4:	00800044 	movi	r2,1
  8030d8:	00000106 	br	8030e0 <logic+0x28ac>
  8030dc:	0005883a 	mov	r2,zero
  8030e0:	1007883a 	mov	r3,r2
  8030e4:	e0bffc17 	ldw	r2,-16(fp)
  8030e8:	10c05f85 	stb	r3,382(r2)
  if (d->_g110_e2) {
  8030ec:	e0bffc17 	ldw	r2,-16(fp)
  8030f0:	10805f83 	ldbu	r2,382(r2)
  8030f4:	10803fcc 	andi	r2,r2,255
  8030f8:	1080201c 	xori	r2,r2,128
  8030fc:	10bfe004 	addi	r2,r2,-128
  803100:	10000326 	beq	r2,zero,803110 <logic+0x28dc>
    d->_heart2_local__Atrig6 = 1;
  803104:	e0bffc17 	ldw	r2,-16(fp)
  803108:	00c00044 	movi	r3,1
  80310c:	10c01bc5 	stb	r3,111(r2)
  }
  d->_g98 = d->_g105 && !d->_cg95;
  803110:	e0bffc17 	ldw	r2,-16(fp)
  803114:	10803003 	ldbu	r2,192(r2)
  803118:	10803fcc 	andi	r2,r2,255
  80311c:	1080201c 	xori	r2,r2,128
  803120:	10bfe004 	addi	r2,r2,-128
  803124:	10000826 	beq	r2,zero,803148 <logic+0x2914>
  803128:	e0bffc17 	ldw	r2,-16(fp)
  80312c:	10804ec3 	ldbu	r2,315(r2)
  803130:	10803fcc 	andi	r2,r2,255
  803134:	1080201c 	xori	r2,r2,128
  803138:	10bfe004 	addi	r2,r2,-128
  80313c:	1000021e 	bne	r2,zero,803148 <logic+0x2914>
  803140:	00800044 	movi	r2,1
  803144:	00000106 	br	80314c <logic+0x2918>
  803148:	0005883a 	mov	r2,zero
  80314c:	1007883a 	mov	r3,r2
  803150:	e0bffc17 	ldw	r2,-16(fp)
  803154:	10c02ec5 	stb	r3,187(r2)
  d->_g99 = d->_g98 && d->VS;
  803158:	e0bffc17 	ldw	r2,-16(fp)
  80315c:	10802ec3 	ldbu	r2,187(r2)
  803160:	10803fcc 	andi	r2,r2,255
  803164:	1080201c 	xori	r2,r2,128
  803168:	10bfe004 	addi	r2,r2,-128
  80316c:	10000826 	beq	r2,zero,803190 <logic+0x295c>
  803170:	e0bffc17 	ldw	r2,-16(fp)
  803174:	10801743 	ldbu	r2,93(r2)
  803178:	10803fcc 	andi	r2,r2,255
  80317c:	1080201c 	xori	r2,r2,128
  803180:	10bfe004 	addi	r2,r2,-128
  803184:	10000226 	beq	r2,zero,803190 <logic+0x295c>
  803188:	00800044 	movi	r2,1
  80318c:	00000106 	br	803194 <logic+0x2960>
  803190:	0005883a 	mov	r2,zero
  803194:	1007883a 	mov	r3,r2
  803198:	e0bffc17 	ldw	r2,-16(fp)
  80319c:	10c02f05 	stb	r3,188(r2)
  if (d->_g99) {
  8031a0:	e0bffc17 	ldw	r2,-16(fp)
  8031a4:	10802f03 	ldbu	r2,188(r2)
  8031a8:	10803fcc 	andi	r2,r2,255
  8031ac:	1080201c 	xori	r2,r2,128
  8031b0:	10bfe004 	addi	r2,r2,-128
  8031b4:	10000326 	beq	r2,zero,8031c4 <logic+0x2990>
    d->_heart2_local__Atrig7 = 1;
  8031b8:	e0bffc17 	ldw	r2,-16(fp)
  8031bc:	00c00044 	movi	r3,1
  8031c0:	10c01c05 	stb	r3,112(r2)
  }
  d->_cg80 = d->_heart2_local__Atrig6 || d->_heart2_local__Atrig7;
  8031c4:	e0bffc17 	ldw	r2,-16(fp)
  8031c8:	10801bc3 	ldbu	r2,111(r2)
  8031cc:	10803fcc 	andi	r2,r2,255
  8031d0:	1080201c 	xori	r2,r2,128
  8031d4:	10bfe004 	addi	r2,r2,-128
  8031d8:	1000061e 	bne	r2,zero,8031f4 <logic+0x29c0>
  8031dc:	e0bffc17 	ldw	r2,-16(fp)
  8031e0:	10801c03 	ldbu	r2,112(r2)
  8031e4:	10803fcc 	andi	r2,r2,255
  8031e8:	1080201c 	xori	r2,r2,128
  8031ec:	10bfe004 	addi	r2,r2,-128
  8031f0:	10000226 	beq	r2,zero,8031fc <logic+0x29c8>
  8031f4:	00800044 	movi	r2,1
  8031f8:	00000106 	br	803200 <logic+0x29cc>
  8031fc:	0005883a 	mov	r2,zero
  803200:	1007883a 	mov	r3,r2
  803204:	e0bffc17 	ldw	r2,-16(fp)
  803208:	10c04cc5 	stb	r3,307(r2)
  d->_g81 = d->_g105_e1 && d->_cg80;
  80320c:	e0bffc17 	ldw	r2,-16(fp)
  803210:	10805f43 	ldbu	r2,381(r2)
  803214:	10803fcc 	andi	r2,r2,255
  803218:	1080201c 	xori	r2,r2,128
  80321c:	10bfe004 	addi	r2,r2,-128
  803220:	10000826 	beq	r2,zero,803244 <logic+0x2a10>
  803224:	e0bffc17 	ldw	r2,-16(fp)
  803228:	10804cc3 	ldbu	r2,307(r2)
  80322c:	10803fcc 	andi	r2,r2,255
  803230:	1080201c 	xori	r2,r2,128
  803234:	10bfe004 	addi	r2,r2,-128
  803238:	10000226 	beq	r2,zero,803244 <logic+0x2a10>
  80323c:	00800044 	movi	r2,1
  803240:	00000106 	br	803248 <logic+0x2a14>
  803244:	0005883a 	mov	r2,zero
  803248:	1007883a 	mov	r3,r2
  80324c:	e0bffc17 	ldw	r2,-16(fp)
  803250:	10c02bc5 	stb	r3,175(r2)
  d->_g91 = d->_pg116;
  803254:	e0bffc17 	ldw	r2,-16(fp)
  803258:	10c06803 	ldbu	r3,416(r2)
  80325c:	e0bffc17 	ldw	r2,-16(fp)
  803260:	10c02d85 	stb	r3,182(r2)
  d->_g85 = d->_pg97_e3;
  803264:	e0bffc17 	ldw	r2,-16(fp)
  803268:	10c06843 	ldbu	r3,417(r2)
  80326c:	e0bffc17 	ldw	r2,-16(fp)
  803270:	10c02c45 	stb	r3,177(r2)
  d->_g88_e2 = !(d->_g91 || d->_g85);
  803274:	e0bffc17 	ldw	r2,-16(fp)
  803278:	10802d83 	ldbu	r2,182(r2)
  80327c:	10803fcc 	andi	r2,r2,255
  803280:	1080201c 	xori	r2,r2,128
  803284:	10bfe004 	addi	r2,r2,-128
  803288:	1000081e 	bne	r2,zero,8032ac <logic+0x2a78>
  80328c:	e0bffc17 	ldw	r2,-16(fp)
  803290:	10802c43 	ldbu	r2,177(r2)
  803294:	10803fcc 	andi	r2,r2,255
  803298:	1080201c 	xori	r2,r2,128
  80329c:	10bfe004 	addi	r2,r2,-128
  8032a0:	1000021e 	bne	r2,zero,8032ac <logic+0x2a78>
  8032a4:	00800044 	movi	r2,1
  8032a8:	00000106 	br	8032b0 <logic+0x2a7c>
  8032ac:	0005883a 	mov	r2,zero
  8032b0:	1007883a 	mov	r3,r2
  8032b4:	e0bffc17 	ldw	r2,-16(fp)
  8032b8:	10c05ec5 	stb	r3,379(r2)
  d->_g91 = d->_g85 || d->_g91;
  8032bc:	e0bffc17 	ldw	r2,-16(fp)
  8032c0:	10802c43 	ldbu	r2,177(r2)
  8032c4:	10803fcc 	andi	r2,r2,255
  8032c8:	1080201c 	xori	r2,r2,128
  8032cc:	10bfe004 	addi	r2,r2,-128
  8032d0:	1000061e 	bne	r2,zero,8032ec <logic+0x2ab8>
  8032d4:	e0bffc17 	ldw	r2,-16(fp)
  8032d8:	10802d83 	ldbu	r2,182(r2)
  8032dc:	10803fcc 	andi	r2,r2,255
  8032e0:	1080201c 	xori	r2,r2,128
  8032e4:	10bfe004 	addi	r2,r2,-128
  8032e8:	10000226 	beq	r2,zero,8032f4 <logic+0x2ac0>
  8032ec:	00800044 	movi	r2,1
  8032f0:	00000106 	br	8032f8 <logic+0x2ac4>
  8032f4:	0005883a 	mov	r2,zero
  8032f8:	1007883a 	mov	r3,r2
  8032fc:	e0bffc17 	ldw	r2,-16(fp)
  803300:	10c02d85 	stb	r3,182(r2)
  d->_cg86 = d->_region2_null_VRP < d->VRP_time;
  803304:	e0bffc17 	ldw	r2,-16(fp)
  803308:	14000b17 	ldw	r16,44(r2)
  80330c:	14400c17 	ldw	r17,48(r2)
  803310:	e0bffc17 	ldw	r2,-16(fp)
  803314:	10800017 	ldw	r2,0(r2)
  803318:	1009883a 	mov	r4,r2
  80331c:	0808ce00 	call	808ce0 <__floatsidf>
  803320:	1009883a 	mov	r4,r2
  803324:	180b883a 	mov	r5,r3
  803328:	04800044 	movi	r18,1
  80332c:	200d883a 	mov	r6,r4
  803330:	280f883a 	mov	r7,r5
  803334:	8009883a 	mov	r4,r16
  803338:	880b883a 	mov	r5,r17
  80333c:	08082f00 	call	8082f0 <__ledf2>
  803340:	10000116 	blt	r2,zero,803348 <logic+0x2b14>
  803344:	0025883a 	mov	r18,zero
  803348:	9007883a 	mov	r3,r18
  80334c:	e0bffc17 	ldw	r2,-16(fp)
  803350:	10c04dc5 	stb	r3,311(r2)
  d->_g85 = d->_g91 && d->_cg86;
  803354:	e0bffc17 	ldw	r2,-16(fp)
  803358:	10802d83 	ldbu	r2,182(r2)
  80335c:	10803fcc 	andi	r2,r2,255
  803360:	1080201c 	xori	r2,r2,128
  803364:	10bfe004 	addi	r2,r2,-128
  803368:	10000826 	beq	r2,zero,80338c <logic+0x2b58>
  80336c:	e0bffc17 	ldw	r2,-16(fp)
  803370:	10804dc3 	ldbu	r2,311(r2)
  803374:	10803fcc 	andi	r2,r2,255
  803378:	1080201c 	xori	r2,r2,128
  80337c:	10bfe004 	addi	r2,r2,-128
  803380:	10000226 	beq	r2,zero,80338c <logic+0x2b58>
  803384:	00800044 	movi	r2,1
  803388:	00000106 	br	803390 <logic+0x2b5c>
  80338c:	0005883a 	mov	r2,zero
  803390:	1007883a 	mov	r3,r2
  803394:	e0bffc17 	ldw	r2,-16(fp)
  803398:	10c02c45 	stb	r3,177(r2)
  if (d->_g85) {
  80339c:	e0bffc17 	ldw	r2,-16(fp)
  8033a0:	10802c43 	ldbu	r2,177(r2)
  8033a4:	10803fcc 	andi	r2,r2,255
  8033a8:	1080201c 	xori	r2,r2,128
  8033ac:	10bfe004 	addi	r2,r2,-128
  8033b0:	10003426 	beq	r2,zero,803484 <logic+0x2c50>
    d->sleepT = (d->sleepT < (d->VRP_time - d->_region2_null_VRP)) ? d->sleepT : (d->VRP_time - d->_region2_null_VRP);
  8033b4:	e0bffc17 	ldw	r2,-16(fp)
  8033b8:	14001517 	ldw	r16,84(r2)
  8033bc:	14401617 	ldw	r17,88(r2)
  8033c0:	e0bffc17 	ldw	r2,-16(fp)
  8033c4:	10800017 	ldw	r2,0(r2)
  8033c8:	1009883a 	mov	r4,r2
  8033cc:	0808ce00 	call	808ce0 <__floatsidf>
  8033d0:	1011883a 	mov	r8,r2
  8033d4:	1813883a 	mov	r9,r3
  8033d8:	e13ffc17 	ldw	r4,-16(fp)
  8033dc:	20800b17 	ldw	r2,44(r4)
  8033e0:	20c00c17 	ldw	r3,48(r4)
  8033e4:	100d883a 	mov	r6,r2
  8033e8:	180f883a 	mov	r7,r3
  8033ec:	4009883a 	mov	r4,r8
  8033f0:	480b883a 	mov	r5,r9
  8033f4:	08083e40 	call	8083e4 <__subdf3>
  8033f8:	1009883a 	mov	r4,r2
  8033fc:	180b883a 	mov	r5,r3
  803400:	2005883a 	mov	r2,r4
  803404:	2807883a 	mov	r3,r5
  803408:	100d883a 	mov	r6,r2
  80340c:	180f883a 	mov	r7,r3
  803410:	8009883a 	mov	r4,r16
  803414:	880b883a 	mov	r5,r17
  803418:	08082f00 	call	8082f0 <__ledf2>
  80341c:	1000040e 	bge	r2,zero,803430 <logic+0x2bfc>
  803420:	e13ffc17 	ldw	r4,-16(fp)
  803424:	20801517 	ldw	r2,84(r4)
  803428:	20c01617 	ldw	r3,88(r4)
  80342c:	00001206 	br	803478 <logic+0x2c44>
  803430:	e0bffc17 	ldw	r2,-16(fp)
  803434:	10800017 	ldw	r2,0(r2)
  803438:	1009883a 	mov	r4,r2
  80343c:	0808ce00 	call	808ce0 <__floatsidf>
  803440:	1011883a 	mov	r8,r2
  803444:	1813883a 	mov	r9,r3
  803448:	e13ffc17 	ldw	r4,-16(fp)
  80344c:	20800b17 	ldw	r2,44(r4)
  803450:	20c00c17 	ldw	r3,48(r4)
  803454:	100d883a 	mov	r6,r2
  803458:	180f883a 	mov	r7,r3
  80345c:	4009883a 	mov	r4,r8
  803460:	480b883a 	mov	r5,r9
  803464:	08083e40 	call	8083e4 <__subdf3>
  803468:	1009883a 	mov	r4,r2
  80346c:	180b883a 	mov	r5,r3
  803470:	2005883a 	mov	r2,r4
  803474:	2807883a 	mov	r3,r5
  803478:	e13ffc17 	ldw	r4,-16(fp)
  80347c:	20801515 	stw	r2,84(r4)
  803480:	20c01615 	stw	r3,88(r4)
  }
  d->_cg87 = d->_heart2_local__Atrig6 || d->_heart2_local__Atrig7;
  803484:	e0bffc17 	ldw	r2,-16(fp)
  803488:	10801bc3 	ldbu	r2,111(r2)
  80348c:	10803fcc 	andi	r2,r2,255
  803490:	1080201c 	xori	r2,r2,128
  803494:	10bfe004 	addi	r2,r2,-128
  803498:	1000061e 	bne	r2,zero,8034b4 <logic+0x2c80>
  80349c:	e0bffc17 	ldw	r2,-16(fp)
  8034a0:	10801c03 	ldbu	r2,112(r2)
  8034a4:	10803fcc 	andi	r2,r2,255
  8034a8:	1080201c 	xori	r2,r2,128
  8034ac:	10bfe004 	addi	r2,r2,-128
  8034b0:	10000226 	beq	r2,zero,8034bc <logic+0x2c88>
  8034b4:	00800044 	movi	r2,1
  8034b8:	00000106 	br	8034c0 <logic+0x2c8c>
  8034bc:	0005883a 	mov	r2,zero
  8034c0:	1007883a 	mov	r3,r2
  8034c4:	e0bffc17 	ldw	r2,-16(fp)
  8034c8:	10c04d85 	stb	r3,310(r2)
  d->_g86 = d->_g91 && !d->_cg86;
  8034cc:	e0bffc17 	ldw	r2,-16(fp)
  8034d0:	10802d83 	ldbu	r2,182(r2)
  8034d4:	10803fcc 	andi	r2,r2,255
  8034d8:	1080201c 	xori	r2,r2,128
  8034dc:	10bfe004 	addi	r2,r2,-128
  8034e0:	10000826 	beq	r2,zero,803504 <logic+0x2cd0>
  8034e4:	e0bffc17 	ldw	r2,-16(fp)
  8034e8:	10804dc3 	ldbu	r2,311(r2)
  8034ec:	10803fcc 	andi	r2,r2,255
  8034f0:	1080201c 	xori	r2,r2,128
  8034f4:	10bfe004 	addi	r2,r2,-128
  8034f8:	1000021e 	bne	r2,zero,803504 <logic+0x2cd0>
  8034fc:	00800044 	movi	r2,1
  803500:	00000106 	br	803508 <logic+0x2cd4>
  803504:	0005883a 	mov	r2,zero
  803508:	1007883a 	mov	r3,r2
  80350c:	e0bffc17 	ldw	r2,-16(fp)
  803510:	10c02c85 	stb	r3,178(r2)
  d->_cg89 = d->_heart2_local__Atrig6 || d->_heart2_local__Atrig7;
  803514:	e0bffc17 	ldw	r2,-16(fp)
  803518:	10801bc3 	ldbu	r2,111(r2)
  80351c:	10803fcc 	andi	r2,r2,255
  803520:	1080201c 	xori	r2,r2,128
  803524:	10bfe004 	addi	r2,r2,-128
  803528:	1000061e 	bne	r2,zero,803544 <logic+0x2d10>
  80352c:	e0bffc17 	ldw	r2,-16(fp)
  803530:	10801c03 	ldbu	r2,112(r2)
  803534:	10803fcc 	andi	r2,r2,255
  803538:	1080201c 	xori	r2,r2,128
  80353c:	10bfe004 	addi	r2,r2,-128
  803540:	10000226 	beq	r2,zero,80354c <logic+0x2d18>
  803544:	00800044 	movi	r2,1
  803548:	00000106 	br	803550 <logic+0x2d1c>
  80354c:	0005883a 	mov	r2,zero
  803550:	1007883a 	mov	r3,r2
  803554:	e0bffc17 	ldw	r2,-16(fp)
  803558:	10c04e05 	stb	r3,312(r2)
  d->_g88 = d->_g85 && d->_cg87 || d->_g86 && d->_cg89;
  80355c:	e0bffc17 	ldw	r2,-16(fp)
  803560:	10802c43 	ldbu	r2,177(r2)
  803564:	10803fcc 	andi	r2,r2,255
  803568:	1080201c 	xori	r2,r2,128
  80356c:	10bfe004 	addi	r2,r2,-128
  803570:	10000626 	beq	r2,zero,80358c <logic+0x2d58>
  803574:	e0bffc17 	ldw	r2,-16(fp)
  803578:	10804d83 	ldbu	r2,310(r2)
  80357c:	10803fcc 	andi	r2,r2,255
  803580:	1080201c 	xori	r2,r2,128
  803584:	10bfe004 	addi	r2,r2,-128
  803588:	10000c1e 	bne	r2,zero,8035bc <logic+0x2d88>
  80358c:	e0bffc17 	ldw	r2,-16(fp)
  803590:	10802c83 	ldbu	r2,178(r2)
  803594:	10803fcc 	andi	r2,r2,255
  803598:	1080201c 	xori	r2,r2,128
  80359c:	10bfe004 	addi	r2,r2,-128
  8035a0:	10000826 	beq	r2,zero,8035c4 <logic+0x2d90>
  8035a4:	e0bffc17 	ldw	r2,-16(fp)
  8035a8:	10804e03 	ldbu	r2,312(r2)
  8035ac:	10803fcc 	andi	r2,r2,255
  8035b0:	1080201c 	xori	r2,r2,128
  8035b4:	10bfe004 	addi	r2,r2,-128
  8035b8:	10000226 	beq	r2,zero,8035c4 <logic+0x2d90>
  8035bc:	00800044 	movi	r2,1
  8035c0:	00000106 	br	8035c8 <logic+0x2d94>
  8035c4:	0005883a 	mov	r2,zero
  8035c8:	1007883a 	mov	r3,r2
  8035cc:	e0bffc17 	ldw	r2,-16(fp)
  8035d0:	10c02d05 	stb	r3,180(r2)
  d->_g95 = !d->_g105;
  8035d4:	e0bffc17 	ldw	r2,-16(fp)
  8035d8:	10803003 	ldbu	r2,192(r2)
  8035dc:	10803fcc 	andi	r2,r2,255
  8035e0:	1080201c 	xori	r2,r2,128
  8035e4:	10bfe004 	addi	r2,r2,-128
  8035e8:	1005003a 	cmpeq	r2,r2,zero
  8035ec:	1007883a 	mov	r3,r2
  8035f0:	e0bffc17 	ldw	r2,-16(fp)
  8035f4:	10c02e05 	stb	r3,184(r2)
  d->_g99 = d->_g110_e2 || d->_g99;
  8035f8:	e0bffc17 	ldw	r2,-16(fp)
  8035fc:	10805f83 	ldbu	r2,382(r2)
  803600:	10803fcc 	andi	r2,r2,255
  803604:	1080201c 	xori	r2,r2,128
  803608:	10bfe004 	addi	r2,r2,-128
  80360c:	1000061e 	bne	r2,zero,803628 <logic+0x2df4>
  803610:	e0bffc17 	ldw	r2,-16(fp)
  803614:	10802f03 	ldbu	r2,188(r2)
  803618:	10803fcc 	andi	r2,r2,255
  80361c:	1080201c 	xori	r2,r2,128
  803620:	10bfe004 	addi	r2,r2,-128
  803624:	10000226 	beq	r2,zero,803630 <logic+0x2dfc>
  803628:	00800044 	movi	r2,1
  80362c:	00000106 	br	803634 <logic+0x2e00>
  803630:	0005883a 	mov	r2,zero
  803634:	1007883a 	mov	r3,r2
  803638:	e0bffc17 	ldw	r2,-16(fp)
  80363c:	10c02f05 	stb	r3,188(r2)
  d->_g96 = (d->_g110 || d->_g81) && (d->_g88_e2 || d->_g88) && (d->_g95 || d->_g99) && (d->_g81 || d->_g88 || d->_g99);
  803640:	e0bffc17 	ldw	r2,-16(fp)
  803644:	108030c3 	ldbu	r2,195(r2)
  803648:	10803fcc 	andi	r2,r2,255
  80364c:	1080201c 	xori	r2,r2,128
  803650:	10bfe004 	addi	r2,r2,-128
  803654:	1000061e 	bne	r2,zero,803670 <logic+0x2e3c>
  803658:	e0bffc17 	ldw	r2,-16(fp)
  80365c:	10802bc3 	ldbu	r2,175(r2)
  803660:	10803fcc 	andi	r2,r2,255
  803664:	1080201c 	xori	r2,r2,128
  803668:	10bfe004 	addi	r2,r2,-128
  80366c:	10002c26 	beq	r2,zero,803720 <logic+0x2eec>
  803670:	e0bffc17 	ldw	r2,-16(fp)
  803674:	10805ec3 	ldbu	r2,379(r2)
  803678:	10803fcc 	andi	r2,r2,255
  80367c:	1080201c 	xori	r2,r2,128
  803680:	10bfe004 	addi	r2,r2,-128
  803684:	1000061e 	bne	r2,zero,8036a0 <logic+0x2e6c>
  803688:	e0bffc17 	ldw	r2,-16(fp)
  80368c:	10802d03 	ldbu	r2,180(r2)
  803690:	10803fcc 	andi	r2,r2,255
  803694:	1080201c 	xori	r2,r2,128
  803698:	10bfe004 	addi	r2,r2,-128
  80369c:	10002026 	beq	r2,zero,803720 <logic+0x2eec>
  8036a0:	e0bffc17 	ldw	r2,-16(fp)
  8036a4:	10802e03 	ldbu	r2,184(r2)
  8036a8:	10803fcc 	andi	r2,r2,255
  8036ac:	1080201c 	xori	r2,r2,128
  8036b0:	10bfe004 	addi	r2,r2,-128
  8036b4:	1000061e 	bne	r2,zero,8036d0 <logic+0x2e9c>
  8036b8:	e0bffc17 	ldw	r2,-16(fp)
  8036bc:	10802f03 	ldbu	r2,188(r2)
  8036c0:	10803fcc 	andi	r2,r2,255
  8036c4:	1080201c 	xori	r2,r2,128
  8036c8:	10bfe004 	addi	r2,r2,-128
  8036cc:	10001426 	beq	r2,zero,803720 <logic+0x2eec>
  8036d0:	e0bffc17 	ldw	r2,-16(fp)
  8036d4:	10802bc3 	ldbu	r2,175(r2)
  8036d8:	10803fcc 	andi	r2,r2,255
  8036dc:	1080201c 	xori	r2,r2,128
  8036e0:	10bfe004 	addi	r2,r2,-128
  8036e4:	10000c1e 	bne	r2,zero,803718 <logic+0x2ee4>
  8036e8:	e0bffc17 	ldw	r2,-16(fp)
  8036ec:	10802d03 	ldbu	r2,180(r2)
  8036f0:	10803fcc 	andi	r2,r2,255
  8036f4:	1080201c 	xori	r2,r2,128
  8036f8:	10bfe004 	addi	r2,r2,-128
  8036fc:	1000061e 	bne	r2,zero,803718 <logic+0x2ee4>
  803700:	e0bffc17 	ldw	r2,-16(fp)
  803704:	10802f03 	ldbu	r2,188(r2)
  803708:	10803fcc 	andi	r2,r2,255
  80370c:	1080201c 	xori	r2,r2,128
  803710:	10bfe004 	addi	r2,r2,-128
  803714:	10000226 	beq	r2,zero,803720 <logic+0x2eec>
  803718:	00800044 	movi	r2,1
  80371c:	00000106 	br	803724 <logic+0x2ef0>
  803720:	0005883a 	mov	r2,zero
  803724:	1007883a 	mov	r3,r2
  803728:	e0bffc17 	ldw	r2,-16(fp)
  80372c:	10c02e45 	stb	r3,185(r2)
  d->_cg100 = d->_heart2_local__Atrig6;
  803730:	e0bffc17 	ldw	r2,-16(fp)
  803734:	10c01bc3 	ldbu	r3,111(r2)
  803738:	e0bffc17 	ldw	r2,-16(fp)
  80373c:	10c04f05 	stb	r3,316(r2)
  d->_g81_e1 = d->_g96 && !d->_cg100;
  803740:	e0bffc17 	ldw	r2,-16(fp)
  803744:	10802e43 	ldbu	r2,185(r2)
  803748:	10803fcc 	andi	r2,r2,255
  80374c:	1080201c 	xori	r2,r2,128
  803750:	10bfe004 	addi	r2,r2,-128
  803754:	10000826 	beq	r2,zero,803778 <logic+0x2f44>
  803758:	e0bffc17 	ldw	r2,-16(fp)
  80375c:	10804f03 	ldbu	r2,316(r2)
  803760:	10803fcc 	andi	r2,r2,255
  803764:	1080201c 	xori	r2,r2,128
  803768:	10bfe004 	addi	r2,r2,-128
  80376c:	1000021e 	bne	r2,zero,803778 <logic+0x2f44>
  803770:	00800044 	movi	r2,1
  803774:	00000106 	br	80377c <logic+0x2f48>
  803778:	0005883a 	mov	r2,zero
  80377c:	1007883a 	mov	r3,r2
  803780:	e0bffc17 	ldw	r2,-16(fp)
  803784:	10c05e85 	stb	r3,378(r2)
  if (d->_g81_e1) {
  803788:	e0bffc17 	ldw	r2,-16(fp)
  80378c:	10805e83 	ldbu	r2,378(r2)
  803790:	10803fcc 	andi	r2,r2,255
  803794:	1080201c 	xori	r2,r2,128
  803798:	10bfe004 	addi	r2,r2,-128
  80379c:	10000626 	beq	r2,zero,8037b8 <logic+0x2f84>
    d->VR |= 1;
  8037a0:	e0bffc17 	ldw	r2,-16(fp)
  8037a4:	10801803 	ldbu	r2,96(r2)
  8037a8:	10800054 	ori	r2,r2,1
  8037ac:	1007883a 	mov	r3,r2
  8037b0:	e0bffc17 	ldw	r2,-16(fp)
  8037b4:	10c01805 	stb	r3,96(r2)
  }
  d->_g97 = d->_GO || d->_g109 || d->_g81_e1;
  8037b8:	e0bffc17 	ldw	r2,-16(fp)
  8037bc:	10804543 	ldbu	r2,277(r2)
  8037c0:	10803fcc 	andi	r2,r2,255
  8037c4:	1080201c 	xori	r2,r2,128
  8037c8:	10bfe004 	addi	r2,r2,-128
  8037cc:	10000c1e 	bne	r2,zero,803800 <logic+0x2fcc>
  8037d0:	e0bffc17 	ldw	r2,-16(fp)
  8037d4:	10803083 	ldbu	r2,194(r2)
  8037d8:	10803fcc 	andi	r2,r2,255
  8037dc:	1080201c 	xori	r2,r2,128
  8037e0:	10bfe004 	addi	r2,r2,-128
  8037e4:	1000061e 	bne	r2,zero,803800 <logic+0x2fcc>
  8037e8:	e0bffc17 	ldw	r2,-16(fp)
  8037ec:	10805e83 	ldbu	r2,378(r2)
  8037f0:	10803fcc 	andi	r2,r2,255
  8037f4:	1080201c 	xori	r2,r2,128
  8037f8:	10bfe004 	addi	r2,r2,-128
  8037fc:	10000226 	beq	r2,zero,803808 <logic+0x2fd4>
  803800:	00800044 	movi	r2,1
  803804:	00000106 	br	80380c <logic+0x2fd8>
  803808:	0005883a 	mov	r2,zero
  80380c:	1007883a 	mov	r3,r2
  803810:	e0bffc17 	ldw	r2,-16(fp)
  803814:	10c02e85 	stb	r3,186(r2)
  if (d->_g97) {
  803818:	e0bffc17 	ldw	r2,-16(fp)
  80381c:	10802e83 	ldbu	r2,186(r2)
  803820:	10803fcc 	andi	r2,r2,255
  803824:	1080201c 	xori	r2,r2,128
  803828:	10bfe004 	addi	r2,r2,-128
  80382c:	10000426 	beq	r2,zero,803840 <logic+0x300c>
    d->_heart2_local__Atrig6 = 0;
  803830:	e0bffc17 	ldw	r2,-16(fp)
  803834:	10001bc5 	stb	zero,111(r2)
    d->_heart2_local__Atrig7 = 0;
  803838:	e0bffc17 	ldw	r2,-16(fp)
  80383c:	10001c05 	stb	zero,112(r2)
  }
  d->_cg78 = d->_heart2_local__Atrig6 || d->_heart2_local__Atrig7;
  803840:	e0bffc17 	ldw	r2,-16(fp)
  803844:	10801bc3 	ldbu	r2,111(r2)
  803848:	10803fcc 	andi	r2,r2,255
  80384c:	1080201c 	xori	r2,r2,128
  803850:	10bfe004 	addi	r2,r2,-128
  803854:	1000061e 	bne	r2,zero,803870 <logic+0x303c>
  803858:	e0bffc17 	ldw	r2,-16(fp)
  80385c:	10801c03 	ldbu	r2,112(r2)
  803860:	10803fcc 	andi	r2,r2,255
  803864:	1080201c 	xori	r2,r2,128
  803868:	10bfe004 	addi	r2,r2,-128
  80386c:	10000226 	beq	r2,zero,803878 <logic+0x3044>
  803870:	00800044 	movi	r2,1
  803874:	00000106 	br	80387c <logic+0x3048>
  803878:	0005883a 	mov	r2,zero
  80387c:	1007883a 	mov	r3,r2
  803880:	e0bffc17 	ldw	r2,-16(fp)
  803884:	10c04c85 	stb	r3,306(r2)
  d->_g88 = d->_g97 && !d->_cg78 || d->_g105_e1 && !d->_cg80;
  803888:	e0bffc17 	ldw	r2,-16(fp)
  80388c:	10802e83 	ldbu	r2,186(r2)
  803890:	10803fcc 	andi	r2,r2,255
  803894:	1080201c 	xori	r2,r2,128
  803898:	10bfe004 	addi	r2,r2,-128
  80389c:	10000626 	beq	r2,zero,8038b8 <logic+0x3084>
  8038a0:	e0bffc17 	ldw	r2,-16(fp)
  8038a4:	10804c83 	ldbu	r2,306(r2)
  8038a8:	10803fcc 	andi	r2,r2,255
  8038ac:	1080201c 	xori	r2,r2,128
  8038b0:	10bfe004 	addi	r2,r2,-128
  8038b4:	10000c26 	beq	r2,zero,8038e8 <logic+0x30b4>
  8038b8:	e0bffc17 	ldw	r2,-16(fp)
  8038bc:	10805f43 	ldbu	r2,381(r2)
  8038c0:	10803fcc 	andi	r2,r2,255
  8038c4:	1080201c 	xori	r2,r2,128
  8038c8:	10bfe004 	addi	r2,r2,-128
  8038cc:	10000826 	beq	r2,zero,8038f0 <logic+0x30bc>
  8038d0:	e0bffc17 	ldw	r2,-16(fp)
  8038d4:	10804cc3 	ldbu	r2,307(r2)
  8038d8:	10803fcc 	andi	r2,r2,255
  8038dc:	1080201c 	xori	r2,r2,128
  8038e0:	10bfe004 	addi	r2,r2,-128
  8038e4:	1000021e 	bne	r2,zero,8038f0 <logic+0x30bc>
  8038e8:	00800044 	movi	r2,1
  8038ec:	00000106 	br	8038f4 <logic+0x30c0>
  8038f0:	0005883a 	mov	r2,zero
  8038f4:	1007883a 	mov	r3,r2
  8038f8:	e0bffc17 	ldw	r2,-16(fp)
  8038fc:	10c02d05 	stb	r3,180(r2)
  d->_cg82 = d->_region2_null_VRP < d->VRP_time;
  803900:	e0bffc17 	ldw	r2,-16(fp)
  803904:	14000b17 	ldw	r16,44(r2)
  803908:	14400c17 	ldw	r17,48(r2)
  80390c:	e0bffc17 	ldw	r2,-16(fp)
  803910:	10800017 	ldw	r2,0(r2)
  803914:	1009883a 	mov	r4,r2
  803918:	0808ce00 	call	808ce0 <__floatsidf>
  80391c:	1009883a 	mov	r4,r2
  803920:	180b883a 	mov	r5,r3
  803924:	04800044 	movi	r18,1
  803928:	200d883a 	mov	r6,r4
  80392c:	280f883a 	mov	r7,r5
  803930:	8009883a 	mov	r4,r16
  803934:	880b883a 	mov	r5,r17
  803938:	08082f00 	call	8082f0 <__ledf2>
  80393c:	10000116 	blt	r2,zero,803944 <logic+0x3110>
  803940:	0025883a 	mov	r18,zero
  803944:	9007883a 	mov	r3,r18
  803948:	e0bffc17 	ldw	r2,-16(fp)
  80394c:	10c04d05 	stb	r3,308(r2)
  d->_g81 = d->_g97 && d->_cg82;
  803950:	e0bffc17 	ldw	r2,-16(fp)
  803954:	10802e83 	ldbu	r2,186(r2)
  803958:	10803fcc 	andi	r2,r2,255
  80395c:	1080201c 	xori	r2,r2,128
  803960:	10bfe004 	addi	r2,r2,-128
  803964:	10000826 	beq	r2,zero,803988 <logic+0x3154>
  803968:	e0bffc17 	ldw	r2,-16(fp)
  80396c:	10804d03 	ldbu	r2,308(r2)
  803970:	10803fcc 	andi	r2,r2,255
  803974:	1080201c 	xori	r2,r2,128
  803978:	10bfe004 	addi	r2,r2,-128
  80397c:	10000226 	beq	r2,zero,803988 <logic+0x3154>
  803980:	00800044 	movi	r2,1
  803984:	00000106 	br	80398c <logic+0x3158>
  803988:	0005883a 	mov	r2,zero
  80398c:	1007883a 	mov	r3,r2
  803990:	e0bffc17 	ldw	r2,-16(fp)
  803994:	10c02bc5 	stb	r3,175(r2)
  if (d->_g81) {
  803998:	e0bffc17 	ldw	r2,-16(fp)
  80399c:	10802bc3 	ldbu	r2,175(r2)
  8039a0:	10803fcc 	andi	r2,r2,255
  8039a4:	1080201c 	xori	r2,r2,128
  8039a8:	10bfe004 	addi	r2,r2,-128
  8039ac:	10003426 	beq	r2,zero,803a80 <logic+0x324c>
    d->sleepT = (d->sleepT < (d->VRP_time - d->_region2_null_VRP)) ? d->sleepT : (d->VRP_time - d->_region2_null_VRP);
  8039b0:	e0bffc17 	ldw	r2,-16(fp)
  8039b4:	14001517 	ldw	r16,84(r2)
  8039b8:	14401617 	ldw	r17,88(r2)
  8039bc:	e0bffc17 	ldw	r2,-16(fp)
  8039c0:	10800017 	ldw	r2,0(r2)
  8039c4:	1009883a 	mov	r4,r2
  8039c8:	0808ce00 	call	808ce0 <__floatsidf>
  8039cc:	1011883a 	mov	r8,r2
  8039d0:	1813883a 	mov	r9,r3
  8039d4:	e13ffc17 	ldw	r4,-16(fp)
  8039d8:	20800b17 	ldw	r2,44(r4)
  8039dc:	20c00c17 	ldw	r3,48(r4)
  8039e0:	100d883a 	mov	r6,r2
  8039e4:	180f883a 	mov	r7,r3
  8039e8:	4009883a 	mov	r4,r8
  8039ec:	480b883a 	mov	r5,r9
  8039f0:	08083e40 	call	8083e4 <__subdf3>
  8039f4:	1009883a 	mov	r4,r2
  8039f8:	180b883a 	mov	r5,r3
  8039fc:	2005883a 	mov	r2,r4
  803a00:	2807883a 	mov	r3,r5
  803a04:	100d883a 	mov	r6,r2
  803a08:	180f883a 	mov	r7,r3
  803a0c:	8009883a 	mov	r4,r16
  803a10:	880b883a 	mov	r5,r17
  803a14:	08082f00 	call	8082f0 <__ledf2>
  803a18:	1000040e 	bge	r2,zero,803a2c <logic+0x31f8>
  803a1c:	e13ffc17 	ldw	r4,-16(fp)
  803a20:	20801517 	ldw	r2,84(r4)
  803a24:	20c01617 	ldw	r3,88(r4)
  803a28:	00001206 	br	803a74 <logic+0x3240>
  803a2c:	e0bffc17 	ldw	r2,-16(fp)
  803a30:	10800017 	ldw	r2,0(r2)
  803a34:	1009883a 	mov	r4,r2
  803a38:	0808ce00 	call	808ce0 <__floatsidf>
  803a3c:	1011883a 	mov	r8,r2
  803a40:	1813883a 	mov	r9,r3
  803a44:	e13ffc17 	ldw	r4,-16(fp)
  803a48:	20800b17 	ldw	r2,44(r4)
  803a4c:	20c00c17 	ldw	r3,48(r4)
  803a50:	100d883a 	mov	r6,r2
  803a54:	180f883a 	mov	r7,r3
  803a58:	4009883a 	mov	r4,r8
  803a5c:	480b883a 	mov	r5,r9
  803a60:	08083e40 	call	8083e4 <__subdf3>
  803a64:	1009883a 	mov	r4,r2
  803a68:	180b883a 	mov	r5,r3
  803a6c:	2005883a 	mov	r2,r4
  803a70:	2807883a 	mov	r3,r5
  803a74:	e13ffc17 	ldw	r4,-16(fp)
  803a78:	20801515 	stw	r2,84(r4)
  803a7c:	20c01615 	stw	r3,88(r4)
  }
  d->_cg83 = d->_heart2_local__Atrig6 || d->_heart2_local__Atrig7;
  803a80:	e0bffc17 	ldw	r2,-16(fp)
  803a84:	10801bc3 	ldbu	r2,111(r2)
  803a88:	10803fcc 	andi	r2,r2,255
  803a8c:	1080201c 	xori	r2,r2,128
  803a90:	10bfe004 	addi	r2,r2,-128
  803a94:	1000061e 	bne	r2,zero,803ab0 <logic+0x327c>
  803a98:	e0bffc17 	ldw	r2,-16(fp)
  803a9c:	10801c03 	ldbu	r2,112(r2)
  803aa0:	10803fcc 	andi	r2,r2,255
  803aa4:	1080201c 	xori	r2,r2,128
  803aa8:	10bfe004 	addi	r2,r2,-128
  803aac:	10000226 	beq	r2,zero,803ab8 <logic+0x3284>
  803ab0:	00800044 	movi	r2,1
  803ab4:	00000106 	br	803abc <logic+0x3288>
  803ab8:	0005883a 	mov	r2,zero
  803abc:	1007883a 	mov	r3,r2
  803ac0:	e0bffc17 	ldw	r2,-16(fp)
  803ac4:	10c04d45 	stb	r3,309(r2)
  d->_g97_e3 = d->_g81 && !d->_cg83 || d->_g85 && !d->_cg87;
  803ac8:	e0bffc17 	ldw	r2,-16(fp)
  803acc:	10802bc3 	ldbu	r2,175(r2)
  803ad0:	10803fcc 	andi	r2,r2,255
  803ad4:	1080201c 	xori	r2,r2,128
  803ad8:	10bfe004 	addi	r2,r2,-128
  803adc:	10000626 	beq	r2,zero,803af8 <logic+0x32c4>
  803ae0:	e0bffc17 	ldw	r2,-16(fp)
  803ae4:	10804d43 	ldbu	r2,309(r2)
  803ae8:	10803fcc 	andi	r2,r2,255
  803aec:	1080201c 	xori	r2,r2,128
  803af0:	10bfe004 	addi	r2,r2,-128
  803af4:	10000c26 	beq	r2,zero,803b28 <logic+0x32f4>
  803af8:	e0bffc17 	ldw	r2,-16(fp)
  803afc:	10802c43 	ldbu	r2,177(r2)
  803b00:	10803fcc 	andi	r2,r2,255
  803b04:	1080201c 	xori	r2,r2,128
  803b08:	10bfe004 	addi	r2,r2,-128
  803b0c:	10000826 	beq	r2,zero,803b30 <logic+0x32fc>
  803b10:	e0bffc17 	ldw	r2,-16(fp)
  803b14:	10804d83 	ldbu	r2,310(r2)
  803b18:	10803fcc 	andi	r2,r2,255
  803b1c:	1080201c 	xori	r2,r2,128
  803b20:	10bfe004 	addi	r2,r2,-128
  803b24:	1000021e 	bne	r2,zero,803b30 <logic+0x32fc>
  803b28:	00800044 	movi	r2,1
  803b2c:	00000106 	br	803b34 <logic+0x3300>
  803b30:	0005883a 	mov	r2,zero
  803b34:	1007883a 	mov	r3,r2
  803b38:	e0bffc17 	ldw	r2,-16(fp)
  803b3c:	10c05f05 	stb	r3,380(r2)
  d->_g88_e2 = d->_g97 && !d->_cg82;
  803b40:	e0bffc17 	ldw	r2,-16(fp)
  803b44:	10802e83 	ldbu	r2,186(r2)
  803b48:	10803fcc 	andi	r2,r2,255
  803b4c:	1080201c 	xori	r2,r2,128
  803b50:	10bfe004 	addi	r2,r2,-128
  803b54:	10000826 	beq	r2,zero,803b78 <logic+0x3344>
  803b58:	e0bffc17 	ldw	r2,-16(fp)
  803b5c:	10804d03 	ldbu	r2,308(r2)
  803b60:	10803fcc 	andi	r2,r2,255
  803b64:	1080201c 	xori	r2,r2,128
  803b68:	10bfe004 	addi	r2,r2,-128
  803b6c:	1000021e 	bne	r2,zero,803b78 <logic+0x3344>
  803b70:	00800044 	movi	r2,1
  803b74:	00000106 	br	803b7c <logic+0x3348>
  803b78:	0005883a 	mov	r2,zero
  803b7c:	1007883a 	mov	r3,r2
  803b80:	e0bffc17 	ldw	r2,-16(fp)
  803b84:	10c05ec5 	stb	r3,379(r2)
  d->_cg92 = d->_heart2_local__Atrig6 || d->_heart2_local__Atrig7;
  803b88:	e0bffc17 	ldw	r2,-16(fp)
  803b8c:	10801bc3 	ldbu	r2,111(r2)
  803b90:	10803fcc 	andi	r2,r2,255
  803b94:	1080201c 	xori	r2,r2,128
  803b98:	10bfe004 	addi	r2,r2,-128
  803b9c:	1000061e 	bne	r2,zero,803bb8 <logic+0x3384>
  803ba0:	e0bffc17 	ldw	r2,-16(fp)
  803ba4:	10801c03 	ldbu	r2,112(r2)
  803ba8:	10803fcc 	andi	r2,r2,255
  803bac:	1080201c 	xori	r2,r2,128
  803bb0:	10bfe004 	addi	r2,r2,-128
  803bb4:	10000226 	beq	r2,zero,803bc0 <logic+0x338c>
  803bb8:	00800044 	movi	r2,1
  803bbc:	00000106 	br	803bc4 <logic+0x3390>
  803bc0:	0005883a 	mov	r2,zero
  803bc4:	1007883a 	mov	r3,r2
  803bc8:	e0bffc17 	ldw	r2,-16(fp)
  803bcc:	10c04e45 	stb	r3,313(r2)
  d->_g116 = d->_g86 && !d->_cg89 || d->_g88_e2 && !d->_cg92;
  803bd0:	e0bffc17 	ldw	r2,-16(fp)
  803bd4:	10802c83 	ldbu	r2,178(r2)
  803bd8:	10803fcc 	andi	r2,r2,255
  803bdc:	1080201c 	xori	r2,r2,128
  803be0:	10bfe004 	addi	r2,r2,-128
  803be4:	10000626 	beq	r2,zero,803c00 <logic+0x33cc>
  803be8:	e0bffc17 	ldw	r2,-16(fp)
  803bec:	10804e03 	ldbu	r2,312(r2)
  803bf0:	10803fcc 	andi	r2,r2,255
  803bf4:	1080201c 	xori	r2,r2,128
  803bf8:	10bfe004 	addi	r2,r2,-128
  803bfc:	10000c26 	beq	r2,zero,803c30 <logic+0x33fc>
  803c00:	e0bffc17 	ldw	r2,-16(fp)
  803c04:	10805ec3 	ldbu	r2,379(r2)
  803c08:	10803fcc 	andi	r2,r2,255
  803c0c:	1080201c 	xori	r2,r2,128
  803c10:	10bfe004 	addi	r2,r2,-128
  803c14:	10000826 	beq	r2,zero,803c38 <logic+0x3404>
  803c18:	e0bffc17 	ldw	r2,-16(fp)
  803c1c:	10804e43 	ldbu	r2,313(r2)
  803c20:	10803fcc 	andi	r2,r2,255
  803c24:	1080201c 	xori	r2,r2,128
  803c28:	10bfe004 	addi	r2,r2,-128
  803c2c:	1000021e 	bne	r2,zero,803c38 <logic+0x3404>
  803c30:	00800044 	movi	r2,1
  803c34:	00000106 	br	803c3c <logic+0x3408>
  803c38:	0005883a 	mov	r2,zero
  803c3c:	1007883a 	mov	r3,r2
  803c40:	e0bffc17 	ldw	r2,-16(fp)
  803c44:	10c03245 	stb	r3,201(r2)
  d->_g114 = d->_g97 || d->_g98 && !d->VS;
  803c48:	e0bffc17 	ldw	r2,-16(fp)
  803c4c:	10802e83 	ldbu	r2,186(r2)
  803c50:	10803fcc 	andi	r2,r2,255
  803c54:	1080201c 	xori	r2,r2,128
  803c58:	10bfe004 	addi	r2,r2,-128
  803c5c:	10000c1e 	bne	r2,zero,803c90 <logic+0x345c>
  803c60:	e0bffc17 	ldw	r2,-16(fp)
  803c64:	10802ec3 	ldbu	r2,187(r2)
  803c68:	10803fcc 	andi	r2,r2,255
  803c6c:	1080201c 	xori	r2,r2,128
  803c70:	10bfe004 	addi	r2,r2,-128
  803c74:	10000826 	beq	r2,zero,803c98 <logic+0x3464>
  803c78:	e0bffc17 	ldw	r2,-16(fp)
  803c7c:	10801743 	ldbu	r2,93(r2)
  803c80:	10803fcc 	andi	r2,r2,255
  803c84:	1080201c 	xori	r2,r2,128
  803c88:	10bfe004 	addi	r2,r2,-128
  803c8c:	1000021e 	bne	r2,zero,803c98 <logic+0x3464>
  803c90:	00800044 	movi	r2,1
  803c94:	00000106 	br	803c9c <logic+0x3468>
  803c98:	0005883a 	mov	r2,zero
  803c9c:	1007883a 	mov	r3,r2
  803ca0:	e0bffc17 	ldw	r2,-16(fp)
  803ca4:	10c031c5 	stb	r3,199(r2)
  d->_g80 = d->_g112 && !d->_cg113;
  803ca8:	e0bffc17 	ldw	r2,-16(fp)
  803cac:	10803143 	ldbu	r2,197(r2)
  803cb0:	10803fcc 	andi	r2,r2,255
  803cb4:	1080201c 	xori	r2,r2,128
  803cb8:	10bfe004 	addi	r2,r2,-128
  803cbc:	10000826 	beq	r2,zero,803ce0 <logic+0x34ac>
  803cc0:	e0bffc17 	ldw	r2,-16(fp)
  803cc4:	10805043 	ldbu	r2,321(r2)
  803cc8:	10803fcc 	andi	r2,r2,255
  803ccc:	1080201c 	xori	r2,r2,128
  803cd0:	10bfe004 	addi	r2,r2,-128
  803cd4:	1000021e 	bne	r2,zero,803ce0 <logic+0x34ac>
  803cd8:	00800044 	movi	r2,1
  803cdc:	00000106 	br	803ce4 <logic+0x34b0>
  803ce0:	0005883a 	mov	r2,zero
  803ce4:	1007883a 	mov	r3,r2
  803ce8:	e0bffc17 	ldw	r2,-16(fp)
  803cec:	10c02b85 	stb	r3,174(r2)
  if (d->_g80) {
  803cf0:	e0bffc17 	ldw	r2,-16(fp)
  803cf4:	10802b83 	ldbu	r2,174(r2)
  803cf8:	10803fcc 	andi	r2,r2,255
  803cfc:	1080201c 	xori	r2,r2,128
  803d00:	10bfe004 	addi	r2,r2,-128
  803d04:	10000626 	beq	r2,zero,803d20 <logic+0x34ec>
    d->VS_i |= 1;
  803d08:	e0bffc17 	ldw	r2,-16(fp)
  803d0c:	10801903 	ldbu	r2,100(r2)
  803d10:	10800054 	ori	r2,r2,1
  803d14:	1007883a 	mov	r3,r2
  803d18:	e0bffc17 	ldw	r2,-16(fp)
  803d1c:	10c01905 	stb	r3,100(r2)
  }
  d->_g87 = d->_g96 && d->_cg100 || d->_g80;
  803d20:	e0bffc17 	ldw	r2,-16(fp)
  803d24:	10802e43 	ldbu	r2,185(r2)
  803d28:	10803fcc 	andi	r2,r2,255
  803d2c:	1080201c 	xori	r2,r2,128
  803d30:	10bfe004 	addi	r2,r2,-128
  803d34:	10000626 	beq	r2,zero,803d50 <logic+0x351c>
  803d38:	e0bffc17 	ldw	r2,-16(fp)
  803d3c:	10804f03 	ldbu	r2,316(r2)
  803d40:	10803fcc 	andi	r2,r2,255
  803d44:	1080201c 	xori	r2,r2,128
  803d48:	10bfe004 	addi	r2,r2,-128
  803d4c:	1000061e 	bne	r2,zero,803d68 <logic+0x3534>
  803d50:	e0bffc17 	ldw	r2,-16(fp)
  803d54:	10802b83 	ldbu	r2,174(r2)
  803d58:	10803fcc 	andi	r2,r2,255
  803d5c:	1080201c 	xori	r2,r2,128
  803d60:	10bfe004 	addi	r2,r2,-128
  803d64:	10000226 	beq	r2,zero,803d70 <logic+0x353c>
  803d68:	00800044 	movi	r2,1
  803d6c:	00000106 	br	803d74 <logic+0x3540>
  803d70:	0005883a 	mov	r2,zero
  803d74:	1007883a 	mov	r3,r2
  803d78:	e0bffc17 	ldw	r2,-16(fp)
  803d7c:	10c02cc5 	stb	r3,179(r2)
  if (d->_g87) {
  803d80:	e0bffc17 	ldw	r2,-16(fp)
  803d84:	10802cc3 	ldbu	r2,179(r2)
  803d88:	10803fcc 	andi	r2,r2,255
  803d8c:	1080201c 	xori	r2,r2,128
  803d90:	10bfe004 	addi	r2,r2,-128
  803d94:	10000426 	beq	r2,zero,803da8 <logic+0x3574>
    d->_heart2_local__Atrig8 = 0;
  803d98:	e0bffc17 	ldw	r2,-16(fp)
  803d9c:	10001c45 	stb	zero,113(r2)
    d->_heart2_local__Atrig9 = 0;
  803da0:	e0bffc17 	ldw	r2,-16(fp)
  803da4:	10001c85 	stb	zero,114(r2)
  }
  d->_cg102 = d->_heart2_local__Atrig8 || d->_heart2_local__Atrig9;
  803da8:	e0bffc17 	ldw	r2,-16(fp)
  803dac:	10801c43 	ldbu	r2,113(r2)
  803db0:	10803fcc 	andi	r2,r2,255
  803db4:	1080201c 	xori	r2,r2,128
  803db8:	10bfe004 	addi	r2,r2,-128
  803dbc:	1000061e 	bne	r2,zero,803dd8 <logic+0x35a4>
  803dc0:	e0bffc17 	ldw	r2,-16(fp)
  803dc4:	10801c83 	ldbu	r2,114(r2)
  803dc8:	10803fcc 	andi	r2,r2,255
  803dcc:	1080201c 	xori	r2,r2,128
  803dd0:	10bfe004 	addi	r2,r2,-128
  803dd4:	10000226 	beq	r2,zero,803de0 <logic+0x35ac>
  803dd8:	00800044 	movi	r2,1
  803ddc:	00000106 	br	803de4 <logic+0x35b0>
  803de0:	0005883a 	mov	r2,zero
  803de4:	1007883a 	mov	r3,r2
  803de8:	e0bffc17 	ldw	r2,-16(fp)
  803dec:	10c04f45 	stb	r3,317(r2)
  d->_g83 = d->_g87 && !d->_cg102 || d->_g55 && !d->_cg104;
  803df0:	e0bffc17 	ldw	r2,-16(fp)
  803df4:	10802cc3 	ldbu	r2,179(r2)
  803df8:	10803fcc 	andi	r2,r2,255
  803dfc:	1080201c 	xori	r2,r2,128
  803e00:	10bfe004 	addi	r2,r2,-128
  803e04:	10000626 	beq	r2,zero,803e20 <logic+0x35ec>
  803e08:	e0bffc17 	ldw	r2,-16(fp)
  803e0c:	10804f43 	ldbu	r2,317(r2)
  803e10:	10803fcc 	andi	r2,r2,255
  803e14:	1080201c 	xori	r2,r2,128
  803e18:	10bfe004 	addi	r2,r2,-128
  803e1c:	10000c26 	beq	r2,zero,803e50 <logic+0x361c>
  803e20:	e0bffc17 	ldw	r2,-16(fp)
  803e24:	108027c3 	ldbu	r2,159(r2)
  803e28:	10803fcc 	andi	r2,r2,255
  803e2c:	1080201c 	xori	r2,r2,128
  803e30:	10bfe004 	addi	r2,r2,-128
  803e34:	10000826 	beq	r2,zero,803e58 <logic+0x3624>
  803e38:	e0bffc17 	ldw	r2,-16(fp)
  803e3c:	10804f83 	ldbu	r2,318(r2)
  803e40:	10803fcc 	andi	r2,r2,255
  803e44:	1080201c 	xori	r2,r2,128
  803e48:	10bfe004 	addi	r2,r2,-128
  803e4c:	1000021e 	bne	r2,zero,803e58 <logic+0x3624>
  803e50:	00800044 	movi	r2,1
  803e54:	00000106 	br	803e5c <logic+0x3628>
  803e58:	0005883a 	mov	r2,zero
  803e5c:	1007883a 	mov	r3,r2
  803e60:	e0bffc17 	ldw	r2,-16(fp)
  803e64:	10c02c05 	stb	r3,176(r2)
  d->_g89 = d->_g87 || d->_g63 && !d->VS;
  803e68:	e0bffc17 	ldw	r2,-16(fp)
  803e6c:	10802cc3 	ldbu	r2,179(r2)
  803e70:	10803fcc 	andi	r2,r2,255
  803e74:	1080201c 	xori	r2,r2,128
  803e78:	10bfe004 	addi	r2,r2,-128
  803e7c:	10000c1e 	bne	r2,zero,803eb0 <logic+0x367c>
  803e80:	e0bffc17 	ldw	r2,-16(fp)
  803e84:	10802943 	ldbu	r2,165(r2)
  803e88:	10803fcc 	andi	r2,r2,255
  803e8c:	1080201c 	xori	r2,r2,128
  803e90:	10bfe004 	addi	r2,r2,-128
  803e94:	10000826 	beq	r2,zero,803eb8 <logic+0x3684>
  803e98:	e0bffc17 	ldw	r2,-16(fp)
  803e9c:	10801743 	ldbu	r2,93(r2)
  803ea0:	10803fcc 	andi	r2,r2,255
  803ea4:	1080201c 	xori	r2,r2,128
  803ea8:	10bfe004 	addi	r2,r2,-128
  803eac:	1000021e 	bne	r2,zero,803eb8 <logic+0x3684>
  803eb0:	00800044 	movi	r2,1
  803eb4:	00000106 	br	803ebc <logic+0x3688>
  803eb8:	0005883a 	mov	r2,zero
  803ebc:	1007883a 	mov	r3,r2
  803ec0:	e0bffc17 	ldw	r2,-16(fp)
  803ec4:	10c02d45 	stb	r3,181(r2)
  d->_g92 = d->_pg129;
  803ec8:	e0bffc17 	ldw	r2,-16(fp)
  803ecc:	10c06883 	ldbu	r3,418(r2)
  803ed0:	e0bffc17 	ldw	r2,-16(fp)
  803ed4:	10c02dc5 	stb	r3,183(r2)
  if (d->_g92) {
  803ed8:	e0bffc17 	ldw	r2,-16(fp)
  803edc:	10802dc3 	ldbu	r2,183(r2)
  803ee0:	10803fcc 	andi	r2,r2,255
  803ee4:	1080201c 	xori	r2,r2,128
  803ee8:	10bfe004 	addi	r2,r2,-128
  803eec:	10001226 	beq	r2,zero,803f38 <logic+0x3704>
    d->_region3_null_PVARP += d->deltaT;
  803ef0:	e13ffc17 	ldw	r4,-16(fp)
  803ef4:	20800d17 	ldw	r2,52(r4)
  803ef8:	20c00e17 	ldw	r3,56(r4)
  803efc:	e1bffc17 	ldw	r6,-16(fp)
  803f00:	31001317 	ldw	r4,76(r6)
  803f04:	31401417 	ldw	r5,80(r6)
  803f08:	200d883a 	mov	r6,r4
  803f0c:	280f883a 	mov	r7,r5
  803f10:	1009883a 	mov	r4,r2
  803f14:	180b883a 	mov	r5,r3
  803f18:	08079680 	call	807968 <__adddf3>
  803f1c:	1009883a 	mov	r4,r2
  803f20:	180b883a 	mov	r5,r3
  803f24:	2005883a 	mov	r2,r4
  803f28:	2807883a 	mov	r3,r5
  803f2c:	e13ffc17 	ldw	r4,-16(fp)
  803f30:	20800d15 	stw	r2,52(r4)
  803f34:	20c00e15 	stw	r3,56(r4)
  }
  d->_g77 = !d->_g92;
  803f38:	e0bffc17 	ldw	r2,-16(fp)
  803f3c:	10802dc3 	ldbu	r2,183(r2)
  803f40:	10803fcc 	andi	r2,r2,255
  803f44:	1080201c 	xori	r2,r2,128
  803f48:	10bfe004 	addi	r2,r2,-128
  803f4c:	1005003a 	cmpeq	r2,r2,zero
  803f50:	1007883a 	mov	r3,r2
  803f54:	e0bffc17 	ldw	r2,-16(fp)
  803f58:	10c02b45 	stb	r3,173(r2)
  d->_g98 = d->_pg134;
  803f5c:	e0bffc17 	ldw	r2,-16(fp)
  803f60:	10c068c3 	ldbu	r3,419(r2)
  803f64:	e0bffc17 	ldw	r2,-16(fp)
  803f68:	10c02ec5 	stb	r3,187(r2)
  d->_cg150 = d->v;
  803f6c:	e0bffc17 	ldw	r2,-16(fp)
  803f70:	10c018c3 	ldbu	r3,99(r2)
  803f74:	e0bffc17 	ldw	r2,-16(fp)
  803f78:	10c05405 	stb	r3,336(r2)
  d->_g113 = d->_g98 && d->_cg150;
  803f7c:	e0bffc17 	ldw	r2,-16(fp)
  803f80:	10802ec3 	ldbu	r2,187(r2)
  803f84:	10803fcc 	andi	r2,r2,255
  803f88:	1080201c 	xori	r2,r2,128
  803f8c:	10bfe004 	addi	r2,r2,-128
  803f90:	10000826 	beq	r2,zero,803fb4 <logic+0x3780>
  803f94:	e0bffc17 	ldw	r2,-16(fp)
  803f98:	10805403 	ldbu	r2,336(r2)
  803f9c:	10803fcc 	andi	r2,r2,255
  803fa0:	1080201c 	xori	r2,r2,128
  803fa4:	10bfe004 	addi	r2,r2,-128
  803fa8:	10000226 	beq	r2,zero,803fb4 <logic+0x3780>
  803fac:	00800044 	movi	r2,1
  803fb0:	00000106 	br	803fb8 <logic+0x3784>
  803fb4:	0005883a 	mov	r2,zero
  803fb8:	1007883a 	mov	r3,r2
  803fbc:	e0bffc17 	ldw	r2,-16(fp)
  803fc0:	10c03185 	stb	r3,198(r2)
  if (d->_g113) {
  803fc4:	e0bffc17 	ldw	r2,-16(fp)
  803fc8:	10803183 	ldbu	r2,198(r2)
  803fcc:	10803fcc 	andi	r2,r2,255
  803fd0:	1080201c 	xori	r2,r2,128
  803fd4:	10bfe004 	addi	r2,r2,-128
  803fd8:	10000326 	beq	r2,zero,803fe8 <logic+0x37b4>
    d->_heart2_local__Atrig12 = 1;
  803fdc:	e0bffc17 	ldw	r2,-16(fp)
  803fe0:	00c00044 	movi	r3,1
  803fe4:	10c01d45 	stb	r3,117(r2)
  }
  d->_g115 = d->_g98 && !d->_cg150;
  803fe8:	e0bffc17 	ldw	r2,-16(fp)
  803fec:	10802ec3 	ldbu	r2,187(r2)
  803ff0:	10803fcc 	andi	r2,r2,255
  803ff4:	1080201c 	xori	r2,r2,128
  803ff8:	10bfe004 	addi	r2,r2,-128
  803ffc:	10000826 	beq	r2,zero,804020 <logic+0x37ec>
  804000:	e0bffc17 	ldw	r2,-16(fp)
  804004:	10805403 	ldbu	r2,336(r2)
  804008:	10803fcc 	andi	r2,r2,255
  80400c:	1080201c 	xori	r2,r2,128
  804010:	10bfe004 	addi	r2,r2,-128
  804014:	1000021e 	bne	r2,zero,804020 <logic+0x37ec>
  804018:	00800044 	movi	r2,1
  80401c:	00000106 	br	804024 <logic+0x37f0>
  804020:	0005883a 	mov	r2,zero
  804024:	1007883a 	mov	r3,r2
  804028:	e0bffc17 	ldw	r2,-16(fp)
  80402c:	10c03205 	stb	r3,200(r2)
  d->_g100 = d->_g115 && d->AS;
  804030:	e0bffc17 	ldw	r2,-16(fp)
  804034:	10803203 	ldbu	r2,200(r2)
  804038:	10803fcc 	andi	r2,r2,255
  80403c:	1080201c 	xori	r2,r2,128
  804040:	10bfe004 	addi	r2,r2,-128
  804044:	10000826 	beq	r2,zero,804068 <logic+0x3834>
  804048:	e0bffc17 	ldw	r2,-16(fp)
  80404c:	10801703 	ldbu	r2,92(r2)
  804050:	10803fcc 	andi	r2,r2,255
  804054:	1080201c 	xori	r2,r2,128
  804058:	10bfe004 	addi	r2,r2,-128
  80405c:	10000226 	beq	r2,zero,804068 <logic+0x3834>
  804060:	00800044 	movi	r2,1
  804064:	00000106 	br	80406c <logic+0x3838>
  804068:	0005883a 	mov	r2,zero
  80406c:	1007883a 	mov	r3,r2
  804070:	e0bffc17 	ldw	r2,-16(fp)
  804074:	10c02f45 	stb	r3,189(r2)
  if (d->_g100) {
  804078:	e0bffc17 	ldw	r2,-16(fp)
  80407c:	10802f43 	ldbu	r2,189(r2)
  804080:	10803fcc 	andi	r2,r2,255
  804084:	1080201c 	xori	r2,r2,128
  804088:	10bfe004 	addi	r2,r2,-128
  80408c:	10000326 	beq	r2,zero,80409c <logic+0x3868>
    d->_heart2_local__Atrig13 = 1;
  804090:	e0bffc17 	ldw	r2,-16(fp)
  804094:	00c00044 	movi	r3,1
  804098:	10c01d85 	stb	r3,118(r2)
  }
  d->_cg146 = d->_heart2_local__Atrig12 || d->_heart2_local__Atrig13;
  80409c:	e0bffc17 	ldw	r2,-16(fp)
  8040a0:	10801d43 	ldbu	r2,117(r2)
  8040a4:	10803fcc 	andi	r2,r2,255
  8040a8:	1080201c 	xori	r2,r2,128
  8040ac:	10bfe004 	addi	r2,r2,-128
  8040b0:	1000061e 	bne	r2,zero,8040cc <logic+0x3898>
  8040b4:	e0bffc17 	ldw	r2,-16(fp)
  8040b8:	10801d83 	ldbu	r2,118(r2)
  8040bc:	10803fcc 	andi	r2,r2,255
  8040c0:	1080201c 	xori	r2,r2,128
  8040c4:	10bfe004 	addi	r2,r2,-128
  8040c8:	10000226 	beq	r2,zero,8040d4 <logic+0x38a0>
  8040cc:	00800044 	movi	r2,1
  8040d0:	00000106 	br	8040d8 <logic+0x38a4>
  8040d4:	0005883a 	mov	r2,zero
  8040d8:	1007883a 	mov	r3,r2
  8040dc:	e0bffc17 	ldw	r2,-16(fp)
  8040e0:	10c05385 	stb	r3,334(r2)
  d->_g104 = d->_g92 && d->_cg146;
  8040e4:	e0bffc17 	ldw	r2,-16(fp)
  8040e8:	10802dc3 	ldbu	r2,183(r2)
  8040ec:	10803fcc 	andi	r2,r2,255
  8040f0:	1080201c 	xori	r2,r2,128
  8040f4:	10bfe004 	addi	r2,r2,-128
  8040f8:	10000826 	beq	r2,zero,80411c <logic+0x38e8>
  8040fc:	e0bffc17 	ldw	r2,-16(fp)
  804100:	10805383 	ldbu	r2,334(r2)
  804104:	10803fcc 	andi	r2,r2,255
  804108:	1080201c 	xori	r2,r2,128
  80410c:	10bfe004 	addi	r2,r2,-128
  804110:	10000226 	beq	r2,zero,80411c <logic+0x38e8>
  804114:	00800044 	movi	r2,1
  804118:	00000106 	br	804120 <logic+0x38ec>
  80411c:	0005883a 	mov	r2,zero
  804120:	1007883a 	mov	r3,r2
  804124:	e0bffc17 	ldw	r2,-16(fp)
  804128:	10c02fc5 	stb	r3,191(r2)
  d->_g101 = !d->_g98;
  80412c:	e0bffc17 	ldw	r2,-16(fp)
  804130:	10802ec3 	ldbu	r2,187(r2)
  804134:	10803fcc 	andi	r2,r2,255
  804138:	1080201c 	xori	r2,r2,128
  80413c:	10bfe004 	addi	r2,r2,-128
  804140:	1005003a 	cmpeq	r2,r2,zero
  804144:	1007883a 	mov	r3,r2
  804148:	e0bffc17 	ldw	r2,-16(fp)
  80414c:	10c02f85 	stb	r3,190(r2)
  d->_g111 = d->_g113 || d->_g100;
  804150:	e0bffc17 	ldw	r2,-16(fp)
  804154:	10803183 	ldbu	r2,198(r2)
  804158:	10803fcc 	andi	r2,r2,255
  80415c:	1080201c 	xori	r2,r2,128
  804160:	10bfe004 	addi	r2,r2,-128
  804164:	1000061e 	bne	r2,zero,804180 <logic+0x394c>
  804168:	e0bffc17 	ldw	r2,-16(fp)
  80416c:	10802f43 	ldbu	r2,189(r2)
  804170:	10803fcc 	andi	r2,r2,255
  804174:	1080201c 	xori	r2,r2,128
  804178:	10bfe004 	addi	r2,r2,-128
  80417c:	10000226 	beq	r2,zero,804188 <logic+0x3954>
  804180:	00800044 	movi	r2,1
  804184:	00000106 	br	80418c <logic+0x3958>
  804188:	0005883a 	mov	r2,zero
  80418c:	1007883a 	mov	r3,r2
  804190:	e0bffc17 	ldw	r2,-16(fp)
  804194:	10c03105 	stb	r3,196(r2)
  d->_g150 = (d->_g77 || d->_g104) && (d->_g101 || d->_g111) && (d->_g104 || d->_g111);
  804198:	e0bffc17 	ldw	r2,-16(fp)
  80419c:	10802b43 	ldbu	r2,173(r2)
  8041a0:	10803fcc 	andi	r2,r2,255
  8041a4:	1080201c 	xori	r2,r2,128
  8041a8:	10bfe004 	addi	r2,r2,-128
  8041ac:	1000061e 	bne	r2,zero,8041c8 <logic+0x3994>
  8041b0:	e0bffc17 	ldw	r2,-16(fp)
  8041b4:	10802fc3 	ldbu	r2,191(r2)
  8041b8:	10803fcc 	andi	r2,r2,255
  8041bc:	1080201c 	xori	r2,r2,128
  8041c0:	10bfe004 	addi	r2,r2,-128
  8041c4:	10001a26 	beq	r2,zero,804230 <logic+0x39fc>
  8041c8:	e0bffc17 	ldw	r2,-16(fp)
  8041cc:	10802f83 	ldbu	r2,190(r2)
  8041d0:	10803fcc 	andi	r2,r2,255
  8041d4:	1080201c 	xori	r2,r2,128
  8041d8:	10bfe004 	addi	r2,r2,-128
  8041dc:	1000061e 	bne	r2,zero,8041f8 <logic+0x39c4>
  8041e0:	e0bffc17 	ldw	r2,-16(fp)
  8041e4:	10803103 	ldbu	r2,196(r2)
  8041e8:	10803fcc 	andi	r2,r2,255
  8041ec:	1080201c 	xori	r2,r2,128
  8041f0:	10bfe004 	addi	r2,r2,-128
  8041f4:	10000e26 	beq	r2,zero,804230 <logic+0x39fc>
  8041f8:	e0bffc17 	ldw	r2,-16(fp)
  8041fc:	10802fc3 	ldbu	r2,191(r2)
  804200:	10803fcc 	andi	r2,r2,255
  804204:	1080201c 	xori	r2,r2,128
  804208:	10bfe004 	addi	r2,r2,-128
  80420c:	1000061e 	bne	r2,zero,804228 <logic+0x39f4>
  804210:	e0bffc17 	ldw	r2,-16(fp)
  804214:	10803103 	ldbu	r2,196(r2)
  804218:	10803fcc 	andi	r2,r2,255
  80421c:	1080201c 	xori	r2,r2,128
  804220:	10bfe004 	addi	r2,r2,-128
  804224:	10000226 	beq	r2,zero,804230 <logic+0x39fc>
  804228:	00800044 	movi	r2,1
  80422c:	00000106 	br	804234 <logic+0x3a00>
  804230:	0005883a 	mov	r2,zero
  804234:	1007883a 	mov	r3,r2
  804238:	e0bffc17 	ldw	r2,-16(fp)
  80423c:	10c03785 	stb	r3,222(r2)
  d->_cg155 = d->_heart2_local__Atrig12;
  804240:	e0bffc17 	ldw	r2,-16(fp)
  804244:	10c01d43 	ldbu	r3,117(r2)
  804248:	e0bffc17 	ldw	r2,-16(fp)
  80424c:	10c05445 	stb	r3,337(r2)
  d->_g154 = d->_g150 && d->_cg155;
  804250:	e0bffc17 	ldw	r2,-16(fp)
  804254:	10803783 	ldbu	r2,222(r2)
  804258:	10803fcc 	andi	r2,r2,255
  80425c:	1080201c 	xori	r2,r2,128
  804260:	10bfe004 	addi	r2,r2,-128
  804264:	10000826 	beq	r2,zero,804288 <logic+0x3a54>
  804268:	e0bffc17 	ldw	r2,-16(fp)
  80426c:	10805443 	ldbu	r2,337(r2)
  804270:	10803fcc 	andi	r2,r2,255
  804274:	1080201c 	xori	r2,r2,128
  804278:	10bfe004 	addi	r2,r2,-128
  80427c:	10000226 	beq	r2,zero,804288 <logic+0x3a54>
  804280:	00800044 	movi	r2,1
  804284:	00000106 	br	80428c <logic+0x3a58>
  804288:	0005883a 	mov	r2,zero
  80428c:	1007883a 	mov	r3,r2
  804290:	e0bffc17 	ldw	r2,-16(fp)
  804294:	10c03885 	stb	r3,226(r2)
  if (d->_g154) {
  804298:	e0bffc17 	ldw	r2,-16(fp)
  80429c:	10803883 	ldbu	r2,226(r2)
  8042a0:	10803fcc 	andi	r2,r2,255
  8042a4:	1080201c 	xori	r2,r2,128
  8042a8:	10bfe004 	addi	r2,r2,-128
  8042ac:	10000326 	beq	r2,zero,8042bc <logic+0x3a88>
    d->_region3_null_PVARP = 0;
  8042b0:	e0bffc17 	ldw	r2,-16(fp)
  8042b4:	10000d15 	stw	zero,52(r2)
  8042b8:	10000e15 	stw	zero,56(r2)
  }
  d->_g151 = d->_pg130_e2;
  8042bc:	e0bffc17 	ldw	r2,-16(fp)
  8042c0:	10c06903 	ldbu	r3,420(r2)
  8042c4:	e0bffc17 	ldw	r2,-16(fp)
  8042c8:	10c037c5 	stb	r3,223(r2)
  if (d->_g151) {
  8042cc:	e0bffc17 	ldw	r2,-16(fp)
  8042d0:	108037c3 	ldbu	r2,223(r2)
  8042d4:	10803fcc 	andi	r2,r2,255
  8042d8:	1080201c 	xori	r2,r2,128
  8042dc:	10bfe004 	addi	r2,r2,-128
  8042e0:	10001226 	beq	r2,zero,80432c <logic+0x3af8>
    d->_region3_null_PVARP += d->deltaT;
  8042e4:	e13ffc17 	ldw	r4,-16(fp)
  8042e8:	20800d17 	ldw	r2,52(r4)
  8042ec:	20c00e17 	ldw	r3,56(r4)
  8042f0:	e1bffc17 	ldw	r6,-16(fp)
  8042f4:	31001317 	ldw	r4,76(r6)
  8042f8:	31401417 	ldw	r5,80(r6)
  8042fc:	200d883a 	mov	r6,r4
  804300:	280f883a 	mov	r7,r5
  804304:	1009883a 	mov	r4,r2
  804308:	180b883a 	mov	r5,r3
  80430c:	08079680 	call	807968 <__adddf3>
  804310:	1009883a 	mov	r4,r2
  804314:	180b883a 	mov	r5,r3
  804318:	2005883a 	mov	r2,r4
  80431c:	2807883a 	mov	r3,r5
  804320:	e13ffc17 	ldw	r4,-16(fp)
  804324:	20800d15 	stw	r2,52(r4)
  804328:	20c00e15 	stw	r3,56(r4)
  }
  d->_g147_e1 = !d->_g151;
  80432c:	e0bffc17 	ldw	r2,-16(fp)
  804330:	108037c3 	ldbu	r2,223(r2)
  804334:	10803fcc 	andi	r2,r2,255
  804338:	1080201c 	xori	r2,r2,128
  80433c:	10bfe004 	addi	r2,r2,-128
  804340:	1005003a 	cmpeq	r2,r2,zero
  804344:	1007883a 	mov	r3,r2
  804348:	e0bffc17 	ldw	r2,-16(fp)
  80434c:	10c06085 	stb	r3,386(r2)
  d->_g152 = d->_pg158;
  804350:	e0bffc17 	ldw	r2,-16(fp)
  804354:	10c06943 	ldbu	r3,421(r2)
  804358:	e0bffc17 	ldw	r2,-16(fp)
  80435c:	10c03805 	stb	r3,224(r2)
  d->_cg137 = d->_region3_null_PVARP >= d->PVARP_time;
  804360:	e0bffc17 	ldw	r2,-16(fp)
  804364:	14000d17 	ldw	r16,52(r2)
  804368:	14400e17 	ldw	r17,56(r2)
  80436c:	e0bffc17 	ldw	r2,-16(fp)
  804370:	10800117 	ldw	r2,4(r2)
  804374:	1009883a 	mov	r4,r2
  804378:	0808ce00 	call	808ce0 <__floatsidf>
  80437c:	1009883a 	mov	r4,r2
  804380:	180b883a 	mov	r5,r3
  804384:	04800044 	movi	r18,1
  804388:	200d883a 	mov	r6,r4
  80438c:	280f883a 	mov	r7,r5
  804390:	8009883a 	mov	r4,r16
  804394:	880b883a 	mov	r5,r17
  804398:	08082140 	call	808214 <__gedf2>
  80439c:	1000010e 	bge	r2,zero,8043a4 <logic+0x3b70>
  8043a0:	0025883a 	mov	r18,zero
  8043a4:	9007883a 	mov	r3,r18
  8043a8:	e0bffc17 	ldw	r2,-16(fp)
  8043ac:	10c052c5 	stb	r3,331(r2)
  d->_g147 = d->_g152 && d->_cg137;
  8043b0:	e0bffc17 	ldw	r2,-16(fp)
  8043b4:	10803803 	ldbu	r2,224(r2)
  8043b8:	10803fcc 	andi	r2,r2,255
  8043bc:	1080201c 	xori	r2,r2,128
  8043c0:	10bfe004 	addi	r2,r2,-128
  8043c4:	10000826 	beq	r2,zero,8043e8 <logic+0x3bb4>
  8043c8:	e0bffc17 	ldw	r2,-16(fp)
  8043cc:	108052c3 	ldbu	r2,331(r2)
  8043d0:	10803fcc 	andi	r2,r2,255
  8043d4:	1080201c 	xori	r2,r2,128
  8043d8:	10bfe004 	addi	r2,r2,-128
  8043dc:	10000226 	beq	r2,zero,8043e8 <logic+0x3bb4>
  8043e0:	00800044 	movi	r2,1
  8043e4:	00000106 	br	8043ec <logic+0x3bb8>
  8043e8:	0005883a 	mov	r2,zero
  8043ec:	1007883a 	mov	r3,r2
  8043f0:	e0bffc17 	ldw	r2,-16(fp)
  8043f4:	10c03745 	stb	r3,221(r2)
  if (d->_g147) {
  8043f8:	e0bffc17 	ldw	r2,-16(fp)
  8043fc:	10803743 	ldbu	r2,221(r2)
  804400:	10803fcc 	andi	r2,r2,255
  804404:	1080201c 	xori	r2,r2,128
  804408:	10bfe004 	addi	r2,r2,-128
  80440c:	10000326 	beq	r2,zero,80441c <logic+0x3be8>
    d->_heart2_local__Atrig10 = 1;
  804410:	e0bffc17 	ldw	r2,-16(fp)
  804414:	00c00044 	movi	r3,1
  804418:	10c01cc5 	stb	r3,115(r2)
  }
  d->_g152_e2 = d->_g152 && !d->_cg137;
  80441c:	e0bffc17 	ldw	r2,-16(fp)
  804420:	10803803 	ldbu	r2,224(r2)
  804424:	10803fcc 	andi	r2,r2,255
  804428:	1080201c 	xori	r2,r2,128
  80442c:	10bfe004 	addi	r2,r2,-128
  804430:	10000826 	beq	r2,zero,804454 <logic+0x3c20>
  804434:	e0bffc17 	ldw	r2,-16(fp)
  804438:	108052c3 	ldbu	r2,331(r2)
  80443c:	10803fcc 	andi	r2,r2,255
  804440:	1080201c 	xori	r2,r2,128
  804444:	10bfe004 	addi	r2,r2,-128
  804448:	1000021e 	bne	r2,zero,804454 <logic+0x3c20>
  80444c:	00800044 	movi	r2,1
  804450:	00000106 	br	804458 <logic+0x3c24>
  804454:	0005883a 	mov	r2,zero
  804458:	1007883a 	mov	r3,r2
  80445c:	e0bffc17 	ldw	r2,-16(fp)
  804460:	10c060c5 	stb	r3,387(r2)
  d->_g141 = d->_g152_e2 && d->AS;
  804464:	e0bffc17 	ldw	r2,-16(fp)
  804468:	108060c3 	ldbu	r2,387(r2)
  80446c:	10803fcc 	andi	r2,r2,255
  804470:	1080201c 	xori	r2,r2,128
  804474:	10bfe004 	addi	r2,r2,-128
  804478:	10000826 	beq	r2,zero,80449c <logic+0x3c68>
  80447c:	e0bffc17 	ldw	r2,-16(fp)
  804480:	10801703 	ldbu	r2,92(r2)
  804484:	10803fcc 	andi	r2,r2,255
  804488:	1080201c 	xori	r2,r2,128
  80448c:	10bfe004 	addi	r2,r2,-128
  804490:	10000226 	beq	r2,zero,80449c <logic+0x3c68>
  804494:	00800044 	movi	r2,1
  804498:	00000106 	br	8044a0 <logic+0x3c6c>
  80449c:	0005883a 	mov	r2,zero
  8044a0:	1007883a 	mov	r3,r2
  8044a4:	e0bffc17 	ldw	r2,-16(fp)
  8044a8:	10c03645 	stb	r3,217(r2)
  if (d->_g141) {
  8044ac:	e0bffc17 	ldw	r2,-16(fp)
  8044b0:	10803643 	ldbu	r2,217(r2)
  8044b4:	10803fcc 	andi	r2,r2,255
  8044b8:	1080201c 	xori	r2,r2,128
  8044bc:	10bfe004 	addi	r2,r2,-128
  8044c0:	10000326 	beq	r2,zero,8044d0 <logic+0x3c9c>
    d->_heart2_local__Atrig11 = 1;
  8044c4:	e0bffc17 	ldw	r2,-16(fp)
  8044c8:	00c00044 	movi	r3,1
  8044cc:	10c01d05 	stb	r3,116(r2)
  }
  d->_cg122 = d->_heart2_local__Atrig10 || d->_heart2_local__Atrig11;
  8044d0:	e0bffc17 	ldw	r2,-16(fp)
  8044d4:	10801cc3 	ldbu	r2,115(r2)
  8044d8:	10803fcc 	andi	r2,r2,255
  8044dc:	1080201c 	xori	r2,r2,128
  8044e0:	10bfe004 	addi	r2,r2,-128
  8044e4:	1000061e 	bne	r2,zero,804500 <logic+0x3ccc>
  8044e8:	e0bffc17 	ldw	r2,-16(fp)
  8044ec:	10801d03 	ldbu	r2,116(r2)
  8044f0:	10803fcc 	andi	r2,r2,255
  8044f4:	1080201c 	xori	r2,r2,128
  8044f8:	10bfe004 	addi	r2,r2,-128
  8044fc:	10000226 	beq	r2,zero,804508 <logic+0x3cd4>
  804500:	00800044 	movi	r2,1
  804504:	00000106 	br	80450c <logic+0x3cd8>
  804508:	0005883a 	mov	r2,zero
  80450c:	1007883a 	mov	r3,r2
  804510:	e0bffc17 	ldw	r2,-16(fp)
  804514:	10c050c5 	stb	r3,323(r2)
  d->_g123 = d->_g151 && d->_cg122;
  804518:	e0bffc17 	ldw	r2,-16(fp)
  80451c:	108037c3 	ldbu	r2,223(r2)
  804520:	10803fcc 	andi	r2,r2,255
  804524:	1080201c 	xori	r2,r2,128
  804528:	10bfe004 	addi	r2,r2,-128
  80452c:	10000826 	beq	r2,zero,804550 <logic+0x3d1c>
  804530:	e0bffc17 	ldw	r2,-16(fp)
  804534:	108050c3 	ldbu	r2,323(r2)
  804538:	10803fcc 	andi	r2,r2,255
  80453c:	1080201c 	xori	r2,r2,128
  804540:	10bfe004 	addi	r2,r2,-128
  804544:	10000226 	beq	r2,zero,804550 <logic+0x3d1c>
  804548:	00800044 	movi	r2,1
  80454c:	00000106 	br	804554 <logic+0x3d20>
  804550:	0005883a 	mov	r2,zero
  804554:	1007883a 	mov	r3,r2
  804558:	e0bffc17 	ldw	r2,-16(fp)
  80455c:	10c03305 	stb	r3,204(r2)
  d->_g133 = d->_pg156;
  804560:	e0bffc17 	ldw	r2,-16(fp)
  804564:	10c06983 	ldbu	r3,422(r2)
  804568:	e0bffc17 	ldw	r2,-16(fp)
  80456c:	10c034c5 	stb	r3,211(r2)
  d->_g127 = d->_pg139;
  804570:	e0bffc17 	ldw	r2,-16(fp)
  804574:	10c069c3 	ldbu	r3,423(r2)
  804578:	e0bffc17 	ldw	r2,-16(fp)
  80457c:	10c03385 	stb	r3,206(r2)
  d->_g130_e2 = !(d->_g133 || d->_g127);
  804580:	e0bffc17 	ldw	r2,-16(fp)
  804584:	108034c3 	ldbu	r2,211(r2)
  804588:	10803fcc 	andi	r2,r2,255
  80458c:	1080201c 	xori	r2,r2,128
  804590:	10bfe004 	addi	r2,r2,-128
  804594:	1000081e 	bne	r2,zero,8045b8 <logic+0x3d84>
  804598:	e0bffc17 	ldw	r2,-16(fp)
  80459c:	10803383 	ldbu	r2,206(r2)
  8045a0:	10803fcc 	andi	r2,r2,255
  8045a4:	1080201c 	xori	r2,r2,128
  8045a8:	10bfe004 	addi	r2,r2,-128
  8045ac:	1000021e 	bne	r2,zero,8045b8 <logic+0x3d84>
  8045b0:	00800044 	movi	r2,1
  8045b4:	00000106 	br	8045bc <logic+0x3d88>
  8045b8:	0005883a 	mov	r2,zero
  8045bc:	1007883a 	mov	r3,r2
  8045c0:	e0bffc17 	ldw	r2,-16(fp)
  8045c4:	10c06005 	stb	r3,384(r2)
  d->_g127 = d->_g127 || d->_g133;
  8045c8:	e0bffc17 	ldw	r2,-16(fp)
  8045cc:	10803383 	ldbu	r2,206(r2)
  8045d0:	10803fcc 	andi	r2,r2,255
  8045d4:	1080201c 	xori	r2,r2,128
  8045d8:	10bfe004 	addi	r2,r2,-128
  8045dc:	1000061e 	bne	r2,zero,8045f8 <logic+0x3dc4>
  8045e0:	e0bffc17 	ldw	r2,-16(fp)
  8045e4:	108034c3 	ldbu	r2,211(r2)
  8045e8:	10803fcc 	andi	r2,r2,255
  8045ec:	1080201c 	xori	r2,r2,128
  8045f0:	10bfe004 	addi	r2,r2,-128
  8045f4:	10000226 	beq	r2,zero,804600 <logic+0x3dcc>
  8045f8:	00800044 	movi	r2,1
  8045fc:	00000106 	br	804604 <logic+0x3dd0>
  804600:	0005883a 	mov	r2,zero
  804604:	1007883a 	mov	r3,r2
  804608:	e0bffc17 	ldw	r2,-16(fp)
  80460c:	10c03385 	stb	r3,206(r2)
  d->_cg128 = d->_region3_null_PVARP < d->PVARP_time;
  804610:	e0bffc17 	ldw	r2,-16(fp)
  804614:	14000d17 	ldw	r16,52(r2)
  804618:	14400e17 	ldw	r17,56(r2)
  80461c:	e0bffc17 	ldw	r2,-16(fp)
  804620:	10800117 	ldw	r2,4(r2)
  804624:	1009883a 	mov	r4,r2
  804628:	0808ce00 	call	808ce0 <__floatsidf>
  80462c:	1009883a 	mov	r4,r2
  804630:	180b883a 	mov	r5,r3
  804634:	04800044 	movi	r18,1
  804638:	200d883a 	mov	r6,r4
  80463c:	280f883a 	mov	r7,r5
  804640:	8009883a 	mov	r4,r16
  804644:	880b883a 	mov	r5,r17
  804648:	08082f00 	call	8082f0 <__ledf2>
  80464c:	10000116 	blt	r2,zero,804654 <logic+0x3e20>
  804650:	0025883a 	mov	r18,zero
  804654:	9007883a 	mov	r3,r18
  804658:	e0bffc17 	ldw	r2,-16(fp)
  80465c:	10c051c5 	stb	r3,327(r2)
  d->_g133 = d->_g127 && d->_cg128;
  804660:	e0bffc17 	ldw	r2,-16(fp)
  804664:	10803383 	ldbu	r2,206(r2)
  804668:	10803fcc 	andi	r2,r2,255
  80466c:	1080201c 	xori	r2,r2,128
  804670:	10bfe004 	addi	r2,r2,-128
  804674:	10000826 	beq	r2,zero,804698 <logic+0x3e64>
  804678:	e0bffc17 	ldw	r2,-16(fp)
  80467c:	108051c3 	ldbu	r2,327(r2)
  804680:	10803fcc 	andi	r2,r2,255
  804684:	1080201c 	xori	r2,r2,128
  804688:	10bfe004 	addi	r2,r2,-128
  80468c:	10000226 	beq	r2,zero,804698 <logic+0x3e64>
  804690:	00800044 	movi	r2,1
  804694:	00000106 	br	80469c <logic+0x3e68>
  804698:	0005883a 	mov	r2,zero
  80469c:	1007883a 	mov	r3,r2
  8046a0:	e0bffc17 	ldw	r2,-16(fp)
  8046a4:	10c034c5 	stb	r3,211(r2)
  if (d->_g133) {
  8046a8:	e0bffc17 	ldw	r2,-16(fp)
  8046ac:	108034c3 	ldbu	r2,211(r2)
  8046b0:	10803fcc 	andi	r2,r2,255
  8046b4:	1080201c 	xori	r2,r2,128
  8046b8:	10bfe004 	addi	r2,r2,-128
  8046bc:	10003426 	beq	r2,zero,804790 <logic+0x3f5c>
    d->sleepT = (d->sleepT < (d->PVARP_time - d->_region3_null_PVARP)) ? d->sleepT : (d->PVARP_time - d->_region3_null_PVARP);
  8046c0:	e0bffc17 	ldw	r2,-16(fp)
  8046c4:	14001517 	ldw	r16,84(r2)
  8046c8:	14401617 	ldw	r17,88(r2)
  8046cc:	e0bffc17 	ldw	r2,-16(fp)
  8046d0:	10800117 	ldw	r2,4(r2)
  8046d4:	1009883a 	mov	r4,r2
  8046d8:	0808ce00 	call	808ce0 <__floatsidf>
  8046dc:	1011883a 	mov	r8,r2
  8046e0:	1813883a 	mov	r9,r3
  8046e4:	e13ffc17 	ldw	r4,-16(fp)
  8046e8:	20800d17 	ldw	r2,52(r4)
  8046ec:	20c00e17 	ldw	r3,56(r4)
  8046f0:	100d883a 	mov	r6,r2
  8046f4:	180f883a 	mov	r7,r3
  8046f8:	4009883a 	mov	r4,r8
  8046fc:	480b883a 	mov	r5,r9
  804700:	08083e40 	call	8083e4 <__subdf3>
  804704:	1009883a 	mov	r4,r2
  804708:	180b883a 	mov	r5,r3
  80470c:	2005883a 	mov	r2,r4
  804710:	2807883a 	mov	r3,r5
  804714:	100d883a 	mov	r6,r2
  804718:	180f883a 	mov	r7,r3
  80471c:	8009883a 	mov	r4,r16
  804720:	880b883a 	mov	r5,r17
  804724:	08082f00 	call	8082f0 <__ledf2>
  804728:	1000040e 	bge	r2,zero,80473c <logic+0x3f08>
  80472c:	e13ffc17 	ldw	r4,-16(fp)
  804730:	20801517 	ldw	r2,84(r4)
  804734:	20c01617 	ldw	r3,88(r4)
  804738:	00001206 	br	804784 <logic+0x3f50>
  80473c:	e0bffc17 	ldw	r2,-16(fp)
  804740:	10800117 	ldw	r2,4(r2)
  804744:	1009883a 	mov	r4,r2
  804748:	0808ce00 	call	808ce0 <__floatsidf>
  80474c:	1011883a 	mov	r8,r2
  804750:	1813883a 	mov	r9,r3
  804754:	e13ffc17 	ldw	r4,-16(fp)
  804758:	20800d17 	ldw	r2,52(r4)
  80475c:	20c00e17 	ldw	r3,56(r4)
  804760:	100d883a 	mov	r6,r2
  804764:	180f883a 	mov	r7,r3
  804768:	4009883a 	mov	r4,r8
  80476c:	480b883a 	mov	r5,r9
  804770:	08083e40 	call	8083e4 <__subdf3>
  804774:	1009883a 	mov	r4,r2
  804778:	180b883a 	mov	r5,r3
  80477c:	2005883a 	mov	r2,r4
  804780:	2807883a 	mov	r3,r5
  804784:	e13ffc17 	ldw	r4,-16(fp)
  804788:	20801515 	stw	r2,84(r4)
  80478c:	20c01615 	stw	r3,88(r4)
  }
  d->_cg129 = d->_heart2_local__Atrig10 || d->_heart2_local__Atrig11;
  804790:	e0bffc17 	ldw	r2,-16(fp)
  804794:	10801cc3 	ldbu	r2,115(r2)
  804798:	10803fcc 	andi	r2,r2,255
  80479c:	1080201c 	xori	r2,r2,128
  8047a0:	10bfe004 	addi	r2,r2,-128
  8047a4:	1000061e 	bne	r2,zero,8047c0 <logic+0x3f8c>
  8047a8:	e0bffc17 	ldw	r2,-16(fp)
  8047ac:	10801d03 	ldbu	r2,116(r2)
  8047b0:	10803fcc 	andi	r2,r2,255
  8047b4:	1080201c 	xori	r2,r2,128
  8047b8:	10bfe004 	addi	r2,r2,-128
  8047bc:	10000226 	beq	r2,zero,8047c8 <logic+0x3f94>
  8047c0:	00800044 	movi	r2,1
  8047c4:	00000106 	br	8047cc <logic+0x3f98>
  8047c8:	0005883a 	mov	r2,zero
  8047cc:	1007883a 	mov	r3,r2
  8047d0:	e0bffc17 	ldw	r2,-16(fp)
  8047d4:	10c05185 	stb	r3,326(r2)
  d->_g128 = d->_g127 && !d->_cg128;
  8047d8:	e0bffc17 	ldw	r2,-16(fp)
  8047dc:	10803383 	ldbu	r2,206(r2)
  8047e0:	10803fcc 	andi	r2,r2,255
  8047e4:	1080201c 	xori	r2,r2,128
  8047e8:	10bfe004 	addi	r2,r2,-128
  8047ec:	10000826 	beq	r2,zero,804810 <logic+0x3fdc>
  8047f0:	e0bffc17 	ldw	r2,-16(fp)
  8047f4:	108051c3 	ldbu	r2,327(r2)
  8047f8:	10803fcc 	andi	r2,r2,255
  8047fc:	1080201c 	xori	r2,r2,128
  804800:	10bfe004 	addi	r2,r2,-128
  804804:	1000021e 	bne	r2,zero,804810 <logic+0x3fdc>
  804808:	00800044 	movi	r2,1
  80480c:	00000106 	br	804814 <logic+0x3fe0>
  804810:	0005883a 	mov	r2,zero
  804814:	1007883a 	mov	r3,r2
  804818:	e0bffc17 	ldw	r2,-16(fp)
  80481c:	10c033c5 	stb	r3,207(r2)
  d->_cg131 = d->_heart2_local__Atrig10 || d->_heart2_local__Atrig11;
  804820:	e0bffc17 	ldw	r2,-16(fp)
  804824:	10801cc3 	ldbu	r2,115(r2)
  804828:	10803fcc 	andi	r2,r2,255
  80482c:	1080201c 	xori	r2,r2,128
  804830:	10bfe004 	addi	r2,r2,-128
  804834:	1000061e 	bne	r2,zero,804850 <logic+0x401c>
  804838:	e0bffc17 	ldw	r2,-16(fp)
  80483c:	10801d03 	ldbu	r2,116(r2)
  804840:	10803fcc 	andi	r2,r2,255
  804844:	1080201c 	xori	r2,r2,128
  804848:	10bfe004 	addi	r2,r2,-128
  80484c:	10000226 	beq	r2,zero,804858 <logic+0x4024>
  804850:	00800044 	movi	r2,1
  804854:	00000106 	br	80485c <logic+0x4028>
  804858:	0005883a 	mov	r2,zero
  80485c:	1007883a 	mov	r3,r2
  804860:	e0bffc17 	ldw	r2,-16(fp)
  804864:	10c05205 	stb	r3,328(r2)
  d->_g130 = d->_g133 && d->_cg129 || d->_g128 && d->_cg131;
  804868:	e0bffc17 	ldw	r2,-16(fp)
  80486c:	108034c3 	ldbu	r2,211(r2)
  804870:	10803fcc 	andi	r2,r2,255
  804874:	1080201c 	xori	r2,r2,128
  804878:	10bfe004 	addi	r2,r2,-128
  80487c:	10000626 	beq	r2,zero,804898 <logic+0x4064>
  804880:	e0bffc17 	ldw	r2,-16(fp)
  804884:	10805183 	ldbu	r2,326(r2)
  804888:	10803fcc 	andi	r2,r2,255
  80488c:	1080201c 	xori	r2,r2,128
  804890:	10bfe004 	addi	r2,r2,-128
  804894:	10000c1e 	bne	r2,zero,8048c8 <logic+0x4094>
  804898:	e0bffc17 	ldw	r2,-16(fp)
  80489c:	108033c3 	ldbu	r2,207(r2)
  8048a0:	10803fcc 	andi	r2,r2,255
  8048a4:	1080201c 	xori	r2,r2,128
  8048a8:	10bfe004 	addi	r2,r2,-128
  8048ac:	10000826 	beq	r2,zero,8048d0 <logic+0x409c>
  8048b0:	e0bffc17 	ldw	r2,-16(fp)
  8048b4:	10805203 	ldbu	r2,328(r2)
  8048b8:	10803fcc 	andi	r2,r2,255
  8048bc:	1080201c 	xori	r2,r2,128
  8048c0:	10bfe004 	addi	r2,r2,-128
  8048c4:	10000226 	beq	r2,zero,8048d0 <logic+0x409c>
  8048c8:	00800044 	movi	r2,1
  8048cc:	00000106 	br	8048d4 <logic+0x40a0>
  8048d0:	0005883a 	mov	r2,zero
  8048d4:	1007883a 	mov	r3,r2
  8048d8:	e0bffc17 	ldw	r2,-16(fp)
  8048dc:	10c03445 	stb	r3,209(r2)
  d->_g137 = !d->_g152;
  8048e0:	e0bffc17 	ldw	r2,-16(fp)
  8048e4:	10803803 	ldbu	r2,224(r2)
  8048e8:	10803fcc 	andi	r2,r2,255
  8048ec:	1080201c 	xori	r2,r2,128
  8048f0:	10bfe004 	addi	r2,r2,-128
  8048f4:	1005003a 	cmpeq	r2,r2,zero
  8048f8:	1007883a 	mov	r3,r2
  8048fc:	e0bffc17 	ldw	r2,-16(fp)
  804900:	10c03545 	stb	r3,213(r2)
  d->_g138 = d->_g147 || d->_g141;
  804904:	e0bffc17 	ldw	r2,-16(fp)
  804908:	10803743 	ldbu	r2,221(r2)
  80490c:	10803fcc 	andi	r2,r2,255
  804910:	1080201c 	xori	r2,r2,128
  804914:	10bfe004 	addi	r2,r2,-128
  804918:	1000061e 	bne	r2,zero,804934 <logic+0x4100>
  80491c:	e0bffc17 	ldw	r2,-16(fp)
  804920:	10803643 	ldbu	r2,217(r2)
  804924:	10803fcc 	andi	r2,r2,255
  804928:	1080201c 	xori	r2,r2,128
  80492c:	10bfe004 	addi	r2,r2,-128
  804930:	10000226 	beq	r2,zero,80493c <logic+0x4108>
  804934:	00800044 	movi	r2,1
  804938:	00000106 	br	804940 <logic+0x410c>
  80493c:	0005883a 	mov	r2,zero
  804940:	1007883a 	mov	r3,r2
  804944:	e0bffc17 	ldw	r2,-16(fp)
  804948:	10c03585 	stb	r3,214(r2)
  d->_g141 = (d->_g147_e1 || d->_g123) && (d->_g130_e2 || d->_g130) && (d->_g137 || d->_g138) && (d->_g123 || d->_g130 || d->_g138);
  80494c:	e0bffc17 	ldw	r2,-16(fp)
  804950:	10806083 	ldbu	r2,386(r2)
  804954:	10803fcc 	andi	r2,r2,255
  804958:	1080201c 	xori	r2,r2,128
  80495c:	10bfe004 	addi	r2,r2,-128
  804960:	1000061e 	bne	r2,zero,80497c <logic+0x4148>
  804964:	e0bffc17 	ldw	r2,-16(fp)
  804968:	10803303 	ldbu	r2,204(r2)
  80496c:	10803fcc 	andi	r2,r2,255
  804970:	1080201c 	xori	r2,r2,128
  804974:	10bfe004 	addi	r2,r2,-128
  804978:	10002c26 	beq	r2,zero,804a2c <logic+0x41f8>
  80497c:	e0bffc17 	ldw	r2,-16(fp)
  804980:	10806003 	ldbu	r2,384(r2)
  804984:	10803fcc 	andi	r2,r2,255
  804988:	1080201c 	xori	r2,r2,128
  80498c:	10bfe004 	addi	r2,r2,-128
  804990:	1000061e 	bne	r2,zero,8049ac <logic+0x4178>
  804994:	e0bffc17 	ldw	r2,-16(fp)
  804998:	10803443 	ldbu	r2,209(r2)
  80499c:	10803fcc 	andi	r2,r2,255
  8049a0:	1080201c 	xori	r2,r2,128
  8049a4:	10bfe004 	addi	r2,r2,-128
  8049a8:	10002026 	beq	r2,zero,804a2c <logic+0x41f8>
  8049ac:	e0bffc17 	ldw	r2,-16(fp)
  8049b0:	10803543 	ldbu	r2,213(r2)
  8049b4:	10803fcc 	andi	r2,r2,255
  8049b8:	1080201c 	xori	r2,r2,128
  8049bc:	10bfe004 	addi	r2,r2,-128
  8049c0:	1000061e 	bne	r2,zero,8049dc <logic+0x41a8>
  8049c4:	e0bffc17 	ldw	r2,-16(fp)
  8049c8:	10803583 	ldbu	r2,214(r2)
  8049cc:	10803fcc 	andi	r2,r2,255
  8049d0:	1080201c 	xori	r2,r2,128
  8049d4:	10bfe004 	addi	r2,r2,-128
  8049d8:	10001426 	beq	r2,zero,804a2c <logic+0x41f8>
  8049dc:	e0bffc17 	ldw	r2,-16(fp)
  8049e0:	10803303 	ldbu	r2,204(r2)
  8049e4:	10803fcc 	andi	r2,r2,255
  8049e8:	1080201c 	xori	r2,r2,128
  8049ec:	10bfe004 	addi	r2,r2,-128
  8049f0:	10000c1e 	bne	r2,zero,804a24 <logic+0x41f0>
  8049f4:	e0bffc17 	ldw	r2,-16(fp)
  8049f8:	10803443 	ldbu	r2,209(r2)
  8049fc:	10803fcc 	andi	r2,r2,255
  804a00:	1080201c 	xori	r2,r2,128
  804a04:	10bfe004 	addi	r2,r2,-128
  804a08:	1000061e 	bne	r2,zero,804a24 <logic+0x41f0>
  804a0c:	e0bffc17 	ldw	r2,-16(fp)
  804a10:	10803583 	ldbu	r2,214(r2)
  804a14:	10803fcc 	andi	r2,r2,255
  804a18:	1080201c 	xori	r2,r2,128
  804a1c:	10bfe004 	addi	r2,r2,-128
  804a20:	10000226 	beq	r2,zero,804a2c <logic+0x41f8>
  804a24:	00800044 	movi	r2,1
  804a28:	00000106 	br	804a30 <logic+0x41fc>
  804a2c:	0005883a 	mov	r2,zero
  804a30:	1007883a 	mov	r3,r2
  804a34:	e0bffc17 	ldw	r2,-16(fp)
  804a38:	10c03645 	stb	r3,217(r2)
  d->_cg142 = d->_heart2_local__Atrig10;
  804a3c:	e0bffc17 	ldw	r2,-16(fp)
  804a40:	10c01cc3 	ldbu	r3,115(r2)
  804a44:	e0bffc17 	ldw	r2,-16(fp)
  804a48:	10c05305 	stb	r3,332(r2)
  d->_g123 = d->_g141 && !d->_cg142;
  804a4c:	e0bffc17 	ldw	r2,-16(fp)
  804a50:	10803643 	ldbu	r2,217(r2)
  804a54:	10803fcc 	andi	r2,r2,255
  804a58:	1080201c 	xori	r2,r2,128
  804a5c:	10bfe004 	addi	r2,r2,-128
  804a60:	10000826 	beq	r2,zero,804a84 <logic+0x4250>
  804a64:	e0bffc17 	ldw	r2,-16(fp)
  804a68:	10805303 	ldbu	r2,332(r2)
  804a6c:	10803fcc 	andi	r2,r2,255
  804a70:	1080201c 	xori	r2,r2,128
  804a74:	10bfe004 	addi	r2,r2,-128
  804a78:	1000021e 	bne	r2,zero,804a84 <logic+0x4250>
  804a7c:	00800044 	movi	r2,1
  804a80:	00000106 	br	804a88 <logic+0x4254>
  804a84:	0005883a 	mov	r2,zero
  804a88:	1007883a 	mov	r3,r2
  804a8c:	e0bffc17 	ldw	r2,-16(fp)
  804a90:	10c03305 	stb	r3,204(r2)
  if (d->_g123) {
  804a94:	e0bffc17 	ldw	r2,-16(fp)
  804a98:	10803303 	ldbu	r2,204(r2)
  804a9c:	10803fcc 	andi	r2,r2,255
  804aa0:	1080201c 	xori	r2,r2,128
  804aa4:	10bfe004 	addi	r2,r2,-128
  804aa8:	10000626 	beq	r2,zero,804ac4 <logic+0x4290>
    d->AR |= 1;
  804aac:	e0bffc17 	ldw	r2,-16(fp)
  804ab0:	10801843 	ldbu	r2,97(r2)
  804ab4:	10800054 	ori	r2,r2,1
  804ab8:	1007883a 	mov	r3,r2
  804abc:	e0bffc17 	ldw	r2,-16(fp)
  804ac0:	10c01845 	stb	r3,97(r2)
  }
  d->_g123_e1 = d->_GO || d->_g154 || d->_g123;
  804ac4:	e0bffc17 	ldw	r2,-16(fp)
  804ac8:	10804543 	ldbu	r2,277(r2)
  804acc:	10803fcc 	andi	r2,r2,255
  804ad0:	1080201c 	xori	r2,r2,128
  804ad4:	10bfe004 	addi	r2,r2,-128
  804ad8:	10000c1e 	bne	r2,zero,804b0c <logic+0x42d8>
  804adc:	e0bffc17 	ldw	r2,-16(fp)
  804ae0:	10803883 	ldbu	r2,226(r2)
  804ae4:	10803fcc 	andi	r2,r2,255
  804ae8:	1080201c 	xori	r2,r2,128
  804aec:	10bfe004 	addi	r2,r2,-128
  804af0:	1000061e 	bne	r2,zero,804b0c <logic+0x42d8>
  804af4:	e0bffc17 	ldw	r2,-16(fp)
  804af8:	10803303 	ldbu	r2,204(r2)
  804afc:	10803fcc 	andi	r2,r2,255
  804b00:	1080201c 	xori	r2,r2,128
  804b04:	10bfe004 	addi	r2,r2,-128
  804b08:	10000226 	beq	r2,zero,804b14 <logic+0x42e0>
  804b0c:	00800044 	movi	r2,1
  804b10:	00000106 	br	804b18 <logic+0x42e4>
  804b14:	0005883a 	mov	r2,zero
  804b18:	1007883a 	mov	r3,r2
  804b1c:	e0bffc17 	ldw	r2,-16(fp)
  804b20:	10c05fc5 	stb	r3,383(r2)
  if (d->_g123_e1) {
  804b24:	e0bffc17 	ldw	r2,-16(fp)
  804b28:	10805fc3 	ldbu	r2,383(r2)
  804b2c:	10803fcc 	andi	r2,r2,255
  804b30:	1080201c 	xori	r2,r2,128
  804b34:	10bfe004 	addi	r2,r2,-128
  804b38:	10000426 	beq	r2,zero,804b4c <logic+0x4318>
    d->_heart2_local__Atrig10 = 0;
  804b3c:	e0bffc17 	ldw	r2,-16(fp)
  804b40:	10001cc5 	stb	zero,115(r2)
    d->_heart2_local__Atrig11 = 0;
  804b44:	e0bffc17 	ldw	r2,-16(fp)
  804b48:	10001d05 	stb	zero,116(r2)
  }
  d->_cg120 = d->_heart2_local__Atrig10 || d->_heart2_local__Atrig11;
  804b4c:	e0bffc17 	ldw	r2,-16(fp)
  804b50:	10801cc3 	ldbu	r2,115(r2)
  804b54:	10803fcc 	andi	r2,r2,255
  804b58:	1080201c 	xori	r2,r2,128
  804b5c:	10bfe004 	addi	r2,r2,-128
  804b60:	1000061e 	bne	r2,zero,804b7c <logic+0x4348>
  804b64:	e0bffc17 	ldw	r2,-16(fp)
  804b68:	10801d03 	ldbu	r2,116(r2)
  804b6c:	10803fcc 	andi	r2,r2,255
  804b70:	1080201c 	xori	r2,r2,128
  804b74:	10bfe004 	addi	r2,r2,-128
  804b78:	10000226 	beq	r2,zero,804b84 <logic+0x4350>
  804b7c:	00800044 	movi	r2,1
  804b80:	00000106 	br	804b88 <logic+0x4354>
  804b84:	0005883a 	mov	r2,zero
  804b88:	1007883a 	mov	r3,r2
  804b8c:	e0bffc17 	ldw	r2,-16(fp)
  804b90:	10c05085 	stb	r3,322(r2)
  d->_g130_e2 = d->_g123_e1 && !d->_cg120 || d->_g151 && !d->_cg122;
  804b94:	e0bffc17 	ldw	r2,-16(fp)
  804b98:	10805fc3 	ldbu	r2,383(r2)
  804b9c:	10803fcc 	andi	r2,r2,255
  804ba0:	1080201c 	xori	r2,r2,128
  804ba4:	10bfe004 	addi	r2,r2,-128
  804ba8:	10000626 	beq	r2,zero,804bc4 <logic+0x4390>
  804bac:	e0bffc17 	ldw	r2,-16(fp)
  804bb0:	10805083 	ldbu	r2,322(r2)
  804bb4:	10803fcc 	andi	r2,r2,255
  804bb8:	1080201c 	xori	r2,r2,128
  804bbc:	10bfe004 	addi	r2,r2,-128
  804bc0:	10000c26 	beq	r2,zero,804bf4 <logic+0x43c0>
  804bc4:	e0bffc17 	ldw	r2,-16(fp)
  804bc8:	108037c3 	ldbu	r2,223(r2)
  804bcc:	10803fcc 	andi	r2,r2,255
  804bd0:	1080201c 	xori	r2,r2,128
  804bd4:	10bfe004 	addi	r2,r2,-128
  804bd8:	10000826 	beq	r2,zero,804bfc <logic+0x43c8>
  804bdc:	e0bffc17 	ldw	r2,-16(fp)
  804be0:	108050c3 	ldbu	r2,323(r2)
  804be4:	10803fcc 	andi	r2,r2,255
  804be8:	1080201c 	xori	r2,r2,128
  804bec:	10bfe004 	addi	r2,r2,-128
  804bf0:	1000021e 	bne	r2,zero,804bfc <logic+0x43c8>
  804bf4:	00800044 	movi	r2,1
  804bf8:	00000106 	br	804c00 <logic+0x43cc>
  804bfc:	0005883a 	mov	r2,zero
  804c00:	1007883a 	mov	r3,r2
  804c04:	e0bffc17 	ldw	r2,-16(fp)
  804c08:	10c06005 	stb	r3,384(r2)
  d->_cg124 = d->_region3_null_PVARP < d->PVARP_time;
  804c0c:	e0bffc17 	ldw	r2,-16(fp)
  804c10:	14000d17 	ldw	r16,52(r2)
  804c14:	14400e17 	ldw	r17,56(r2)
  804c18:	e0bffc17 	ldw	r2,-16(fp)
  804c1c:	10800117 	ldw	r2,4(r2)
  804c20:	1009883a 	mov	r4,r2
  804c24:	0808ce00 	call	808ce0 <__floatsidf>
  804c28:	1009883a 	mov	r4,r2
  804c2c:	180b883a 	mov	r5,r3
  804c30:	04800044 	movi	r18,1
  804c34:	200d883a 	mov	r6,r4
  804c38:	280f883a 	mov	r7,r5
  804c3c:	8009883a 	mov	r4,r16
  804c40:	880b883a 	mov	r5,r17
  804c44:	08082f00 	call	8082f0 <__ledf2>
  804c48:	10000116 	blt	r2,zero,804c50 <logic+0x441c>
  804c4c:	0025883a 	mov	r18,zero
  804c50:	9007883a 	mov	r3,r18
  804c54:	e0bffc17 	ldw	r2,-16(fp)
  804c58:	10c05105 	stb	r3,324(r2)
  d->_g130 = d->_g123_e1 && d->_cg124;
  804c5c:	e0bffc17 	ldw	r2,-16(fp)
  804c60:	10805fc3 	ldbu	r2,383(r2)
  804c64:	10803fcc 	andi	r2,r2,255
  804c68:	1080201c 	xori	r2,r2,128
  804c6c:	10bfe004 	addi	r2,r2,-128
  804c70:	10000826 	beq	r2,zero,804c94 <logic+0x4460>
  804c74:	e0bffc17 	ldw	r2,-16(fp)
  804c78:	10805103 	ldbu	r2,324(r2)
  804c7c:	10803fcc 	andi	r2,r2,255
  804c80:	1080201c 	xori	r2,r2,128
  804c84:	10bfe004 	addi	r2,r2,-128
  804c88:	10000226 	beq	r2,zero,804c94 <logic+0x4460>
  804c8c:	00800044 	movi	r2,1
  804c90:	00000106 	br	804c98 <logic+0x4464>
  804c94:	0005883a 	mov	r2,zero
  804c98:	1007883a 	mov	r3,r2
  804c9c:	e0bffc17 	ldw	r2,-16(fp)
  804ca0:	10c03445 	stb	r3,209(r2)
  if (d->_g130) {
  804ca4:	e0bffc17 	ldw	r2,-16(fp)
  804ca8:	10803443 	ldbu	r2,209(r2)
  804cac:	10803fcc 	andi	r2,r2,255
  804cb0:	1080201c 	xori	r2,r2,128
  804cb4:	10bfe004 	addi	r2,r2,-128
  804cb8:	10003426 	beq	r2,zero,804d8c <logic+0x4558>
    d->sleepT = (d->sleepT < (d->PVARP_time - d->_region3_null_PVARP)) ? d->sleepT : (d->PVARP_time - d->_region3_null_PVARP);
  804cbc:	e0bffc17 	ldw	r2,-16(fp)
  804cc0:	14001517 	ldw	r16,84(r2)
  804cc4:	14401617 	ldw	r17,88(r2)
  804cc8:	e0bffc17 	ldw	r2,-16(fp)
  804ccc:	10800117 	ldw	r2,4(r2)
  804cd0:	1009883a 	mov	r4,r2
  804cd4:	0808ce00 	call	808ce0 <__floatsidf>
  804cd8:	1011883a 	mov	r8,r2
  804cdc:	1813883a 	mov	r9,r3
  804ce0:	e13ffc17 	ldw	r4,-16(fp)
  804ce4:	20800d17 	ldw	r2,52(r4)
  804ce8:	20c00e17 	ldw	r3,56(r4)
  804cec:	100d883a 	mov	r6,r2
  804cf0:	180f883a 	mov	r7,r3
  804cf4:	4009883a 	mov	r4,r8
  804cf8:	480b883a 	mov	r5,r9
  804cfc:	08083e40 	call	8083e4 <__subdf3>
  804d00:	1009883a 	mov	r4,r2
  804d04:	180b883a 	mov	r5,r3
  804d08:	2005883a 	mov	r2,r4
  804d0c:	2807883a 	mov	r3,r5
  804d10:	100d883a 	mov	r6,r2
  804d14:	180f883a 	mov	r7,r3
  804d18:	8009883a 	mov	r4,r16
  804d1c:	880b883a 	mov	r5,r17
  804d20:	08082f00 	call	8082f0 <__ledf2>
  804d24:	1000040e 	bge	r2,zero,804d38 <logic+0x4504>
  804d28:	e13ffc17 	ldw	r4,-16(fp)
  804d2c:	20801517 	ldw	r2,84(r4)
  804d30:	20c01617 	ldw	r3,88(r4)
  804d34:	00001206 	br	804d80 <logic+0x454c>
  804d38:	e0bffc17 	ldw	r2,-16(fp)
  804d3c:	10800117 	ldw	r2,4(r2)
  804d40:	1009883a 	mov	r4,r2
  804d44:	0808ce00 	call	808ce0 <__floatsidf>
  804d48:	1011883a 	mov	r8,r2
  804d4c:	1813883a 	mov	r9,r3
  804d50:	e13ffc17 	ldw	r4,-16(fp)
  804d54:	20800d17 	ldw	r2,52(r4)
  804d58:	20c00e17 	ldw	r3,56(r4)
  804d5c:	100d883a 	mov	r6,r2
  804d60:	180f883a 	mov	r7,r3
  804d64:	4009883a 	mov	r4,r8
  804d68:	480b883a 	mov	r5,r9
  804d6c:	08083e40 	call	8083e4 <__subdf3>
  804d70:	1009883a 	mov	r4,r2
  804d74:	180b883a 	mov	r5,r3
  804d78:	2005883a 	mov	r2,r4
  804d7c:	2807883a 	mov	r3,r5
  804d80:	e13ffc17 	ldw	r4,-16(fp)
  804d84:	20801515 	stw	r2,84(r4)
  804d88:	20c01615 	stw	r3,88(r4)
  }
  d->_cg125 = d->_heart2_local__Atrig10 || d->_heart2_local__Atrig11;
  804d8c:	e0bffc17 	ldw	r2,-16(fp)
  804d90:	10801cc3 	ldbu	r2,115(r2)
  804d94:	10803fcc 	andi	r2,r2,255
  804d98:	1080201c 	xori	r2,r2,128
  804d9c:	10bfe004 	addi	r2,r2,-128
  804da0:	1000061e 	bne	r2,zero,804dbc <logic+0x4588>
  804da4:	e0bffc17 	ldw	r2,-16(fp)
  804da8:	10801d03 	ldbu	r2,116(r2)
  804dac:	10803fcc 	andi	r2,r2,255
  804db0:	1080201c 	xori	r2,r2,128
  804db4:	10bfe004 	addi	r2,r2,-128
  804db8:	10000226 	beq	r2,zero,804dc4 <logic+0x4590>
  804dbc:	00800044 	movi	r2,1
  804dc0:	00000106 	br	804dc8 <logic+0x4594>
  804dc4:	0005883a 	mov	r2,zero
  804dc8:	1007883a 	mov	r3,r2
  804dcc:	e0bffc17 	ldw	r2,-16(fp)
  804dd0:	10c05145 	stb	r3,325(r2)
  d->_g139 = d->_g130 && !d->_cg125 || d->_g133 && !d->_cg129;
  804dd4:	e0bffc17 	ldw	r2,-16(fp)
  804dd8:	10803443 	ldbu	r2,209(r2)
  804ddc:	10803fcc 	andi	r2,r2,255
  804de0:	1080201c 	xori	r2,r2,128
  804de4:	10bfe004 	addi	r2,r2,-128
  804de8:	10000626 	beq	r2,zero,804e04 <logic+0x45d0>
  804dec:	e0bffc17 	ldw	r2,-16(fp)
  804df0:	10805143 	ldbu	r2,325(r2)
  804df4:	10803fcc 	andi	r2,r2,255
  804df8:	1080201c 	xori	r2,r2,128
  804dfc:	10bfe004 	addi	r2,r2,-128
  804e00:	10000c26 	beq	r2,zero,804e34 <logic+0x4600>
  804e04:	e0bffc17 	ldw	r2,-16(fp)
  804e08:	108034c3 	ldbu	r2,211(r2)
  804e0c:	10803fcc 	andi	r2,r2,255
  804e10:	1080201c 	xori	r2,r2,128
  804e14:	10bfe004 	addi	r2,r2,-128
  804e18:	10000826 	beq	r2,zero,804e3c <logic+0x4608>
  804e1c:	e0bffc17 	ldw	r2,-16(fp)
  804e20:	10805183 	ldbu	r2,326(r2)
  804e24:	10803fcc 	andi	r2,r2,255
  804e28:	1080201c 	xori	r2,r2,128
  804e2c:	10bfe004 	addi	r2,r2,-128
  804e30:	1000021e 	bne	r2,zero,804e3c <logic+0x4608>
  804e34:	00800044 	movi	r2,1
  804e38:	00000106 	br	804e40 <logic+0x460c>
  804e3c:	0005883a 	mov	r2,zero
  804e40:	1007883a 	mov	r3,r2
  804e44:	e0bffc17 	ldw	r2,-16(fp)
  804e48:	10c035c5 	stb	r3,215(r2)
  d->_g139_e3 = d->_g123_e1 && !d->_cg124;
  804e4c:	e0bffc17 	ldw	r2,-16(fp)
  804e50:	10805fc3 	ldbu	r2,383(r2)
  804e54:	10803fcc 	andi	r2,r2,255
  804e58:	1080201c 	xori	r2,r2,128
  804e5c:	10bfe004 	addi	r2,r2,-128
  804e60:	10000826 	beq	r2,zero,804e84 <logic+0x4650>
  804e64:	e0bffc17 	ldw	r2,-16(fp)
  804e68:	10805103 	ldbu	r2,324(r2)
  804e6c:	10803fcc 	andi	r2,r2,255
  804e70:	1080201c 	xori	r2,r2,128
  804e74:	10bfe004 	addi	r2,r2,-128
  804e78:	1000021e 	bne	r2,zero,804e84 <logic+0x4650>
  804e7c:	00800044 	movi	r2,1
  804e80:	00000106 	br	804e88 <logic+0x4654>
  804e84:	0005883a 	mov	r2,zero
  804e88:	1007883a 	mov	r3,r2
  804e8c:	e0bffc17 	ldw	r2,-16(fp)
  804e90:	10c06045 	stb	r3,385(r2)
  d->_cg134 = d->_heart2_local__Atrig10 || d->_heart2_local__Atrig11;
  804e94:	e0bffc17 	ldw	r2,-16(fp)
  804e98:	10801cc3 	ldbu	r2,115(r2)
  804e9c:	10803fcc 	andi	r2,r2,255
  804ea0:	1080201c 	xori	r2,r2,128
  804ea4:	10bfe004 	addi	r2,r2,-128
  804ea8:	1000061e 	bne	r2,zero,804ec4 <logic+0x4690>
  804eac:	e0bffc17 	ldw	r2,-16(fp)
  804eb0:	10801d03 	ldbu	r2,116(r2)
  804eb4:	10803fcc 	andi	r2,r2,255
  804eb8:	1080201c 	xori	r2,r2,128
  804ebc:	10bfe004 	addi	r2,r2,-128
  804ec0:	10000226 	beq	r2,zero,804ecc <logic+0x4698>
  804ec4:	00800044 	movi	r2,1
  804ec8:	00000106 	br	804ed0 <logic+0x469c>
  804ecc:	0005883a 	mov	r2,zero
  804ed0:	1007883a 	mov	r3,r2
  804ed4:	e0bffc17 	ldw	r2,-16(fp)
  804ed8:	10c05245 	stb	r3,329(r2)
  d->_g156 = d->_g128 && !d->_cg131 || d->_g139_e3 && !d->_cg134;
  804edc:	e0bffc17 	ldw	r2,-16(fp)
  804ee0:	108033c3 	ldbu	r2,207(r2)
  804ee4:	10803fcc 	andi	r2,r2,255
  804ee8:	1080201c 	xori	r2,r2,128
  804eec:	10bfe004 	addi	r2,r2,-128
  804ef0:	10000626 	beq	r2,zero,804f0c <logic+0x46d8>
  804ef4:	e0bffc17 	ldw	r2,-16(fp)
  804ef8:	10805203 	ldbu	r2,328(r2)
  804efc:	10803fcc 	andi	r2,r2,255
  804f00:	1080201c 	xori	r2,r2,128
  804f04:	10bfe004 	addi	r2,r2,-128
  804f08:	10000c26 	beq	r2,zero,804f3c <logic+0x4708>
  804f0c:	e0bffc17 	ldw	r2,-16(fp)
  804f10:	10806043 	ldbu	r2,385(r2)
  804f14:	10803fcc 	andi	r2,r2,255
  804f18:	1080201c 	xori	r2,r2,128
  804f1c:	10bfe004 	addi	r2,r2,-128
  804f20:	10000826 	beq	r2,zero,804f44 <logic+0x4710>
  804f24:	e0bffc17 	ldw	r2,-16(fp)
  804f28:	10805243 	ldbu	r2,329(r2)
  804f2c:	10803fcc 	andi	r2,r2,255
  804f30:	1080201c 	xori	r2,r2,128
  804f34:	10bfe004 	addi	r2,r2,-128
  804f38:	1000021e 	bne	r2,zero,804f44 <logic+0x4710>
  804f3c:	00800044 	movi	r2,1
  804f40:	00000106 	br	804f48 <logic+0x4714>
  804f44:	0005883a 	mov	r2,zero
  804f48:	1007883a 	mov	r3,r2
  804f4c:	e0bffc17 	ldw	r2,-16(fp)
  804f50:	10c03905 	stb	r3,228(r2)
  d->_g158 = d->_g123_e1 || d->_g152_e2 && !d->AS;
  804f54:	e0bffc17 	ldw	r2,-16(fp)
  804f58:	10805fc3 	ldbu	r2,383(r2)
  804f5c:	10803fcc 	andi	r2,r2,255
  804f60:	1080201c 	xori	r2,r2,128
  804f64:	10bfe004 	addi	r2,r2,-128
  804f68:	10000c1e 	bne	r2,zero,804f9c <logic+0x4768>
  804f6c:	e0bffc17 	ldw	r2,-16(fp)
  804f70:	108060c3 	ldbu	r2,387(r2)
  804f74:	10803fcc 	andi	r2,r2,255
  804f78:	1080201c 	xori	r2,r2,128
  804f7c:	10bfe004 	addi	r2,r2,-128
  804f80:	10000826 	beq	r2,zero,804fa4 <logic+0x4770>
  804f84:	e0bffc17 	ldw	r2,-16(fp)
  804f88:	10801703 	ldbu	r2,92(r2)
  804f8c:	10803fcc 	andi	r2,r2,255
  804f90:	1080201c 	xori	r2,r2,128
  804f94:	10bfe004 	addi	r2,r2,-128
  804f98:	1000021e 	bne	r2,zero,804fa4 <logic+0x4770>
  804f9c:	00800044 	movi	r2,1
  804fa0:	00000106 	br	804fa8 <logic+0x4774>
  804fa4:	0005883a 	mov	r2,zero
  804fa8:	1007883a 	mov	r3,r2
  804fac:	e0bffc17 	ldw	r2,-16(fp)
  804fb0:	10c03985 	stb	r3,230(r2)
  d->_g122 = d->_g150 && !d->_cg155;
  804fb4:	e0bffc17 	ldw	r2,-16(fp)
  804fb8:	10803783 	ldbu	r2,222(r2)
  804fbc:	10803fcc 	andi	r2,r2,255
  804fc0:	1080201c 	xori	r2,r2,128
  804fc4:	10bfe004 	addi	r2,r2,-128
  804fc8:	10000826 	beq	r2,zero,804fec <logic+0x47b8>
  804fcc:	e0bffc17 	ldw	r2,-16(fp)
  804fd0:	10805443 	ldbu	r2,337(r2)
  804fd4:	10803fcc 	andi	r2,r2,255
  804fd8:	1080201c 	xori	r2,r2,128
  804fdc:	10bfe004 	addi	r2,r2,-128
  804fe0:	1000021e 	bne	r2,zero,804fec <logic+0x47b8>
  804fe4:	00800044 	movi	r2,1
  804fe8:	00000106 	br	804ff0 <logic+0x47bc>
  804fec:	0005883a 	mov	r2,zero
  804ff0:	1007883a 	mov	r3,r2
  804ff4:	e0bffc17 	ldw	r2,-16(fp)
  804ff8:	10c032c5 	stb	r3,203(r2)
  if (d->_g122) {
  804ffc:	e0bffc17 	ldw	r2,-16(fp)
  805000:	108032c3 	ldbu	r2,203(r2)
  805004:	10803fcc 	andi	r2,r2,255
  805008:	1080201c 	xori	r2,r2,128
  80500c:	10bfe004 	addi	r2,r2,-128
  805010:	10000626 	beq	r2,zero,80502c <logic+0x47f8>
    d->a |= 1;
  805014:	e0bffc17 	ldw	r2,-16(fp)
  805018:	10801883 	ldbu	r2,98(r2)
  80501c:	10800054 	ori	r2,r2,1
  805020:	1007883a 	mov	r3,r2
  805024:	e0bffc17 	ldw	r2,-16(fp)
  805028:	10c01885 	stb	r3,98(r2)
  }
  d->_g125 = d->_g141 && d->_cg142 || d->_g122;
  80502c:	e0bffc17 	ldw	r2,-16(fp)
  805030:	10803643 	ldbu	r2,217(r2)
  805034:	10803fcc 	andi	r2,r2,255
  805038:	1080201c 	xori	r2,r2,128
  80503c:	10bfe004 	addi	r2,r2,-128
  805040:	10000626 	beq	r2,zero,80505c <logic+0x4828>
  805044:	e0bffc17 	ldw	r2,-16(fp)
  805048:	10805303 	ldbu	r2,332(r2)
  80504c:	10803fcc 	andi	r2,r2,255
  805050:	1080201c 	xori	r2,r2,128
  805054:	10bfe004 	addi	r2,r2,-128
  805058:	1000061e 	bne	r2,zero,805074 <logic+0x4840>
  80505c:	e0bffc17 	ldw	r2,-16(fp)
  805060:	108032c3 	ldbu	r2,203(r2)
  805064:	10803fcc 	andi	r2,r2,255
  805068:	1080201c 	xori	r2,r2,128
  80506c:	10bfe004 	addi	r2,r2,-128
  805070:	10000226 	beq	r2,zero,80507c <logic+0x4848>
  805074:	00800044 	movi	r2,1
  805078:	00000106 	br	805080 <logic+0x484c>
  80507c:	0005883a 	mov	r2,zero
  805080:	1007883a 	mov	r3,r2
  805084:	e0bffc17 	ldw	r2,-16(fp)
  805088:	10c03345 	stb	r3,205(r2)
  if (d->_g125) {
  80508c:	e0bffc17 	ldw	r2,-16(fp)
  805090:	10803343 	ldbu	r2,205(r2)
  805094:	10803fcc 	andi	r2,r2,255
  805098:	1080201c 	xori	r2,r2,128
  80509c:	10bfe004 	addi	r2,r2,-128
  8050a0:	10000426 	beq	r2,zero,8050b4 <logic+0x4880>
    d->_heart2_local__Atrig12 = 0;
  8050a4:	e0bffc17 	ldw	r2,-16(fp)
  8050a8:	10001d45 	stb	zero,117(r2)
    d->_heart2_local__Atrig13 = 0;
  8050ac:	e0bffc17 	ldw	r2,-16(fp)
  8050b0:	10001d85 	stb	zero,118(r2)
  }
  d->_cg144 = d->_heart2_local__Atrig12 || d->_heart2_local__Atrig13;
  8050b4:	e0bffc17 	ldw	r2,-16(fp)
  8050b8:	10801d43 	ldbu	r2,117(r2)
  8050bc:	10803fcc 	andi	r2,r2,255
  8050c0:	1080201c 	xori	r2,r2,128
  8050c4:	10bfe004 	addi	r2,r2,-128
  8050c8:	1000061e 	bne	r2,zero,8050e4 <logic+0x48b0>
  8050cc:	e0bffc17 	ldw	r2,-16(fp)
  8050d0:	10801d83 	ldbu	r2,118(r2)
  8050d4:	10803fcc 	andi	r2,r2,255
  8050d8:	1080201c 	xori	r2,r2,128
  8050dc:	10bfe004 	addi	r2,r2,-128
  8050e0:	10000226 	beq	r2,zero,8050ec <logic+0x48b8>
  8050e4:	00800044 	movi	r2,1
  8050e8:	00000106 	br	8050f0 <logic+0x48bc>
  8050ec:	0005883a 	mov	r2,zero
  8050f0:	1007883a 	mov	r3,r2
  8050f4:	e0bffc17 	ldw	r2,-16(fp)
  8050f8:	10c05345 	stb	r3,333(r2)
  d->_g129 = d->_g125 && !d->_cg144 || d->_g92 && !d->_cg146;
  8050fc:	e0bffc17 	ldw	r2,-16(fp)
  805100:	10803343 	ldbu	r2,205(r2)
  805104:	10803fcc 	andi	r2,r2,255
  805108:	1080201c 	xori	r2,r2,128
  80510c:	10bfe004 	addi	r2,r2,-128
  805110:	10000626 	beq	r2,zero,80512c <logic+0x48f8>
  805114:	e0bffc17 	ldw	r2,-16(fp)
  805118:	10805343 	ldbu	r2,333(r2)
  80511c:	10803fcc 	andi	r2,r2,255
  805120:	1080201c 	xori	r2,r2,128
  805124:	10bfe004 	addi	r2,r2,-128
  805128:	10000c26 	beq	r2,zero,80515c <logic+0x4928>
  80512c:	e0bffc17 	ldw	r2,-16(fp)
  805130:	10802dc3 	ldbu	r2,183(r2)
  805134:	10803fcc 	andi	r2,r2,255
  805138:	1080201c 	xori	r2,r2,128
  80513c:	10bfe004 	addi	r2,r2,-128
  805140:	10000826 	beq	r2,zero,805164 <logic+0x4930>
  805144:	e0bffc17 	ldw	r2,-16(fp)
  805148:	10805383 	ldbu	r2,334(r2)
  80514c:	10803fcc 	andi	r2,r2,255
  805150:	1080201c 	xori	r2,r2,128
  805154:	10bfe004 	addi	r2,r2,-128
  805158:	1000021e 	bne	r2,zero,805164 <logic+0x4930>
  80515c:	00800044 	movi	r2,1
  805160:	00000106 	br	805168 <logic+0x4934>
  805164:	0005883a 	mov	r2,zero
  805168:	1007883a 	mov	r3,r2
  80516c:	e0bffc17 	ldw	r2,-16(fp)
  805170:	10c03405 	stb	r3,208(r2)
  d->_g134 = d->_g125 || d->_g115 && !d->AS;
  805174:	e0bffc17 	ldw	r2,-16(fp)
  805178:	10803343 	ldbu	r2,205(r2)
  80517c:	10803fcc 	andi	r2,r2,255
  805180:	1080201c 	xori	r2,r2,128
  805184:	10bfe004 	addi	r2,r2,-128
  805188:	10000c1e 	bne	r2,zero,8051bc <logic+0x4988>
  80518c:	e0bffc17 	ldw	r2,-16(fp)
  805190:	10803203 	ldbu	r2,200(r2)
  805194:	10803fcc 	andi	r2,r2,255
  805198:	1080201c 	xori	r2,r2,128
  80519c:	10bfe004 	addi	r2,r2,-128
  8051a0:	10000826 	beq	r2,zero,8051c4 <logic+0x4990>
  8051a4:	e0bffc17 	ldw	r2,-16(fp)
  8051a8:	10801703 	ldbu	r2,92(r2)
  8051ac:	10803fcc 	andi	r2,r2,255
  8051b0:	1080201c 	xori	r2,r2,128
  8051b4:	10bfe004 	addi	r2,r2,-128
  8051b8:	1000021e 	bne	r2,zero,8051c4 <logic+0x4990>
  8051bc:	00800044 	movi	r2,1
  8051c0:	00000106 	br	8051c8 <logic+0x4994>
  8051c4:	0005883a 	mov	r2,zero
  8051c8:	1007883a 	mov	r3,r2
  8051cc:	e0bffc17 	ldw	r2,-16(fp)
  8051d0:	10c03505 	stb	r3,212(r2)
  d->_g131 = d->_pg179;
  8051d4:	e0bffc17 	ldw	r2,-16(fp)
  8051d8:	10c06a03 	ldbu	r3,424(r2)
  8051dc:	e0bffc17 	ldw	r2,-16(fp)
  8051e0:	10c03485 	stb	r3,210(r2)
  if (d->_g131) {
  8051e4:	e0bffc17 	ldw	r2,-16(fp)
  8051e8:	10803483 	ldbu	r2,210(r2)
  8051ec:	10803fcc 	andi	r2,r2,255
  8051f0:	1080201c 	xori	r2,r2,128
  8051f4:	10bfe004 	addi	r2,r2,-128
  8051f8:	10001226 	beq	r2,zero,805244 <logic+0x4a10>
    d->_region4_null_AEI += d->deltaT;
  8051fc:	e13ffc17 	ldw	r4,-16(fp)
  805200:	20800f17 	ldw	r2,60(r4)
  805204:	20c01017 	ldw	r3,64(r4)
  805208:	e1bffc17 	ldw	r6,-16(fp)
  80520c:	31001317 	ldw	r4,76(r6)
  805210:	31401417 	ldw	r5,80(r6)
  805214:	200d883a 	mov	r6,r4
  805218:	280f883a 	mov	r7,r5
  80521c:	1009883a 	mov	r4,r2
  805220:	180b883a 	mov	r5,r3
  805224:	08079680 	call	807968 <__adddf3>
  805228:	1009883a 	mov	r4,r2
  80522c:	180b883a 	mov	r5,r3
  805230:	2005883a 	mov	r2,r4
  805234:	2807883a 	mov	r3,r5
  805238:	e13ffc17 	ldw	r4,-16(fp)
  80523c:	20800f15 	stw	r2,60(r4)
  805240:	20c01015 	stw	r3,64(r4)
  }
  d->_g119 = !d->_g131;
  805244:	e0bffc17 	ldw	r2,-16(fp)
  805248:	10803483 	ldbu	r2,210(r2)
  80524c:	10803fcc 	andi	r2,r2,255
  805250:	1080201c 	xori	r2,r2,128
  805254:	10bfe004 	addi	r2,r2,-128
  805258:	1005003a 	cmpeq	r2,r2,zero
  80525c:	1007883a 	mov	r3,r2
  805260:	e0bffc17 	ldw	r2,-16(fp)
  805264:	10c03285 	stb	r3,202(r2)
  d->_g140 = d->_pg181_e3;
  805268:	e0bffc17 	ldw	r2,-16(fp)
  80526c:	10c06a43 	ldbu	r3,425(r2)
  805270:	e0bffc17 	ldw	r2,-16(fp)
  805274:	10c03605 	stb	r3,216(r2)
  d->_cg193 = d->v;
  805278:	e0bffc17 	ldw	r2,-16(fp)
  80527c:	10c018c3 	ldbu	r3,99(r2)
  805280:	e0bffc17 	ldw	r2,-16(fp)
  805284:	10c057c5 	stb	r3,351(r2)
  d->_g155 = d->_g140 && d->_cg193;
  805288:	e0bffc17 	ldw	r2,-16(fp)
  80528c:	10803603 	ldbu	r2,216(r2)
  805290:	10803fcc 	andi	r2,r2,255
  805294:	1080201c 	xori	r2,r2,128
  805298:	10bfe004 	addi	r2,r2,-128
  80529c:	10000826 	beq	r2,zero,8052c0 <logic+0x4a8c>
  8052a0:	e0bffc17 	ldw	r2,-16(fp)
  8052a4:	108057c3 	ldbu	r2,351(r2)
  8052a8:	10803fcc 	andi	r2,r2,255
  8052ac:	1080201c 	xori	r2,r2,128
  8052b0:	10bfe004 	addi	r2,r2,-128
  8052b4:	10000226 	beq	r2,zero,8052c0 <logic+0x4a8c>
  8052b8:	00800044 	movi	r2,1
  8052bc:	00000106 	br	8052c4 <logic+0x4a90>
  8052c0:	0005883a 	mov	r2,zero
  8052c4:	1007883a 	mov	r3,r2
  8052c8:	e0bffc17 	ldw	r2,-16(fp)
  8052cc:	10c038c5 	stb	r3,227(r2)
  if (d->_g155) {
  8052d0:	e0bffc17 	ldw	r2,-16(fp)
  8052d4:	108038c3 	ldbu	r2,227(r2)
  8052d8:	10803fcc 	andi	r2,r2,255
  8052dc:	1080201c 	xori	r2,r2,128
  8052e0:	10bfe004 	addi	r2,r2,-128
  8052e4:	10000326 	beq	r2,zero,8052f4 <logic+0x4ac0>
    d->_heart2_local__Atrig16 = 1;
  8052e8:	e0bffc17 	ldw	r2,-16(fp)
  8052ec:	00c00044 	movi	r3,1
  8052f0:	10c01e45 	stb	r3,121(r2)
  }
  d->_cg189 = d->_heart2_local__Atrig16;
  8052f4:	e0bffc17 	ldw	r2,-16(fp)
  8052f8:	10c01e43 	ldbu	r3,121(r2)
  8052fc:	e0bffc17 	ldw	r2,-16(fp)
  805300:	10c05785 	stb	r3,350(r2)
  d->_g157 = d->_g131 && d->_cg189;
  805304:	e0bffc17 	ldw	r2,-16(fp)
  805308:	10803483 	ldbu	r2,210(r2)
  80530c:	10803fcc 	andi	r2,r2,255
  805310:	1080201c 	xori	r2,r2,128
  805314:	10bfe004 	addi	r2,r2,-128
  805318:	10000826 	beq	r2,zero,80533c <logic+0x4b08>
  80531c:	e0bffc17 	ldw	r2,-16(fp)
  805320:	10805783 	ldbu	r2,350(r2)
  805324:	10803fcc 	andi	r2,r2,255
  805328:	1080201c 	xori	r2,r2,128
  80532c:	10bfe004 	addi	r2,r2,-128
  805330:	10000226 	beq	r2,zero,80533c <logic+0x4b08>
  805334:	00800044 	movi	r2,1
  805338:	00000106 	br	805340 <logic+0x4b0c>
  80533c:	0005883a 	mov	r2,zero
  805340:	1007883a 	mov	r3,r2
  805344:	e0bffc17 	ldw	r2,-16(fp)
  805348:	10c03945 	stb	r3,229(r2)
  d->_g142 = !d->_g140;
  80534c:	e0bffc17 	ldw	r2,-16(fp)
  805350:	10803603 	ldbu	r2,216(r2)
  805354:	10803fcc 	andi	r2,r2,255
  805358:	1080201c 	xori	r2,r2,128
  80535c:	10bfe004 	addi	r2,r2,-128
  805360:	1005003a 	cmpeq	r2,r2,zero
  805364:	1007883a 	mov	r3,r2
  805368:	e0bffc17 	ldw	r2,-16(fp)
  80536c:	10c03685 	stb	r3,218(r2)
  d->_g146 = (d->_g119 || d->_g157) && (d->_g142 || d->_g155) && (d->_g157 || d->_g155);
  805370:	e0bffc17 	ldw	r2,-16(fp)
  805374:	10803283 	ldbu	r2,202(r2)
  805378:	10803fcc 	andi	r2,r2,255
  80537c:	1080201c 	xori	r2,r2,128
  805380:	10bfe004 	addi	r2,r2,-128
  805384:	1000061e 	bne	r2,zero,8053a0 <logic+0x4b6c>
  805388:	e0bffc17 	ldw	r2,-16(fp)
  80538c:	10803943 	ldbu	r2,229(r2)
  805390:	10803fcc 	andi	r2,r2,255
  805394:	1080201c 	xori	r2,r2,128
  805398:	10bfe004 	addi	r2,r2,-128
  80539c:	10001a26 	beq	r2,zero,805408 <logic+0x4bd4>
  8053a0:	e0bffc17 	ldw	r2,-16(fp)
  8053a4:	10803683 	ldbu	r2,218(r2)
  8053a8:	10803fcc 	andi	r2,r2,255
  8053ac:	1080201c 	xori	r2,r2,128
  8053b0:	10bfe004 	addi	r2,r2,-128
  8053b4:	1000061e 	bne	r2,zero,8053d0 <logic+0x4b9c>
  8053b8:	e0bffc17 	ldw	r2,-16(fp)
  8053bc:	108038c3 	ldbu	r2,227(r2)
  8053c0:	10803fcc 	andi	r2,r2,255
  8053c4:	1080201c 	xori	r2,r2,128
  8053c8:	10bfe004 	addi	r2,r2,-128
  8053cc:	10000e26 	beq	r2,zero,805408 <logic+0x4bd4>
  8053d0:	e0bffc17 	ldw	r2,-16(fp)
  8053d4:	10803943 	ldbu	r2,229(r2)
  8053d8:	10803fcc 	andi	r2,r2,255
  8053dc:	1080201c 	xori	r2,r2,128
  8053e0:	10bfe004 	addi	r2,r2,-128
  8053e4:	1000061e 	bne	r2,zero,805400 <logic+0x4bcc>
  8053e8:	e0bffc17 	ldw	r2,-16(fp)
  8053ec:	108038c3 	ldbu	r2,227(r2)
  8053f0:	10803fcc 	andi	r2,r2,255
  8053f4:	1080201c 	xori	r2,r2,128
  8053f8:	10bfe004 	addi	r2,r2,-128
  8053fc:	10000226 	beq	r2,zero,805408 <logic+0x4bd4>
  805400:	00800044 	movi	r2,1
  805404:	00000106 	br	80540c <logic+0x4bd8>
  805408:	0005883a 	mov	r2,zero
  80540c:	1007883a 	mov	r3,r2
  805410:	e0bffc17 	ldw	r2,-16(fp)
  805414:	10c03705 	stb	r3,220(r2)
  if (d->_g146) {
  805418:	e0bffc17 	ldw	r2,-16(fp)
  80541c:	10803703 	ldbu	r2,220(r2)
  805420:	10803fcc 	andi	r2,r2,255
  805424:	1080201c 	xori	r2,r2,128
  805428:	10bfe004 	addi	r2,r2,-128
  80542c:	10000326 	beq	r2,zero,80543c <logic+0x4c08>
    d->_region4_null_AEI = 0;
  805430:	e0bffc17 	ldw	r2,-16(fp)
  805434:	10000f15 	stw	zero,60(r2)
  805438:	10001015 	stw	zero,64(r2)
  }
  d->_g153 = d->_GO || d->_g146;
  80543c:	e0bffc17 	ldw	r2,-16(fp)
  805440:	10804543 	ldbu	r2,277(r2)
  805444:	10803fcc 	andi	r2,r2,255
  805448:	1080201c 	xori	r2,r2,128
  80544c:	10bfe004 	addi	r2,r2,-128
  805450:	1000061e 	bne	r2,zero,80546c <logic+0x4c38>
  805454:	e0bffc17 	ldw	r2,-16(fp)
  805458:	10803703 	ldbu	r2,220(r2)
  80545c:	10803fcc 	andi	r2,r2,255
  805460:	1080201c 	xori	r2,r2,128
  805464:	10bfe004 	addi	r2,r2,-128
  805468:	10000226 	beq	r2,zero,805474 <logic+0x4c40>
  80546c:	00800044 	movi	r2,1
  805470:	00000106 	br	805478 <logic+0x4c44>
  805474:	0005883a 	mov	r2,zero
  805478:	1007883a 	mov	r3,r2
  80547c:	e0bffc17 	ldw	r2,-16(fp)
  805480:	10c03845 	stb	r3,225(r2)
  if (d->_g153) {
  805484:	e0bffc17 	ldw	r2,-16(fp)
  805488:	10803843 	ldbu	r2,225(r2)
  80548c:	10803fcc 	andi	r2,r2,255
  805490:	1080201c 	xori	r2,r2,128
  805494:	10bfe004 	addi	r2,r2,-128
  805498:	10000426 	beq	r2,zero,8054ac <logic+0x4c78>
    d->_heart2_local__Atrig14 = 0;
  80549c:	e0bffc17 	ldw	r2,-16(fp)
  8054a0:	10001dc5 	stb	zero,119(r2)
    d->_heart2_local__Atrig15 = 0;
  8054a4:	e0bffc17 	ldw	r2,-16(fp)
  8054a8:	10001e05 	stb	zero,120(r2)
  }
  d->_cg162 = d->_heart2_local__Atrig14 || d->_heart2_local__Atrig15;
  8054ac:	e0bffc17 	ldw	r2,-16(fp)
  8054b0:	10801dc3 	ldbu	r2,119(r2)
  8054b4:	10803fcc 	andi	r2,r2,255
  8054b8:	1080201c 	xori	r2,r2,128
  8054bc:	10bfe004 	addi	r2,r2,-128
  8054c0:	1000061e 	bne	r2,zero,8054dc <logic+0x4ca8>
  8054c4:	e0bffc17 	ldw	r2,-16(fp)
  8054c8:	10801e03 	ldbu	r2,120(r2)
  8054cc:	10803fcc 	andi	r2,r2,255
  8054d0:	1080201c 	xori	r2,r2,128
  8054d4:	10bfe004 	addi	r2,r2,-128
  8054d8:	10000226 	beq	r2,zero,8054e4 <logic+0x4cb0>
  8054dc:	00800044 	movi	r2,1
  8054e0:	00000106 	br	8054e8 <logic+0x4cb4>
  8054e4:	0005883a 	mov	r2,zero
  8054e8:	1007883a 	mov	r3,r2
  8054ec:	e0bffc17 	ldw	r2,-16(fp)
  8054f0:	10c05485 	stb	r3,338(r2)
  d->_g143 = d->_pg195;
  8054f4:	e0bffc17 	ldw	r2,-16(fp)
  8054f8:	10c06a83 	ldbu	r3,426(r2)
  8054fc:	e0bffc17 	ldw	r2,-16(fp)
  805500:	10c036c5 	stb	r3,219(r2)
  if (d->_g143) {
  805504:	e0bffc17 	ldw	r2,-16(fp)
  805508:	108036c3 	ldbu	r2,219(r2)
  80550c:	10803fcc 	andi	r2,r2,255
  805510:	1080201c 	xori	r2,r2,128
  805514:	10bfe004 	addi	r2,r2,-128
  805518:	10001226 	beq	r2,zero,805564 <logic+0x4d30>
    d->_region4_null_AEI += d->deltaT;
  80551c:	e13ffc17 	ldw	r4,-16(fp)
  805520:	20800f17 	ldw	r2,60(r4)
  805524:	20c01017 	ldw	r3,64(r4)
  805528:	e1bffc17 	ldw	r6,-16(fp)
  80552c:	31001317 	ldw	r4,76(r6)
  805530:	31401417 	ldw	r5,80(r6)
  805534:	200d883a 	mov	r6,r4
  805538:	280f883a 	mov	r7,r5
  80553c:	1009883a 	mov	r4,r2
  805540:	180b883a 	mov	r5,r3
  805544:	08079680 	call	807968 <__adddf3>
  805548:	1009883a 	mov	r4,r2
  80554c:	180b883a 	mov	r5,r3
  805550:	2005883a 	mov	r2,r4
  805554:	2807883a 	mov	r3,r5
  805558:	e13ffc17 	ldw	r4,-16(fp)
  80555c:	20800f15 	stw	r2,60(r4)
  805560:	20c01015 	stw	r3,64(r4)
  }
  d->_g190_e1 = d->_pg173;
  805564:	e0bffc17 	ldw	r2,-16(fp)
  805568:	10c06ac3 	ldbu	r3,427(r2)
  80556c:	e0bffc17 	ldw	r2,-16(fp)
  805570:	10c061c5 	stb	r3,391(r2)
  d->_cg179 = d->_region4_null_AEI >= d->AEI_time;
  805574:	e0bffc17 	ldw	r2,-16(fp)
  805578:	14000f17 	ldw	r16,60(r2)
  80557c:	14401017 	ldw	r17,64(r2)
  805580:	e0bffc17 	ldw	r2,-16(fp)
  805584:	10800417 	ldw	r2,16(r2)
  805588:	1009883a 	mov	r4,r2
  80558c:	0808ce00 	call	808ce0 <__floatsidf>
  805590:	1009883a 	mov	r4,r2
  805594:	180b883a 	mov	r5,r3
  805598:	04800044 	movi	r18,1
  80559c:	200d883a 	mov	r6,r4
  8055a0:	280f883a 	mov	r7,r5
  8055a4:	8009883a 	mov	r4,r16
  8055a8:	880b883a 	mov	r5,r17
  8055ac:	08082140 	call	808214 <__gedf2>
  8055b0:	1000010e 	bge	r2,zero,8055b8 <logic+0x4d84>
  8055b4:	0025883a 	mov	r18,zero
  8055b8:	9007883a 	mov	r3,r18
  8055bc:	e0bffc17 	ldw	r2,-16(fp)
  8055c0:	10c056c5 	stb	r3,347(r2)
  d->_g190 = d->_g190_e1 && d->_cg179;
  8055c4:	e0bffc17 	ldw	r2,-16(fp)
  8055c8:	108061c3 	ldbu	r2,391(r2)
  8055cc:	10803fcc 	andi	r2,r2,255
  8055d0:	1080201c 	xori	r2,r2,128
  8055d4:	10bfe004 	addi	r2,r2,-128
  8055d8:	10000826 	beq	r2,zero,8055fc <logic+0x4dc8>
  8055dc:	e0bffc17 	ldw	r2,-16(fp)
  8055e0:	108056c3 	ldbu	r2,347(r2)
  8055e4:	10803fcc 	andi	r2,r2,255
  8055e8:	1080201c 	xori	r2,r2,128
  8055ec:	10bfe004 	addi	r2,r2,-128
  8055f0:	10000226 	beq	r2,zero,8055fc <logic+0x4dc8>
  8055f4:	00800044 	movi	r2,1
  8055f8:	00000106 	br	805600 <logic+0x4dcc>
  8055fc:	0005883a 	mov	r2,zero
  805600:	1007883a 	mov	r3,r2
  805604:	e0bffc17 	ldw	r2,-16(fp)
  805608:	10c03ec5 	stb	r3,251(r2)
  if (d->_g190) {
  80560c:	e0bffc17 	ldw	r2,-16(fp)
  805610:	10803ec3 	ldbu	r2,251(r2)
  805614:	10803fcc 	andi	r2,r2,255
  805618:	1080201c 	xori	r2,r2,128
  80561c:	10bfe004 	addi	r2,r2,-128
  805620:	10000326 	beq	r2,zero,805630 <logic+0x4dfc>
    d->_heart2_local__Atrig14 = 1;
  805624:	e0bffc17 	ldw	r2,-16(fp)
  805628:	00c00044 	movi	r3,1
  80562c:	10c01dc5 	stb	r3,119(r2)
  }
  d->_g194_e2 = d->_g190_e1 && !d->_cg179;
  805630:	e0bffc17 	ldw	r2,-16(fp)
  805634:	108061c3 	ldbu	r2,391(r2)
  805638:	10803fcc 	andi	r2,r2,255
  80563c:	1080201c 	xori	r2,r2,128
  805640:	10bfe004 	addi	r2,r2,-128
  805644:	10000826 	beq	r2,zero,805668 <logic+0x4e34>
  805648:	e0bffc17 	ldw	r2,-16(fp)
  80564c:	108056c3 	ldbu	r2,347(r2)
  805650:	10803fcc 	andi	r2,r2,255
  805654:	1080201c 	xori	r2,r2,128
  805658:	10bfe004 	addi	r2,r2,-128
  80565c:	1000021e 	bne	r2,zero,805668 <logic+0x4e34>
  805660:	00800044 	movi	r2,1
  805664:	00000106 	br	80566c <logic+0x4e38>
  805668:	0005883a 	mov	r2,zero
  80566c:	1007883a 	mov	r3,r2
  805670:	e0bffc17 	ldw	r2,-16(fp)
  805674:	10c06205 	stb	r3,392(r2)
  d->_cg182 = d->a;
  805678:	e0bffc17 	ldw	r2,-16(fp)
  80567c:	10c01883 	ldbu	r3,98(r2)
  805680:	e0bffc17 	ldw	r2,-16(fp)
  805684:	10c05685 	stb	r3,346(r2)
  d->_g194 = d->_g194_e2 && d->_cg182;
  805688:	e0bffc17 	ldw	r2,-16(fp)
  80568c:	10806203 	ldbu	r2,392(r2)
  805690:	10803fcc 	andi	r2,r2,255
  805694:	1080201c 	xori	r2,r2,128
  805698:	10bfe004 	addi	r2,r2,-128
  80569c:	10000826 	beq	r2,zero,8056c0 <logic+0x4e8c>
  8056a0:	e0bffc17 	ldw	r2,-16(fp)
  8056a4:	10805683 	ldbu	r2,346(r2)
  8056a8:	10803fcc 	andi	r2,r2,255
  8056ac:	1080201c 	xori	r2,r2,128
  8056b0:	10bfe004 	addi	r2,r2,-128
  8056b4:	10000226 	beq	r2,zero,8056c0 <logic+0x4e8c>
  8056b8:	00800044 	movi	r2,1
  8056bc:	00000106 	br	8056c4 <logic+0x4e90>
  8056c0:	0005883a 	mov	r2,zero
  8056c4:	1007883a 	mov	r3,r2
  8056c8:	e0bffc17 	ldw	r2,-16(fp)
  8056cc:	10c03f45 	stb	r3,253(r2)
  if (d->_g194) {
  8056d0:	e0bffc17 	ldw	r2,-16(fp)
  8056d4:	10803f43 	ldbu	r2,253(r2)
  8056d8:	10803fcc 	andi	r2,r2,255
  8056dc:	1080201c 	xori	r2,r2,128
  8056e0:	10bfe004 	addi	r2,r2,-128
  8056e4:	10000326 	beq	r2,zero,8056f4 <logic+0x4ec0>
    d->_heart2_local__Atrig15 = 1;
  8056e8:	e0bffc17 	ldw	r2,-16(fp)
  8056ec:	00c00044 	movi	r3,1
  8056f0:	10c01e05 	stb	r3,120(r2)
  }
  d->_cg164 = d->_heart2_local__Atrig14 || d->_heart2_local__Atrig15;
  8056f4:	e0bffc17 	ldw	r2,-16(fp)
  8056f8:	10801dc3 	ldbu	r2,119(r2)
  8056fc:	10803fcc 	andi	r2,r2,255
  805700:	1080201c 	xori	r2,r2,128
  805704:	10bfe004 	addi	r2,r2,-128
  805708:	1000061e 	bne	r2,zero,805724 <logic+0x4ef0>
  80570c:	e0bffc17 	ldw	r2,-16(fp)
  805710:	10801e03 	ldbu	r2,120(r2)
  805714:	10803fcc 	andi	r2,r2,255
  805718:	1080201c 	xori	r2,r2,128
  80571c:	10bfe004 	addi	r2,r2,-128
  805720:	10000226 	beq	r2,zero,80572c <logic+0x4ef8>
  805724:	00800044 	movi	r2,1
  805728:	00000106 	br	805730 <logic+0x4efc>
  80572c:	0005883a 	mov	r2,zero
  805730:	1007883a 	mov	r3,r2
  805734:	e0bffc17 	ldw	r2,-16(fp)
  805738:	10c054c5 	stb	r3,339(r2)
  d->_g195 = d->_g153 && !d->_cg162 || d->_g143 && !d->_cg164;
  80573c:	e0bffc17 	ldw	r2,-16(fp)
  805740:	10803843 	ldbu	r2,225(r2)
  805744:	10803fcc 	andi	r2,r2,255
  805748:	1080201c 	xori	r2,r2,128
  80574c:	10bfe004 	addi	r2,r2,-128
  805750:	10000626 	beq	r2,zero,80576c <logic+0x4f38>
  805754:	e0bffc17 	ldw	r2,-16(fp)
