
303_actual.elf:     file format elf32-littlenios2
303_actual.elf
architecture: nios2:r1, flags 0x00000112:
EXEC_P, HAS_SYMS, D_PAGED
start address 0x00800244

Program Header:
    LOAD off    0x00001000 vaddr 0x00800000 paddr 0x00800000 align 2**12
         filesz 0x00000020 memsz 0x00000020 flags r-x
    LOAD off    0x00001020 vaddr 0x00800020 paddr 0x00800020 align 2**12
         filesz 0x00010930 memsz 0x00010930 flags r-x
    LOAD off    0x00011950 vaddr 0x00810950 paddr 0x008125ac align 2**12
         filesz 0x00001c5c memsz 0x00001c5c flags rw-
    LOAD off    0x00014208 vaddr 0x00814208 paddr 0x00814208 align 2**12
         filesz 0x00000000 memsz 0x000001c4 flags rw-

Sections:
Idx Name          Size      VMA       LMA       File off  Algn
  0 .entry        00000020  00800000  00800000  00001000  2**5
                  CONTENTS, ALLOC, LOAD, READONLY, CODE
  1 .exceptions   00000224  00800020  00800020  00001020  2**2
                  CONTENTS, ALLOC, LOAD, READONLY, CODE
  2 .text         0001030c  00800244  00800244  00001244  2**2
                  CONTENTS, ALLOC, LOAD, READONLY, CODE
  3 .rodata       00000400  00810550  00810550  00011550  2**2
                  CONTENTS, ALLOC, LOAD, READONLY, DATA
  4 .rwdata       00001c5c  00810950  008125ac  00011950  2**2
                  CONTENTS, ALLOC, LOAD, DATA, SMALL_DATA
  5 .bss          000001c4  00814208  00814208  00014208  2**2
                  ALLOC, SMALL_DATA
  6 .sdram        00000000  008143cc  008143cc  000135ac  2**0
                  CONTENTS
  7 .onchip_mem   00000000  01008000  01008000  000135ac  2**0
                  CONTENTS
  8 .comment      00000023  00000000  00000000  000135ac  2**0
                  CONTENTS, READONLY
  9 .debug_aranges 00000d68  00000000  00000000  000135d0  2**3
                  CONTENTS, READONLY, DEBUGGING
 10 .debug_info   00020bc4  00000000  00000000  00014338  2**0
                  CONTENTS, READONLY, DEBUGGING
 11 .debug_abbrev 000084e0  00000000  00000000  00034efc  2**0
                  CONTENTS, READONLY, DEBUGGING
 12 .debug_line   0000b105  00000000  00000000  0003d3dc  2**0
                  CONTENTS, READONLY, DEBUGGING
 13 .debug_frame  00001e6c  00000000  00000000  000484e4  2**2
                  CONTENTS, READONLY, DEBUGGING
 14 .debug_str    00003d70  00000000  00000000  0004a350  2**0
                  CONTENTS, READONLY, DEBUGGING
 15 .debug_loc    000087ec  00000000  00000000  0004e0c0  2**0
                  CONTENTS, READONLY, DEBUGGING
 16 .debug_alt_sim_info 00000060  00000000  00000000  000568ac  2**2
                  CONTENTS, READONLY, DEBUGGING
 17 .debug_ranges 00000da0  00000000  00000000  00056910  2**3
                  CONTENTS, READONLY, DEBUGGING
 18 .thread_model 00000003  00000000  00000000  0005a70d  2**0
                  CONTENTS, READONLY
 19 .cpu          00000003  00000000  00000000  0005a710  2**0
                  CONTENTS, READONLY
 20 .qsys         00000001  00000000  00000000  0005a713  2**0
                  CONTENTS, READONLY
 21 .simulation_enabled 00000001  00000000  00000000  0005a714  2**0
                  CONTENTS, READONLY
 22 .stderr_dev   00000009  00000000  00000000  0005a715  2**0
                  CONTENTS, READONLY
 23 .stdin_dev    00000009  00000000  00000000  0005a71e  2**0
                  CONTENTS, READONLY
 24 .stdout_dev   00000009  00000000  00000000  0005a727  2**0
                  CONTENTS, READONLY
 25 .sopc_system_name 0000000c  00000000  00000000  0005a730  2**0
                  CONTENTS, READONLY
 26 .quartus_project_dir 00000023  00000000  00000000  0005a73c  2**0
                  CONTENTS, READONLY
 27 .sopcinfo     0006b17b  00000000  00000000  0005a75f  2**0
                  CONTENTS, READONLY
SYMBOL TABLE:
00800000 l    d  .entry	00000000 .entry
00800020 l    d  .exceptions	00000000 .exceptions
00800244 l    d  .text	00000000 .text
00810550 l    d  .rodata	00000000 .rodata
00810950 l    d  .rwdata	00000000 .rwdata
00814208 l    d  .bss	00000000 .bss
008143cc l    d  .sdram	00000000 .sdram
01008000 l    d  .onchip_mem	00000000 .onchip_mem
00000000 l    d  .comment	00000000 .comment
00000000 l    d  .debug_aranges	00000000 .debug_aranges
00000000 l    d  .debug_info	00000000 .debug_info
00000000 l    d  .debug_abbrev	00000000 .debug_abbrev
00000000 l    d  .debug_line	00000000 .debug_line
00000000 l    d  .debug_frame	00000000 .debug_frame
00000000 l    d  .debug_str	00000000 .debug_str
00000000 l    d  .debug_loc	00000000 .debug_loc
00000000 l    d  .debug_alt_sim_info	00000000 .debug_alt_sim_info
00000000 l    d  .debug_ranges	00000000 .debug_ranges
00000000 l    df *ABS*	00000000 ../303_actual_bsp//obj/HAL/src/crt0.o
0080028c l       .text	00000000 alt_after_alt_main
00000000 l    df *ABS*	00000000 alt_irq_handler.c
00000000 l    df *ABS*	00000000 alt_instruction_exception_entry.c
00000000 l    df *ABS*	00000000 c_heart.c
00000000 l    df *ABS*	00000000 main.c
00000000 l    df *ABS*	00000000 scchart_heart.c
00000000 l    df *ABS*	00000000 adddf3.c
00000000 l    df *ABS*	00000000 gedf2.c
00000000 l    df *ABS*	00000000 ledf2.c
00000000 l    df *ABS*	00000000 subdf3.c
00000000 l    df *ABS*	00000000 floatsidf.c
00000000 l    df *ABS*	00000000 libgcc2.c
00000000 l    df *ABS*	00000000 libgcc2.c
00000000 l    df *ABS*	00000000 fopen.c
00000000 l    df *ABS*	00000000 fseek.c
00000000 l    df *ABS*	00000000 fseeko.c
00000000 l    df *ABS*	00000000 fstatr.c
00000000 l    df *ABS*	00000000 fwrite.c
00000000 l    df *ABS*	00000000 impure.c
00810950 l     O .rwdata	00000424 impure_data
00000000 l    df *ABS*	00000000 int_errno.c
00000000 l    df *ABS*	00000000 makebuf.c
00000000 l    df *ABS*	00000000 mallocr.c
00000000 l    df *ABS*	00000000 memset.c
00000000 l    df *ABS*	00000000 openr.c
00000000 l    df *ABS*	00000000 puts.c
00000000 l    df *ABS*	00000000 refill.c
00809fec l     F .text	0000001c lflush
00000000 l    df *ABS*	00000000 sbrkr.c
00000000 l    df *ABS*	00000000 stdio.c
00000000 l    df *ABS*	00000000 strlen.c
00000000 l    df *ABS*	00000000 writer.c
00000000 l    df *ABS*	00000000 closer.c
00000000 l    df *ABS*	00000000 fflush.c
00000000 l    df *ABS*	00000000 findfp.c
0080a760 l     F .text	00000008 __fp_unlock
0080a774 l     F .text	0000019c __sinit.part.1
0080a910 l     F .text	00000008 __fp_lock
00000000 l    df *ABS*	00000000 flags.c
00000000 l    df *ABS*	00000000 mallocr.c
00000000 l    df *ABS*	00000000 fvwrite.c
00000000 l    df *ABS*	00000000 fwalk.c
00000000 l    df *ABS*	00000000 isattyr.c
00000000 l    df *ABS*	00000000 lseekr.c
00000000 l    df *ABS*	00000000 memchr.c
00000000 l    df *ABS*	00000000 memcpy.c
00000000 l    df *ABS*	00000000 memmove.c
00000000 l    df *ABS*	00000000 readr.c
00000000 l    df *ABS*	00000000 mallocr.c
00000000 l    df *ABS*	00000000 wsetup.c
00000000 l    df *ABS*	00000000 fclose.c
00000000 l    df *ABS*	00000000 lib2-divmod.c
00000000 l    df *ABS*	00000000 alt_alarm_start.c
00000000 l    df *ABS*	00000000 alt_close.c
0080c55c l     F .text	0000003c alt_get_errno
00000000 l    df *ABS*	00000000 alt_dev.c
0080c668 l     F .text	0000002c alt_dev_null_write
00000000 l    df *ABS*	00000000 alt_errno.c
00000000 l    df *ABS*	00000000 alt_fstat.c
0080c694 l     F .text	0000003c alt_get_errno
00000000 l    df *ABS*	00000000 alt_isatty.c
0080c780 l     F .text	0000003c alt_get_errno
00000000 l    df *ABS*	00000000 alt_load.c
0080c860 l     F .text	00000068 alt_load_section
00000000 l    df *ABS*	00000000 alt_lseek.c
0080c94c l     F .text	0000003c alt_get_errno
00000000 l    df *ABS*	00000000 alt_main.c
00000000 l    df *ABS*	00000000 alt_malloc_lock.c
00000000 l    df *ABS*	00000000 alt_open.c
0080cb20 l     F .text	0000003c alt_get_errno
0080cb5c l     F .text	000000c4 alt_file_locked
00000000 l    df *ABS*	00000000 alt_read.c
0080cd74 l     F .text	0000003c alt_get_errno
00000000 l    df *ABS*	00000000 alt_release_fd.c
00000000 l    df *ABS*	00000000 alt_sbrk.c
00812594 l     O .rwdata	00000004 heap_end
00000000 l    df *ABS*	00000000 alt_tick.c
00000000 l    df *ABS*	00000000 alt_write.c
0080d164 l     F .text	0000003c alt_get_errno
00000000 l    df *ABS*	00000000 alt_sys_init.c
0080d298 l     F .text	00000034 alt_dev_reg
00811324 l     O .rwdata	00001060 jtag_uart
00812384 l     O .rwdata	00000120 lcd
008124a4 l     O .rwdata	000000c4 uart
00000000 l    df *ABS*	00000000 altera_avalon_jtag_uart_fd.c
00000000 l    df *ABS*	00000000 altera_avalon_jtag_uart_init.c
0080d5c0 l     F .text	0000020c altera_avalon_jtag_uart_irq
0080d7cc l     F .text	000000a0 altera_avalon_jtag_uart_timeout
00000000 l    df *ABS*	00000000 altera_avalon_jtag_uart_ioctl.c
00000000 l    df *ABS*	00000000 altera_avalon_jtag_uart_read.c
00000000 l    df *ABS*	00000000 altera_avalon_jtag_uart_write.c
00000000 l    df *ABS*	00000000 altera_avalon_lcd_16207.c
008125a0 l     O .rwdata	00000004 colstart
0080de04 l     F .text	000000b8 lcd_write_command
0080debc l     F .text	000000d8 lcd_write_data
0080df94 l     F .text	000000d0 lcd_clear_screen
0080e064 l     F .text	000001ec lcd_repaint_screen
0080e250 l     F .text	000000cc lcd_scroll_up
0080e31c l     F .text	000002ac lcd_handle_escape
0080eaa0 l     F .text	000000ac alt_lcd_16207_timeout
00000000 l    df *ABS*	00000000 altera_avalon_lcd_16207_fd.c
00000000 l    df *ABS*	00000000 altera_avalon_timer_sc.c
0080ece0 l     F .text	00000078 alt_avalon_timer_sc_irq
00000000 l    df *ABS*	00000000 altera_avalon_uart_fd.c
00000000 l    df *ABS*	00000000 altera_avalon_uart_init.c
0080ef90 l     F .text	0000009c altera_avalon_uart_irq
0080f02c l     F .text	000000e4 altera_avalon_uart_rxirq
0080f110 l     F .text	00000148 altera_avalon_uart_txirq
00000000 l    df *ABS*	00000000 altera_avalon_uart_read.c
0080f2ac l     F .text	0000003c alt_get_errno
00000000 l    df *ABS*	00000000 altera_avalon_uart_write.c
0080f4c4 l     F .text	0000003c alt_get_errno
00000000 l    df *ABS*	00000000 alt_dcache_flush_all.c
00000000 l    df *ABS*	00000000 alt_dev_llist_insert.c
0080f6f4 l     F .text	0000003c alt_get_errno
00000000 l    df *ABS*	00000000 alt_do_ctors.c
00000000 l    df *ABS*	00000000 alt_do_dtors.c
00000000 l    df *ABS*	00000000 alt_find_dev.c
00000000 l    df *ABS*	00000000 alt_find_file.c
00000000 l    df *ABS*	00000000 alt_get_fd.c
00000000 l    df *ABS*	00000000 alt_icache_flush_all.c
00000000 l    df *ABS*	00000000 alt_iic.c
00000000 l    df *ABS*	00000000 alt_iic_isr_register.c
00000000 l    df *ABS*	00000000 alt_io_redirect.c
0080fda4 l     F .text	000000c4 alt_open_fd
00000000 l    df *ABS*	00000000 alt_irq_vars.c
00000000 l    df *ABS*	00000000 alt_usleep.c
00000000 l    df *ABS*	00000000 altera_nios2_gen2_irq.c
00000000 l    df *ABS*	00000000 alt_busy_sleep.c
00000000 l    df *ABS*	00000000 alt_icache_flush.c
00000000 l    df *ABS*	00000000 atexit.c
00000000 l    df *ABS*	00000000 ctype_.c
008107cf l     O .rodata	00000180 _ctype_b
00000000 l    df *ABS*	00000000 exit.c
00000000 l    df *ABS*	00000000 memcmp.c
00000000 l    df *ABS*	00000000 __atexit.c
00000000 l    df *ABS*	00000000 __call_atexit.c
00000000 l    df *ABS*	00000000 alt_exit.c
00814240 g     O .bss	00000004 alt_instruction_exception_handler
0080b624 g     F .text	00000054 _isatty_r
0080ca5c g     F .text	0000007c alt_main
00809f18 g     F .text	000000c0 _puts_r
008142cc g     O .bss	00000100 alt_irq
0080b678 g     F .text	00000060 _lseek_r
008125ac g       *ABS*	00000000 __flash_rwdata_start
0080ab00 g     F .text	000000ac __sflags
008143cc g       *ABS*	00000000 __alt_heap_start
0080a308 g     F .text	0000005c __sseek
0080aab0 g     F .text	00000010 __sinit
0080a918 g     F .text	00000068 __sfmoreglue
0080cafc g     F .text	00000024 __malloc_unlock
00814210 g     O .bss	00000004 fp
0080b904 g     F .text	0000015c memmove
0080aa98 g     F .text	00000018 _cleanup
008080d4 g     F .text	000000dc .hidden __gtdf2
0080ff14 g     F .text	00000024 altera_nios2_gen2_irq_init
00800000 g     F .entry	0000001c __reset
00800020 g       *ABS*	00000000 __flash_exceptions_start
0080926c g     F .text	0000005c _fstat_r
00814218 g     O .bss	00000004 errno
0080a284 g     F .text	00000008 __seofread
0081422c g     O .bss	00000004 alt_argv
00812569 g     O .rwdata	00000001 ignore_a
0081a568 g       *ABS*	00000000 _gp
0080fee4 g     F .text	00000030 usleep
0080737c g     F .text	00000220 reset
008111a4 g     O .rwdata	00000180 alt_fd_list
0080f894 g     F .text	00000090 alt_find_dev
0080b7bc g     F .text	00000148 memcpy
0080a768 g     F .text	0000000c _cleanup_r
00808ba0 g     F .text	000000dc .hidden __floatsidf
0080fe68 g     F .text	0000007c alt_io_redirect
008081b0 g     F .text	000000f4 .hidden __ltdf2
00810550 g       *ABS*	00000000 __DTOR_END__
00800384 g     F .text	00000024 PVARP_interrupt
00809fd8 g     F .text	00000014 puts
00810120 g     F .text	0000009c alt_exception_cause_generated_bad_addr
0080d9c4 g     F .text	0000021c altera_avalon_jtag_uart_read
0080c374 g     F .text	00000064 .hidden __udivsi3
0080c7bc g     F .text	000000a4 isatty
0081420b g     O .bss	00000001 need_v_pulse
00810090 g     F .text	00000090 alt_icache_flush
00814224 g     O .bss	00000004 __malloc_top_pad
0080afe0 g     F .text	000004bc __sfvwrite_r
0080a1dc g     F .text	00000054 _sbrk_r
00814214 g     O .bss	00000001 char_recieve
0080ba60 g     F .text	00000060 _read_r
0081258c g     O .rwdata	00000004 alt_max_fd
0080c178 g     F .text	000000f0 _fclose_r
0080a730 g     F .text	00000030 fflush
00814220 g     O .bss	00000004 __malloc_max_sbrked_mem
0081420e g     O .bss	00000001 ap
00807828 g     F .text	000008ac .hidden __adddf3
0080c988 g     F .text	000000d4 lseek
0081256c g     O .rwdata	00000004 _global_impure_ptr
0080bac0 g     F .text	00000564 _realloc_r
008143cc g       *ABS*	00000000 __bss_end
0080fcb4 g     F .text	000000f0 alt_iic_isr_register
0080d05c g     F .text	00000108 alt_tick
0080eee4 g     F .text	000000ac altera_avalon_uart_init
0080aad0 g     F .text	00000018 __fp_lock_all
0080fc68 g     F .text	0000004c alt_ic_irq_enabled
0080cfc0 g     F .text	0000009c alt_alarm_stop
0081423c g     O .bss	00000004 alt_irq_active
00808e0c g     F .text	00000444 _fseeko_r
01008000 g       *ABS*	00000000 __alt_mem_onchip_mem
008000fc g     F .exceptions	000000d4 alt_irq_handler
0081117c g     O .rwdata	00000028 alt_dev_null
0081420c g     O .bss	00000001 started
0080f6ac g     F .text	00000048 alt_dcache_flush_all
00814208 g     O .bss	00000001 can_vpulse
008125ac g       *ABS*	00000000 __ram_rwdata_end
00812584 g     O .rwdata	00000008 alt_dev_list
0080d1a0 g     F .text	000000f8 write
00810950 g       *ABS*	00000000 __ram_rodata_end
0080c6d0 g     F .text	000000b0 fstat
008081b0 g     F .text	000000f4 .hidden __ledf2
0080c3d8 g     F .text	00000058 .hidden __umodsi3
00800290 g     F .text	000000f4 start_cycle
008143cc g       *ABS*	00000000 end
0080e5c8 g     F .text	000004d8 altera_avalon_lcd_16207_write
00809250 g     F .text	0000001c fseeko
0080f500 g     F .text	000001ac altera_avalon_uart_write
00808df0 g     F .text	0000001c fseek
0080d500 g     F .text	000000c0 altera_avalon_jtag_uart_init
008001d0 g     F .exceptions	00000074 alt_instruction_exception_entry
00810550 g       *ABS*	00000000 __CTOR_LIST__
01000000 g       *ABS*	00000000 __alt_stack_pointer
0080ed58 g     F .text	0000007c alt_avalon_timer_sc_init
0080ee34 g     F .text	00000060 altera_avalon_uart_write_fd
00808c7c g     F .text	00000064 .hidden __clzsi2
0080ee94 g     F .text	00000050 altera_avalon_uart_close_fd
0080dbe0 g     F .text	00000224 altera_avalon_jtag_uart_write
0080aac0 g     F .text	00000004 __sfp_lock_acquire
0080b6d8 g     F .text	000000e4 memchr
0080acd0 g     F .text	00000310 _free_r
0081039c g     F .text	00000180 __call_exitprocs
00812574 g     O .rwdata	00000004 __malloc_sbrk_base
00800244 g     F .text	0000004c _start
00814234 g     O .bss	00000004 _alt_tick_rate
00814238 g     O .bss	00000004 _alt_nticks
0080cdb0 g     F .text	000000fc read
0080d304 g     F .text	00000098 alt_sys_init
0081426c g     O .bss	00000018 URI_LRI
00809eb8 g     F .text	00000060 _open_r
00810284 g     F .text	00000118 __register_exitproc
0080d86c g     F .text	00000068 altera_avalon_jtag_uart_close
00810950 g       *ABS*	00000000 __ram_rwdata_start
00810550 g       *ABS*	00000000 __ram_rodata_start
00814244 g     O .bss	00000028 __malloc_current_mallinfo
0080d39c g     F .text	00000060 altera_avalon_jtag_uart_read_fd
0080fa2c g     F .text	000000a4 alt_get_fd
0080ff38 g     F .text	00000158 alt_busy_sleep
0080a464 g     F .text	00000054 _close_r
008003a8 g     F .text	00000024 VRP_interrupt
00810208 g     F .text	0000007c memcmp
0080d45c g     F .text	00000050 altera_avalon_jtag_uart_close_fd
008143cc g       *ABS*	00000000 __alt_stack_base
0080d4ac g     F .text	00000054 altera_avalon_jtag_uart_ioctl_fd
008092c8 g     F .text	000000cc _fwrite_r
0080c024 g     F .text	00000154 __swsetup_r
0080759c g     F .text	0000028c tick
0080a980 g     F .text	00000118 __sfp
00810d74 g     O .rwdata	00000408 __malloc_av_
0080aacc g     F .text	00000004 __sinit_lock_release
0080a230 g     F .text	00000054 __sread
0080f924 g     F .text	00000108 alt_find_file
00812568 g     O .rwdata	00000001 ignore_v
0080f730 g     F .text	000000a4 alt_dev_llist_insert
0080cad8 g     F .text	00000024 __malloc_lock
0080cf10 g     F .text	000000b0 sbrk
0080a6d4 g     F .text	0000005c _fflush_r
00808dd4 g     F .text	00000018 fopen
00814208 g       *ABS*	00000000 __bss_start
00809d90 g     F .text	00000128 memset
00800530 g     F .text	0000026c main
00814284 g     O .bss	00000018 VRP
00814230 g     O .bss	00000004 alt_envp
0081421c g     O .bss	00000004 __malloc_max_total_mem
0080d3fc g     F .text	00000060 altera_avalon_jtag_uart_write_fd
0080eb4c g     F .text	00000134 altera_avalon_lcd_16207_init
0080a364 g     F .text	00000008 __sclose
01000000 g       *ABS*	00000000 __alt_heap_limit
0080c268 g     F .text	00000014 fclose
00809584 g     F .text	0000080c _malloc_r
00812590 g     O .rwdata	00000004 alt_errno
0081420d g     O .bss	00000001 vp
0080b49c g     F .text	000000c4 _fwalk
0080c27c g     F .text	00000084 .hidden __divsi3
0080abac g     F .text	00000124 _malloc_trim_r
00810550 g       *ABS*	00000000 __CTOR_END__
00810550 g       *ABS*	00000000 __flash_rodata_start
00810550 g       *ABS*	00000000 __DTOR_LIST__
0080d2cc g     F .text	00000038 alt_irq_init
0080ceac g     F .text	00000064 alt_release_fd
008003cc g     F .text	00000054 URI_LRI_interrupt
00810582 g     O .rodata	00000100 .hidden __clz_tab
008101bc g     F .text	00000014 atexit
00800420 g     F .text	00000070 AEI_AVI_interrupt
0080a404 g     F .text	00000060 _write_r
00812570 g     O .rwdata	00000004 _impure_ptr
00814228 g     O .bss	00000004 alt_argc
0080a4b8 g     F .text	0000021c __sflush_r
0080f834 g     F .text	00000060 _do_dtors
00808dec g     F .text	00000004 _fseek_r
0080a008 g     F .text	000001d4 __srefill_r
00800020 g       .exceptions	00000000 alt_irq_entry
0080aae8 g     F .text	00000018 __fp_unlock_all
0081420a g     O .bss	00000001 is_recent_a
0080ec80 g     F .text	00000060 altera_avalon_lcd_16207_write_fd
0081257c g     O .rwdata	00000008 alt_fs_list
00800020 g       *ABS*	00000000 __ram_exceptions_start
0081429c g     O .bss	00000018 AEI_AVI
0080fb04 g     F .text	00000050 alt_ic_isr_register
00809394 g     F .text	00000034 fwrite
008125ac g       *ABS*	00000000 _edata
0080edd4 g     F .text	00000060 altera_avalon_uart_read_fd
008143cc g       *ABS*	00000000 _end
00800244 g       *ABS*	00000000 __ram_exceptions_end
0080d8d4 g     F .text	000000f0 altera_avalon_jtag_uart_ioctl
00800490 g     F .text	0000003c extern_v_interrupt
0080fbdc g     F .text	0000008c alt_ic_irq_disable
0080a28c g     F .text	0000007c __swrite
00812578 g     O .rwdata	00000004 __malloc_trim_threshold
008101d0 g     F .text	00000038 exit
008142b4 g     O .bss	00000018 PVARP
0080b560 g     F .text	000000c4 _fwalk_reent
0080c300 g     F .text	00000074 .hidden __modsi3
0080079c g     F .text	00006be0 logic
008125a8 g     O .rwdata	00000004 __ctype_ptr__
01000000 g       *ABS*	00000000 __alt_data_end
00800020 g     F .exceptions	00000000 alt_exception
0080aac4 g     F .text	00000004 __sfp_lock_release
00800000 g       *ABS*	00000000 __alt_mem_sdram
00814209 g     O .bss	00000001 reset_cycle
008106ce g     O .rodata	00000101 _ctype_
0080f258 g     F .text	00000054 altera_avalon_uart_close
00808ce0 g     F .text	000000f4 _fopen_r
0081051c g     F .text	00000034 _exit
0080c430 g     F .text	0000012c alt_alarm_start
008093c8 g     F .text	000001bc __smakebuf_r
0080a36c g     F .text	00000098 strlen
0080cc20 g     F .text	00000154 open
008080d4 g     F .text	000000dc .hidden __gedf2
0080fad0 g     F .text	00000034 alt_icache_flush_all
008125a4 g     O .rwdata	00000004 alt_priority_mask
0080fb54 g     F .text	00000088 alt_ic_irq_enable
0080f2e8 g     F .text	000001dc altera_avalon_uart_read
008082a4 g     F .text	000008fc .hidden __subdf3
00812598 g     O .rwdata	00000008 alt_alarm_list
0080f7d4 g     F .text	00000060 _do_ctors
0080c598 g     F .text	000000d0 close
0080c8c8 g     F .text	00000084 alt_load
008004cc g     F .text	00000064 extern_a_interrupt
0080aac8 g     F .text	00000004 __sinit_lock_acquire



Disassembly of section .entry:

00800000 <__reset>:
#if NIOS2_ICACHE_SIZE > 0 && defined(ALT_ALLOW_CODE_AT_RESET) && (!defined(ALT_SIM_OPTIMIZE) || defined(NIOS2_ECC_PRESENT))
    /* Assume the instruction cache size is always a power of two. */
#if NIOS2_ICACHE_SIZE > 0x8000
    movhi r2, %hi(NIOS2_ICACHE_SIZE)
#else
    movui r2, NIOS2_ICACHE_SIZE
  800000:	00840014 	movui	r2,4096
#endif

0:
    initi r2
  800004:	1001483a 	initi	r2
    addi r2, r2, -NIOS2_ICACHE_LINE_SIZE
  800008:	10bff804 	addi	r2,r2,-32
    bgt r2, zero, 0b
  80000c:	00bffd16 	blt	zero,r2,800004 <__alt_mem_onchip_mem+0xff7f8004>
 * Jump to the _start entry point in the .text section if reset code
 * is allowed or if optimizing for RTL simulation.
 */
#if defined(ALT_ALLOW_CODE_AT_RESET) || defined(ALT_SIM_OPTIMIZE)
    /* Jump to the _start entry point in the .text section. */
    movhi r1, %hi(_start)
  800010:	00402034 	movhi	at,128
    ori r1, r1, %lo(_start)
  800014:	08409114 	ori	at,at,580
    jmp r1
  800018:	0800683a 	jmp	at
  80001c:	00000000 	call	0 <__alt_mem_sdram-0x800000>

Disassembly of section .exceptions:

00800020 <alt_exception>:

#else /* ALT_EXCEPTION_STACK disabled */
        /* 
         * Reserve space on normal stack for registers about to be pushed.
         */
        addi  sp, sp, -76
  800020:	deffed04 	addi	sp,sp,-76
         * documentation for details).
         *
         * Leave a gap in the stack frame at 4(sp) for the muldiv handler to
         * store zero into.
         */
        stw   ra,  0(sp)
  800024:	dfc00015 	stw	ra,0(sp)
        stw   r1,   8(sp)
  800028:	d8400215 	stw	at,8(sp)
        stw   r2,  12(sp)
  80002c:	d8800315 	stw	r2,12(sp)
        stw   r3,  16(sp)
  800030:	d8c00415 	stw	r3,16(sp)
        stw   r4,  20(sp)
  800034:	d9000515 	stw	r4,20(sp)
        stw   r5,  24(sp)
  800038:	d9400615 	stw	r5,24(sp)
        stw   r6,  28(sp)
  80003c:	d9800715 	stw	r6,28(sp)
        stw   r7,  32(sp)
  800040:	d9c00815 	stw	r7,32(sp)
        rdctl r5, estatus   /* Read early to avoid usage stall */
  800044:	000b307a 	rdctl	r5,estatus
        stw   r8,  36(sp)
  800048:	da000915 	stw	r8,36(sp)
        stw   r9,  40(sp)
  80004c:	da400a15 	stw	r9,40(sp)
        stw   r10, 44(sp)
  800050:	da800b15 	stw	r10,44(sp)
        stw   r11, 48(sp)
  800054:	dac00c15 	stw	r11,48(sp)
        stw   r12, 52(sp)
  800058:	db000d15 	stw	r12,52(sp)
        stw   r13, 56(sp)
  80005c:	db400e15 	stw	r13,56(sp)
        stw   r14, 60(sp)
  800060:	db800f15 	stw	r14,60(sp)
        stw   r15, 64(sp)
  800064:	dbc01015 	stw	r15,64(sp)
        /*
         * ea-4 contains the address of the instruction being executed
         * when the exception occured. For interrupt exceptions, we will
         * will be re-issue the isntruction. Store it in 72(sp)
         */
        stw   r5,  68(sp)  /* estatus */
  800068:	d9401115 	stw	r5,68(sp)
        addi  r15, ea, -4  /* instruction that caused exception */
  80006c:	ebffff04 	addi	r15,ea,-4
        stw   r15,  72(sp)
  800070:	dbc01215 	stw	r15,72(sp)
#else
        /*
         * Test to see if the exception was a software exception or caused 
         * by an external interrupt, and vector accordingly.
         */
        rdctl r4, ipending
  800074:	0009313a 	rdctl	r4,ipending
        andi  r2, r5, 1
  800078:	2880004c 	andi	r2,r5,1
        beq   r2, zero, .Lnot_irq
  80007c:	10000326 	beq	r2,zero,80008c <alt_exception+0x6c>
        beq   r4, zero, .Lnot_irq
  800080:	20000226 	beq	r4,zero,80008c <alt_exception+0x6c>
        /*
         * Now that all necessary registers have been preserved, call 
         * alt_irq_handler() to process the interrupts.
         */

        call alt_irq_handler
  800084:	08000fc0 	call	8000fc <alt_irq_handler>

        .section .exceptions.irqreturn, "xa"

        br    .Lexception_exit
  800088:	00000706 	br	8000a8 <alt_exception+0x88>
         * upon completion, so we write ea (address of instruction *after*
         * the one where the exception occured) into 72(sp). The actual
         * instruction that caused the exception is written in r2, which these
         * handlers will utilize.
         */
        stw ea, 72(sp) /* EA is PC+4 so will skip over instruction causing exception */
  80008c:	df401215 	stw	ea,72(sp)
.Lunknown_16bit:
        addi.n r4, r4, 2 /* Need PC+2 to skip over instruction causing exception */
        stw r4, 72(sp)

#else /* CDX is not Enabled and all instructions are 32bits */
        ldw r2, -4(ea) /* Instruction value that caused exception */
  800090:	e8bfff17 	ldw	r2,-4(ea)
         * debugger is present) or go into an infinite loop since the
         * handling behavior is undefined; in that case we will not return here.
         */

        /* Load exception-causing address as first argument (r4) */
        addi   r4, ea, -4
  800094:	e93fff04 	addi	r4,ea,-4

        /* Call the instruction-exception entry */
        call   alt_instruction_exception_entry
  800098:	08001d00 	call	8001d0 <alt_instruction_exception_entry>
         * instruction
         *
         * Return code was 0: Skip. The instruction after the exception is
         * already stored in 72(sp).
         */
        bne   r2, r0, .Lexception_exit
  80009c:	1000021e 	bne	r2,zero,8000a8 <alt_exception+0x88>

        /*
         * Otherwise, modify 72(sp) to re-issue the instruction that caused the
         * exception.
         */
        addi  r15, ea, -4  /* instruction that caused exception */
  8000a0:	ebffff04 	addi	r15,ea,-4
        stw   r15,  72(sp)
  8000a4:	dbc01215 	stw	r15,72(sp)
        /* 
         * Restore the saved registers, so that all general purpose registers 
         * have been restored to their state at the time the interrupt occured.
         */

        ldw   r5,  68(sp)
  8000a8:	d9401117 	ldw	r5,68(sp)
        ldw   ea,  72(sp)  /* This becomes the PC once eret is executed */
  8000ac:	df401217 	ldw	ea,72(sp)
        ldw   ra,   0(sp)
  8000b0:	dfc00017 	ldw	ra,0(sp)

        wrctl estatus, r5
  8000b4:	2801707a 	wrctl	estatus,r5

        ldw   r1,   8(sp)
  8000b8:	d8400217 	ldw	at,8(sp)
        ldw   r2,  12(sp)
  8000bc:	d8800317 	ldw	r2,12(sp)
        ldw   r3,  16(sp)
  8000c0:	d8c00417 	ldw	r3,16(sp)
        ldw   r4,  20(sp)
  8000c4:	d9000517 	ldw	r4,20(sp)
        ldw   r5,  24(sp)
  8000c8:	d9400617 	ldw	r5,24(sp)
        ldw   r6,  28(sp)
  8000cc:	d9800717 	ldw	r6,28(sp)
        ldw   r7,  32(sp)
  8000d0:	d9c00817 	ldw	r7,32(sp)

#if defined(ALT_EXCEPTION_STACK) && defined(ALT_STACK_CHECK)
        ldw   et, %gprel(alt_exception_old_stack_limit)(gp)
#endif

        ldw   r8,  36(sp)
  8000d4:	da000917 	ldw	r8,36(sp)
        ldw   r9,  40(sp)
  8000d8:	da400a17 	ldw	r9,40(sp)
        ldw   r10, 44(sp)
  8000dc:	da800b17 	ldw	r10,44(sp)
        ldw   r11, 48(sp)
  8000e0:	dac00c17 	ldw	r11,48(sp)
        ldw   r12, 52(sp)
  8000e4:	db000d17 	ldw	r12,52(sp)
        ldw   r13, 56(sp)
  8000e8:	db400e17 	ldw	r13,56(sp)
        ldw   r14, 60(sp)
  8000ec:	db800f17 	ldw	r14,60(sp)
        ldw   r15, 64(sp)
  8000f0:	dbc01017 	ldw	r15,64(sp)
        stw   et, %gprel(alt_stack_limit_value)(gp)
        stw   zero, %gprel(alt_exception_old_stack_limit)(gp)
#endif /* ALT_STACK_CHECK */
        ldw   sp,  76(sp)
#else /* ALT_EXCEPTION_STACK disabled */
        addi  sp, sp, 76
  8000f4:	dec01304 	addi	sp,sp,76

        /*
         * Return to the interrupted instruction.
         */

        eret
  8000f8:	ef80083a 	eret

008000fc <alt_irq_handler>:
 * instruction is present if the macro ALT_CI_INTERRUPT_VECTOR defined.
 */

void alt_irq_handler (void) __attribute__ ((section (".exceptions")));
void alt_irq_handler (void)
{
  8000fc:	defff904 	addi	sp,sp,-28
  800100:	dfc00615 	stw	ra,24(sp)
  800104:	df000515 	stw	fp,20(sp)
  800108:	df000504 	addi	fp,sp,20
  
  /*
   * Notify the operating system that we are at interrupt level.
   */ 
  
  ALT_OS_INT_ENTER();
  80010c:	0001883a 	nop
#ifndef NIOS2_EIC_PRESENT
static ALT_INLINE alt_u32 ALT_ALWAYS_INLINE alt_irq_pending (void)
{
  alt_u32 active;

  NIOS2_READ_IPENDING (active);
  800110:	0005313a 	rdctl	r2,ipending
  800114:	e0bffe15 	stw	r2,-8(fp)

  return active;
  800118:	e0bffe17 	ldw	r2,-8(fp)
   * Consider the case where the high priority interupt is asserted during
   * the interrupt entry sequence for a lower priority interrupt to see why
   * this is the case.
   */

  active = alt_irq_pending ();
  80011c:	e0bffb15 	stw	r2,-20(fp)

  do
  {
    i = 0;
  800120:	e03ffd15 	stw	zero,-12(fp)
    mask = 1;
  800124:	00800044 	movi	r2,1
  800128:	e0bffc15 	stw	r2,-16(fp)
     * called to clear the interrupt condition.
     */

    do
    {
      if (active & mask)
  80012c:	e0fffb17 	ldw	r3,-20(fp)
  800130:	e0bffc17 	ldw	r2,-16(fp)
  800134:	1884703a 	and	r2,r3,r2
  800138:	10001426 	beq	r2,zero,80018c <alt_irq_handler+0x90>
      { 
#ifdef ALT_ENHANCED_INTERRUPT_API_PRESENT
        alt_irq[i].handler(alt_irq[i].context); 
  80013c:	00802074 	movhi	r2,129
  800140:	1090b304 	addi	r2,r2,17100
  800144:	e0fffd17 	ldw	r3,-12(fp)
  800148:	180690fa 	slli	r3,r3,3
  80014c:	10c5883a 	add	r2,r2,r3
  800150:	10c00017 	ldw	r3,0(r2)
  800154:	00802074 	movhi	r2,129
  800158:	1090b304 	addi	r2,r2,17100
  80015c:	e13ffd17 	ldw	r4,-12(fp)
  800160:	200890fa 	slli	r4,r4,3
  800164:	1105883a 	add	r2,r2,r4
  800168:	10800104 	addi	r2,r2,4
  80016c:	10800017 	ldw	r2,0(r2)
  800170:	1009883a 	mov	r4,r2
  800174:	183ee83a 	callr	r3
#else
        alt_irq[i].handler(alt_irq[i].context, i); 
#endif
        break;
  800178:	0001883a 	nop
#ifndef NIOS2_EIC_PRESENT
static ALT_INLINE alt_u32 ALT_ALWAYS_INLINE alt_irq_pending (void)
{
  alt_u32 active;

  NIOS2_READ_IPENDING (active);
  80017c:	0005313a 	rdctl	r2,ipending
  800180:	e0bfff15 	stw	r2,-4(fp)

  return active;
  800184:	e0bfff17 	ldw	r2,-4(fp)
  800188:	00000706 	br	8001a8 <alt_irq_handler+0xac>
      }
      mask <<= 1;
  80018c:	e0bffc17 	ldw	r2,-16(fp)
  800190:	1085883a 	add	r2,r2,r2
  800194:	e0bffc15 	stw	r2,-16(fp)
      i++;
  800198:	e0bffd17 	ldw	r2,-12(fp)
  80019c:	10800044 	addi	r2,r2,1
  8001a0:	e0bffd15 	stw	r2,-12(fp)

    } while (1);
  8001a4:	003fe106 	br	80012c <__alt_mem_onchip_mem+0xff7f812c>

    active = alt_irq_pending ();
  8001a8:	e0bffb15 	stw	r2,-20(fp)
    
  } while (active);
  8001ac:	e0bffb17 	ldw	r2,-20(fp)
  8001b0:	103fdb1e 	bne	r2,zero,800120 <__alt_mem_onchip_mem+0xff7f8120>

  /*
   * Notify the operating system that interrupt processing is complete.
   */ 

  ALT_OS_INT_EXIT();
  8001b4:	0001883a 	nop
}
  8001b8:	0001883a 	nop
  8001bc:	e037883a 	mov	sp,fp
  8001c0:	dfc00117 	ldw	ra,4(sp)
  8001c4:	df000017 	ldw	fp,0(sp)
  8001c8:	dec00204 	addi	sp,sp,8
  8001cc:	f800283a 	ret

008001d0 <alt_instruction_exception_entry>:
 * that handler if it has been registered. Absent a handler, it will
 * break break or hang as discussed below.
 */
int 
alt_instruction_exception_entry (alt_u32 exception_pc)
{
  8001d0:	defffb04 	addi	sp,sp,-20
  8001d4:	dfc00415 	stw	ra,16(sp)
  8001d8:	df000315 	stw	fp,12(sp)
  8001dc:	df000304 	addi	fp,sp,12
  8001e0:	e13fff15 	stw	r4,-4(fp)
 * NIOS2_EXCEPTION_CAUSE_NOT_PRESENT. Your handling routine should
 * check the validity of the cause argument before proceeding.
 */
#ifdef NIOS2_HAS_EXTRA_EXCEPTION_INFO
  /* Get exception cause & "badaddr" */
  NIOS2_READ_EXCEPTION(cause);
  8001e4:	000531fa 	rdctl	r2,exception
  8001e8:	e0bffd15 	stw	r2,-12(fp)
  cause = ( (cause & NIOS2_EXCEPTION_REG_CAUSE_MASK) >>
  8001ec:	e0bffd17 	ldw	r2,-12(fp)
  8001f0:	10801f0c 	andi	r2,r2,124
  8001f4:	1004d0ba 	srli	r2,r2,2
  8001f8:	e0bffd15 	stw	r2,-12(fp)
              NIOS2_EXCEPTION_REG_CAUSE_OFST );

  NIOS2_READ_BADADDR(badaddr);
  8001fc:	0005333a 	rdctl	r2,badaddr
  800200:	e0bffe15 	stw	r2,-8(fp)
#else
  cause = NIOS2_EXCEPTION_CAUSE_NOT_PRESENT;
  badaddr = 0;
#endif /* NIOS2_HAS_EXTRA_EXCEPTION_INFO */

  if(alt_instruction_exception_handler) {
  800204:	d0a73617 	ldw	r2,-25384(gp)
  800208:	10000726 	beq	r2,zero,800228 <alt_instruction_exception_entry+0x58>
     * Call handler. Its return value indicates whether the exception-causing
     * instruction should be re-issued. The code that called us,
     * alt_eceptions_entry.S, will look at this value and adjust the ea
     * register as necessary
     */
    return alt_instruction_exception_handler(cause, exception_pc, badaddr);
  80020c:	d0a73617 	ldw	r2,-25384(gp)
  800210:	e0fffd17 	ldw	r3,-12(fp)
  800214:	e1bffe17 	ldw	r6,-8(fp)
  800218:	e17fff17 	ldw	r5,-4(fp)
  80021c:	1809883a 	mov	r4,r3
  800220:	103ee83a 	callr	r2
  800224:	00000206 	br	800230 <alt_instruction_exception_entry+0x60>
   *    (a peripheral which negates its interrupt output before its
   *    interrupt handler has been executed will cause spurious interrupts)
   */
  else {
#ifdef NIOS2_HAS_DEBUG_STUB
    NIOS2_BREAK();
  800228:	003da03a 	break	0
      ;
#endif /* NIOS2_HAS_DEBUG_STUB */
  }

  /* We should not get here. Remove compiler warning. */
  return NIOS2_EXCEPTION_RETURN_REISSUE_INST;
  80022c:	0005883a 	mov	r2,zero
}
  800230:	e037883a 	mov	sp,fp
  800234:	dfc00117 	ldw	ra,4(sp)
  800238:	df000017 	ldw	fp,0(sp)
  80023c:	dec00204 	addi	sp,sp,8
  800240:	f800283a 	ret

Disassembly of section .text:

00800244 <_start>:

    /* Assume the data cache size is always a power of two. */
#if NIOS2_DCACHE_SIZE > 0x8000
    movhi r2, %hi(NIOS2_DCACHE_SIZE)
#else
    movui r2, NIOS2_DCACHE_SIZE
  800244:	00820014 	movui	r2,2048
#endif

0:
    initd 0(r2)
  800248:	10000033 	initd	0(r2)
#ifdef NIOS2_ECC_PRESENT
    addi r2, r2, -4
#else
    addi r2, r2, -NIOS2_DCACHE_LINE_SIZE
  80024c:	10bff804 	addi	r2,r2,-32
#endif
    bgt r2, zero, 0b
  800250:	00bffd16 	blt	zero,r2,800248 <__alt_mem_onchip_mem+0xff7f8248>

    /*
     * Now that the caches are initialized, set up the stack pointer and global pointer.
     * The values provided by the linker are assumed to be correctly aligned.
     */
    movhi sp, %hi(__alt_stack_pointer)
  800254:	06c04034 	movhi	sp,256
    ori sp, sp, %lo(__alt_stack_pointer)
  800258:	dec00014 	ori	sp,sp,0
    movhi gp, %hi(_gp)
  80025c:	06802074 	movhi	gp,129
    ori gp, gp, %lo(_gp)
  800260:	d6a95a14 	ori	gp,gp,42344
 */
#ifndef ALT_SIM_OPTIMIZE
    /* Log that the BSS is about to be cleared. */
    ALT_LOG_PUTS(alt_log_msg_bss)

    movhi r2, %hi(__bss_start)
  800264:	00802074 	movhi	r2,129
    ori r2, r2, %lo(__bss_start)
  800268:	10908214 	ori	r2,r2,16904

    movhi r3, %hi(__bss_end)
  80026c:	00c02074 	movhi	r3,129
    ori r3, r3, %lo(__bss_end)
  800270:	18d0f314 	ori	r3,r3,17356

    beq r2, r3, 1f
  800274:	10c00326 	beq	r2,r3,800284 <_start+0x40>

0:
    stw zero, (r2)
  800278:	10000015 	stw	zero,0(r2)
    addi r2, r2, 4
  80027c:	10800104 	addi	r2,r2,4
    bltu r2, r3, 0b
  800280:	10fffd36 	bltu	r2,r3,800278 <__alt_mem_onchip_mem+0xff7f8278>
     * section aren't defined until alt_load() has been called).
     */
    mov   et, zero
#endif

    call alt_load
  800284:	080c8c80 	call	80c8c8 <alt_load>

    /* Log that alt_main is about to be called. */
    ALT_LOG_PUTS(alt_log_msg_alt_main)

    /* Call the C entry point. It should never return. */
    call alt_main
  800288:	080ca5c0 	call	80ca5c <alt_main>

0080028c <alt_after_alt_main>:

    /* Wait in infinite loop in case alt_main does return. */
alt_after_alt_main:
    br alt_after_alt_main
  80028c:	003fff06 	br	80028c <__alt_mem_onchip_mem+0xff7f828c>

00800290 <start_cycle>:
volatile alt_u8 need_v_pulse = 0;
volatile alt_u8 started = 0;

volatile alt_u8 vp = 0, ap = 0;

void start_cycle(){
  800290:	defffe04 	addi	sp,sp,-8
  800294:	dfc00115 	stw	ra,4(sp)
  800298:	df000015 	stw	fp,0(sp)
  80029c:	d839883a 	mov	fp,sp
	if (started){
  8002a0:	d0a72903 	ldbu	r2,-25436(gp)
  8002a4:	10803fcc 	andi	r2,r2,255
  8002a8:	10000c26 	beq	r2,zero,8002dc <start_cycle+0x4c>
		alt_alarm_stop(&URI_LRI);
  8002ac:	01002074 	movhi	r4,129
  8002b0:	21109b04 	addi	r4,r4,17004
  8002b4:	080cfc00 	call	80cfc0 <alt_alarm_stop>
		alt_alarm_stop(&PVARP);
  8002b8:	01002074 	movhi	r4,129
  8002bc:	2110ad04 	addi	r4,r4,17076
  8002c0:	080cfc00 	call	80cfc0 <alt_alarm_stop>
		alt_alarm_stop(&VRP);
  8002c4:	01002074 	movhi	r4,129
  8002c8:	2110a104 	addi	r4,r4,17028
  8002cc:	080cfc00 	call	80cfc0 <alt_alarm_stop>
		alt_alarm_stop(&AEI_AVI);
  8002d0:	01002074 	movhi	r4,129
  8002d4:	2110a704 	addi	r4,r4,17052
  8002d8:	080cfc00 	call	80cfc0 <alt_alarm_stop>
	}
	started = 1;
  8002dc:	00800044 	movi	r2,1
  8002e0:	d0a72905 	stb	r2,-25436(gp)
	alt_alarm_start(&URI_LRI, URI_VALUE, URI_LRI_interrupt, NULL);
  8002e4:	000f883a 	mov	r7,zero
  8002e8:	01802034 	movhi	r6,128
  8002ec:	3180f304 	addi	r6,r6,972
  8002f0:	0140e104 	movi	r5,900
  8002f4:	01002074 	movhi	r4,129
  8002f8:	21109b04 	addi	r4,r4,17004
  8002fc:	080c4300 	call	80c430 <alt_alarm_start>
	alt_alarm_start(&PVARP, PVARP_VALUE, PVARP_interrupt, NULL);
  800300:	000f883a 	mov	r7,zero
  800304:	01802034 	movhi	r6,128
  800308:	3180e104 	addi	r6,r6,900
  80030c:	01400c84 	movi	r5,50
  800310:	01002074 	movhi	r4,129
  800314:	2110ad04 	addi	r4,r4,17076
  800318:	080c4300 	call	80c430 <alt_alarm_start>
	alt_alarm_start(&VRP, VRP_VALUE, VRP_interrupt, NULL);
  80031c:	000f883a 	mov	r7,zero
  800320:	01802034 	movhi	r6,128
  800324:	3180ea04 	addi	r6,r6,936
  800328:	01402584 	movi	r5,150
  80032c:	01002074 	movhi	r4,129
  800330:	2110a104 	addi	r4,r4,17028
  800334:	080c4300 	call	80c430 <alt_alarm_start>
	alt_alarm_start(&AEI_AVI, AEI_VALUE, AEI_AVI_interrupt, NULL);
  800338:	000f883a 	mov	r7,zero
  80033c:	01802034 	movhi	r6,128
  800340:	31810804 	addi	r6,r6,1056
  800344:	0140c804 	movi	r5,800
  800348:	01002074 	movhi	r4,129
  80034c:	2110a704 	addi	r4,r4,17052
  800350:	080c4300 	call	80c430 <alt_alarm_start>
	ignore_a = 1;
  800354:	00800044 	movi	r2,1
  800358:	d0a00045 	stb	r2,-32767(gp)
	ignore_v = 1;
  80035c:	00800044 	movi	r2,1
  800360:	d0a00005 	stb	r2,-32768(gp)
	can_vpulse = 0;
  800364:	d0272805 	stb	zero,-25440(gp)
	need_v_pulse = 0;
  800368:	d02728c5 	stb	zero,-25437(gp)
}
  80036c:	0001883a 	nop
  800370:	e037883a 	mov	sp,fp
  800374:	dfc00117 	ldw	ra,4(sp)
  800378:	df000017 	ldw	fp,0(sp)
  80037c:	dec00204 	addi	sp,sp,8
  800380:	f800283a 	ret

00800384 <PVARP_interrupt>:

alt_u32 PVARP_interrupt(){
  800384:	deffff04 	addi	sp,sp,-4
  800388:	df000015 	stw	fp,0(sp)
  80038c:	d839883a 	mov	fp,sp
	ignore_a = 0;
  800390:	d0200045 	stb	zero,-32767(gp)
	return LRI_VALUE; // value so it does not trigger when unwanted
  800394:	0080ed84 	movi	r2,950
}
  800398:	e037883a 	mov	sp,fp
  80039c:	df000017 	ldw	fp,0(sp)
  8003a0:	dec00104 	addi	sp,sp,4
  8003a4:	f800283a 	ret

008003a8 <VRP_interrupt>:

alt_u32 VRP_interrupt(){
  8003a8:	deffff04 	addi	sp,sp,-4
  8003ac:	df000015 	stw	fp,0(sp)
  8003b0:	d839883a 	mov	fp,sp
	ignore_v = 0;
  8003b4:	d0200005 	stb	zero,-32768(gp)
	return LRI_VALUE; // value so it does not trigger when unwanted
  8003b8:	0080ed84 	movi	r2,950
}
  8003bc:	e037883a 	mov	sp,fp
  8003c0:	df000017 	ldw	fp,0(sp)
  8003c4:	dec00104 	addi	sp,sp,4
  8003c8:	f800283a 	ret

008003cc <URI_LRI_interrupt>:

alt_u32 URI_LRI_interrupt(){
  8003cc:	deffff04 	addi	sp,sp,-4
  8003d0:	df000015 	stw	fp,0(sp)
  8003d4:	d839883a 	mov	fp,sp
	if (!can_vpulse){ // URI timeout
  8003d8:	d0a72803 	ldbu	r2,-25440(gp)
  8003dc:	10803fcc 	andi	r2,r2,255
  8003e0:	1000041e 	bne	r2,zero,8003f4 <URI_LRI_interrupt+0x28>
		can_vpulse = 1;
  8003e4:	00800044 	movi	r2,1
  8003e8:	d0a72805 	stb	r2,-25440(gp)
		return LRI_VALUE - URI_VALUE;
  8003ec:	00800c84 	movi	r2,50
  8003f0:	00000706 	br	800410 <URI_LRI_interrupt+0x44>
	} else { // LRI timeout
		vp = 1;
  8003f4:	00800044 	movi	r2,1
  8003f8:	d0a72945 	stb	r2,-25435(gp)
		is_recent_a = 0;
  8003fc:	d0272885 	stb	zero,-25438(gp)
		reset_cycle = 1;
  800400:	00800044 	movi	r2,1
  800404:	d0a72845 	stb	r2,-25439(gp)
		can_vpulse = 0;
  800408:	d0272805 	stb	zero,-25440(gp)
		return URI_VALUE;
  80040c:	0080e104 	movi	r2,900
	}
}
  800410:	e037883a 	mov	sp,fp
  800414:	df000017 	ldw	fp,0(sp)
  800418:	dec00104 	addi	sp,sp,4
  80041c:	f800283a 	ret

00800420 <AEI_AVI_interrupt>:

alt_u32 AEI_AVI_interrupt(){
  800420:	deffff04 	addi	sp,sp,-4
  800424:	df000015 	stw	fp,0(sp)
  800428:	d839883a 	mov	fp,sp
	if (is_recent_a){ // most recent is a a
  80042c:	d0a72883 	ldbu	r2,-25438(gp)
  800430:	10803fcc 	andi	r2,r2,255
  800434:	10000d26 	beq	r2,zero,80046c <AEI_AVI_interrupt+0x4c>
		if (can_vpulse){
  800438:	d0a72803 	ldbu	r2,-25440(gp)
  80043c:	10803fcc 	andi	r2,r2,255
  800440:	10000626 	beq	r2,zero,80045c <AEI_AVI_interrupt+0x3c>
			vp = 1;
  800444:	00800044 	movi	r2,1
  800448:	d0a72945 	stb	r2,-25435(gp)
			is_recent_a = 0;
  80044c:	d0272885 	stb	zero,-25438(gp)
			reset_cycle = 1;
  800450:	00800044 	movi	r2,1
  800454:	d0a72845 	stb	r2,-25439(gp)
  800458:	00000206 	br	800464 <AEI_AVI_interrupt+0x44>
		} else {
			need_v_pulse = 1;
  80045c:	00800044 	movi	r2,1
  800460:	d0a728c5 	stb	r2,-25437(gp)
		}
		return LRI_VALUE; // large value
  800464:	0080ed84 	movi	r2,950
  800468:	00000506 	br	800480 <AEI_AVI_interrupt+0x60>
	} else { // most recent is a v
		ap = 1;
  80046c:	00800044 	movi	r2,1
  800470:	d0a72985 	stb	r2,-25434(gp)
		is_recent_a = 1;
  800474:	00800044 	movi	r2,1
  800478:	d0a72885 	stb	r2,-25438(gp)
		return AVI_VALUE;
  80047c:	00804b04 	movi	r2,300
	}
}
  800480:	e037883a 	mov	sp,fp
  800484:	df000017 	ldw	fp,0(sp)
  800488:	dec00104 	addi	sp,sp,4
  80048c:	f800283a 	ret

00800490 <extern_v_interrupt>:

void extern_v_interrupt(){
  800490:	deffff04 	addi	sp,sp,-4
  800494:	df000015 	stw	fp,0(sp)
  800498:	d839883a 	mov	fp,sp
	if (!ignore_v){
  80049c:	d0a00003 	ldbu	r2,-32768(gp)
  8004a0:	10803fcc 	andi	r2,r2,255
  8004a4:	1000041e 	bne	r2,zero,8004b8 <extern_v_interrupt+0x28>
		can_vpulse = 0;
  8004a8:	d0272805 	stb	zero,-25440(gp)
		reset_cycle = 1;
  8004ac:	00800044 	movi	r2,1
  8004b0:	d0a72845 	stb	r2,-25439(gp)
		is_recent_a = 0;
  8004b4:	d0272885 	stb	zero,-25438(gp)
	}
}
  8004b8:	0001883a 	nop
  8004bc:	e037883a 	mov	sp,fp
  8004c0:	df000017 	ldw	fp,0(sp)
  8004c4:	dec00104 	addi	sp,sp,4
  8004c8:	f800283a 	ret

008004cc <extern_a_interrupt>:

void extern_a_interrupt(){
  8004cc:	defffe04 	addi	sp,sp,-8
  8004d0:	dfc00115 	stw	ra,4(sp)
  8004d4:	df000015 	stw	fp,0(sp)
  8004d8:	d839883a 	mov	fp,sp
	if (!ignore_a){
  8004dc:	d0a00043 	ldbu	r2,-32767(gp)
  8004e0:	10803fcc 	andi	r2,r2,255
  8004e4:	10000c1e 	bne	r2,zero,800518 <extern_a_interrupt+0x4c>
		alt_alarm_stop(&AEI_AVI);
  8004e8:	01002074 	movhi	r4,129
  8004ec:	2110a704 	addi	r4,r4,17052
  8004f0:	080cfc00 	call	80cfc0 <alt_alarm_stop>
		alt_alarm_start(&AEI_AVI, AVI_VALUE, AEI_AVI_interrupt, NULL);
  8004f4:	000f883a 	mov	r7,zero
  8004f8:	01802034 	movhi	r6,128
  8004fc:	31810804 	addi	r6,r6,1056
  800500:	01404b04 	movi	r5,300
  800504:	01002074 	movhi	r4,129
  800508:	2110a704 	addi	r4,r4,17052
  80050c:	080c4300 	call	80c430 <alt_alarm_start>
		is_recent_a = 1;
  800510:	00800044 	movi	r2,1
  800514:	d0a72885 	stb	r2,-25438(gp)
	}
}
  800518:	0001883a 	nop
  80051c:	e037883a 	mov	sp,fp
  800520:	dfc00117 	ldw	ra,4(sp)
  800524:	df000017 	ldw	fp,0(sp)
  800528:	dec00204 	addi	sp,sp,8
  80052c:	f800283a 	ret

00800530 <main>:
extern volatile alt_u8 vp, ap;

volatile FILE* fp;
volatile char char_recieve;

int main() {
  800530:	deff9004 	addi	sp,sp,-448
  800534:	dfc06f15 	stw	ra,444(sp)
  800538:	df006e15 	stw	fp,440(sp)
  80053c:	df006e04 	addi	fp,sp,440
	fp = fopen ("/dev/uart", "r+"); //Open file for reading and writing
  800540:	01402074 	movhi	r5,129
  800544:	29415404 	addi	r5,r5,1360
  800548:	01002074 	movhi	r4,129
  80054c:	21015504 	addi	r4,r4,1364
  800550:	0808dd40 	call	808dd4 <fopen>
  800554:	d0a72a15 	stw	r2,-25432(gp)

	printf("stuck\n");
  800558:	01002074 	movhi	r4,129
  80055c:	21015804 	addi	r4,r4,1376
  800560:	0809fd80 	call	809fd8 <puts>

	while (fp == NULL) {
  800564:	0001883a 	nop
  800568:	d0a72a17 	ldw	r2,-25432(gp)
  80056c:	103ffe26 	beq	r2,zero,800568 <__alt_mem_onchip_mem+0xff7f8568>


	};

	printf("not stuck\n");
  800570:	01002074 	movhi	r4,129
  800574:	21015a04 	addi	r4,r4,1384
  800578:	0809fd80 	call	809fd8 <puts>

	TickData t;
	reset(&t);
  80057c:	e0bf9304 	addi	r2,fp,-436
  800580:	1009883a 	mov	r4,r2
  800584:	080737c0 	call	80737c <reset>

	printf("start\n");
  800588:	01002074 	movhi	r4,129
  80058c:	21015d04 	addi	r4,r4,1396
  800590:	0809fd80 	call	809fd8 <puts>

	alt_u8 key, key0_pre, key1_pre;

	start_cycle();
  800594:	08002900 	call	800290 <start_cycle>

  while (1){

	  if (IORD_ALTERA_AVALON_PIO_DATA(SWITCHES_BASE) & 1){
  800598:	00804074 	movhi	r2,257
  80059c:	10842404 	addi	r2,r2,4240
  8005a0:	10800037 	ldwio	r2,0(r2)
  8005a4:	1080004c 	andi	r2,r2,1
  8005a8:	10003c26 	beq	r2,zero,80069c <main+0x16c>
	  		  key = IORD_ALTERA_AVALON_PIO_DATA(KEYS_BASE);
  8005ac:	00804074 	movhi	r2,257
  8005b0:	10842804 	addi	r2,r2,4256
  8005b4:	10800037 	ldwio	r2,0(r2)
  8005b8:	e0bf9285 	stb	r2,-438(fp)
	  		  t.VS = 0;
  8005bc:	e03faa45 	stb	zero,-343(fp)
	  		  t.AS = 0;
  8005c0:	e03faa05 	stb	zero,-344(fp)
	  	  	  if ((~key & 0x01) == 1 && key0_pre == 0){ // key 0 rising
  8005c4:	e0bf9283 	ldbu	r2,-438(fp)
  8005c8:	1080004c 	andi	r2,r2,1
  8005cc:	10000b1e 	bne	r2,zero,8005fc <main+0xcc>
  8005d0:	e0bf9203 	ldbu	r2,-440(fp)
  8005d4:	1000091e 	bne	r2,zero,8005fc <main+0xcc>

	  	  		  if (IORD_ALTERA_AVALON_PIO_DATA(SWITCHES_BASE) & 2){
  8005d8:	00804074 	movhi	r2,257
  8005dc:	10842404 	addi	r2,r2,4240
  8005e0:	10800037 	ldwio	r2,0(r2)
  8005e4:	1080008c 	andi	r2,r2,2
  8005e8:	10000326 	beq	r2,zero,8005f8 <main+0xc8>
	  	  			  t.VS = 1;
  8005ec:	00800044 	movi	r2,1
  8005f0:	e0bfaa45 	stb	r2,-343(fp)
  8005f4:	00000106 	br	8005fc <main+0xcc>
	  	  		  }
	  	  		  else {
	  	  			  extern_v_interrupt();
  8005f8:	08004900 	call	800490 <extern_v_interrupt>
	  	  		  }
	  	  	  }
	  	  	  key0_pre = ~key & 0x01;
  8005fc:	e0bf9283 	ldbu	r2,-438(fp)
  800600:	1080004c 	andi	r2,r2,1
  800604:	1005003a 	cmpeq	r2,r2,zero
  800608:	e0bf9205 	stb	r2,-440(fp)

	  	  	  if ((~key & 0x02) >> 1 == 1 && key1_pre == 0){ // key 1 rising
  80060c:	e0bf9283 	ldbu	r2,-438(fp)
  800610:	0084303a 	nor	r2,zero,r2
  800614:	1080008c 	andi	r2,r2,2
  800618:	1005d07a 	srai	r2,r2,1
  80061c:	10800058 	cmpnei	r2,r2,1
  800620:	10000b1e 	bne	r2,zero,800650 <main+0x120>
  800624:	e0bf9243 	ldbu	r2,-439(fp)
  800628:	1000091e 	bne	r2,zero,800650 <main+0x120>

	  	  		  if (IORD_ALTERA_AVALON_PIO_DATA(SWITCHES_BASE) & 2){
  80062c:	00804074 	movhi	r2,257
  800630:	10842404 	addi	r2,r2,4240
  800634:	10800037 	ldwio	r2,0(r2)
  800638:	1080008c 	andi	r2,r2,2
  80063c:	10000326 	beq	r2,zero,80064c <main+0x11c>
	  	  			  t.AS = 1;
  800640:	00800044 	movi	r2,1
  800644:	e0bfaa05 	stb	r2,-344(fp)
  800648:	00000106 	br	800650 <main+0x120>
	  	  		  }
	  	  		  else {
	  	  			  extern_a_interrupt();
  80064c:	08004cc0 	call	8004cc <extern_a_interrupt>
	  	  		  }
	  	  	  }
	  	  	  key1_pre = ~key & 0x02 >> 1;
  800650:	e0bf9283 	ldbu	r2,-438(fp)
  800654:	1080004c 	andi	r2,r2,1
  800658:	1005003a 	cmpeq	r2,r2,zero
  80065c:	e0bf9245 	stb	r2,-439(fp)

	  	  	  if (vp){
  800660:	d0a72943 	ldbu	r2,-25435(gp)
  800664:	10803fcc 	andi	r2,r2,255
  800668:	10000426 	beq	r2,zero,80067c <main+0x14c>
	  	  		  vp = 0;
  80066c:	d0272945 	stb	zero,-25435(gp)
	  	  		  printf ("V\n");
  800670:	01002074 	movhi	r4,129
  800674:	21015f04 	addi	r4,r4,1404
  800678:	0809fd80 	call	809fd8 <puts>
	  	  	  }
	  	      if (ap){
  80067c:	d0a72983 	ldbu	r2,-25434(gp)
  800680:	10803fcc 	andi	r2,r2,255
  800684:	10002726 	beq	r2,zero,800724 <main+0x1f4>
	  	  		  ap = 0;
  800688:	d0272985 	stb	zero,-25434(gp)
	  	  		  printf ("A\n");
  80068c:	01002074 	movhi	r4,129
  800690:	21016004 	addi	r4,r4,1408
  800694:	0809fd80 	call	809fd8 <puts>
  800698:	00002206 	br	800724 <main+0x1f4>
	  	  	  // LED PLACEHOLDER
	  	  }

	  	  else {
	  		  //char_recieve = getc(fp);
	  		  if (char_recieve == 'A'){
  80069c:	d0a72b03 	ldbu	r2,-25428(gp)
  8006a0:	10803fcc 	andi	r2,r2,255
  8006a4:	1080201c 	xori	r2,r2,128
  8006a8:	10bfe004 	addi	r2,r2,-128
  8006ac:	10801058 	cmpnei	r2,r2,65
  8006b0:	1000011e 	bne	r2,zero,8006b8 <main+0x188>
	  			  extern_a_interrupt();
  8006b4:	08004cc0 	call	8004cc <extern_a_interrupt>
	  		  }
	  		  if (char_recieve == 'V'){
  8006b8:	d0a72b03 	ldbu	r2,-25428(gp)
  8006bc:	10803fcc 	andi	r2,r2,255
  8006c0:	1080201c 	xori	r2,r2,128
  8006c4:	10bfe004 	addi	r2,r2,-128
  8006c8:	10801598 	cmpnei	r2,r2,86
  8006cc:	1000011e 	bne	r2,zero,8006d4 <main+0x1a4>
	  			  extern_v_interrupt();
  8006d0:	08004900 	call	800490 <extern_v_interrupt>
	  		  }

	  		  if (vp){
  8006d4:	d0a72943 	ldbu	r2,-25435(gp)
  8006d8:	10803fcc 	andi	r2,r2,255
  8006dc:	10000726 	beq	r2,zero,8006fc <main+0x1cc>
	  			  vp = 0;
  8006e0:	d0272945 	stb	zero,-25435(gp)
	  			  fwrite ('V', 1, 1, fp);
  8006e4:	d0a72a17 	ldw	r2,-25432(gp)
  8006e8:	100f883a 	mov	r7,r2
  8006ec:	01800044 	movi	r6,1
  8006f0:	01400044 	movi	r5,1
  8006f4:	01001584 	movi	r4,86
  8006f8:	08093940 	call	809394 <fwrite>
	  		  }
	  		  if (ap){
  8006fc:	d0a72983 	ldbu	r2,-25434(gp)
  800700:	10803fcc 	andi	r2,r2,255
  800704:	10000726 	beq	r2,zero,800724 <main+0x1f4>
	  		 	  ap = 0;
  800708:	d0272985 	stb	zero,-25434(gp)
	  		 	  fwrite ('A', 1, 1, fp);
  80070c:	d0a72a17 	ldw	r2,-25432(gp)
  800710:	100f883a 	mov	r7,r2
  800714:	01800044 	movi	r6,1
  800718:	01400044 	movi	r5,1
  80071c:	01001044 	movi	r4,65
  800720:	08093940 	call	809394 <fwrite>



	  	  }

	  if (IORD_ALTERA_AVALON_PIO_DATA(SWITCHES_BASE) & 2){ // if its on then sccharts
  800724:	00804074 	movhi	r2,257
  800728:	10842404 	addi	r2,r2,4240
  80072c:	10800037 	ldwio	r2,0(r2)
  800730:	1080008c 	andi	r2,r2,2
  800734:	10000826 	beq	r2,zero,800758 <main+0x228>
		  tick(&t);
  800738:	e0bf9304 	addi	r2,fp,-436
  80073c:	1009883a 	mov	r4,r2
  800740:	080759c0 	call	80759c <tick>
		  ap = t.AP;
  800744:	e0bfaa83 	ldbu	r2,-342(fp)
  800748:	d0a72985 	stb	r2,-25434(gp)
		  vp = t.VP;
  80074c:	e0bfaac3 	ldbu	r2,-341(fp)
  800750:	d0a72945 	stb	r2,-25435(gp)
  800754:	003f9006 	br	800598 <__alt_mem_onchip_mem+0xff7f8598>
	  }
	  else {
		  if (reset_cycle){ // a v event has occurred and timers must be reset
  800758:	d0a72843 	ldbu	r2,-25439(gp)
  80075c:	10803fcc 	andi	r2,r2,255
  800760:	10000226 	beq	r2,zero,80076c <main+0x23c>
		  	  reset_cycle = 0; // reset everything
  800764:	d0272845 	stb	zero,-25439(gp)
		    start_cycle();
  800768:	08002900 	call	800290 <start_cycle>
		  }
		  if (can_vpulse && need_v_pulse){
  80076c:	d0a72803 	ldbu	r2,-25440(gp)
  800770:	10803fcc 	andi	r2,r2,255
  800774:	103f8826 	beq	r2,zero,800598 <__alt_mem_onchip_mem+0xff7f8598>
  800778:	d0a728c3 	ldbu	r2,-25437(gp)
  80077c:	10803fcc 	andi	r2,r2,255
  800780:	103f8526 	beq	r2,zero,800598 <__alt_mem_onchip_mem+0xff7f8598>
		   need_v_pulse = 0;
  800784:	d02728c5 	stb	zero,-25437(gp)
		   vp = 1;
  800788:	00800044 	movi	r2,1
  80078c:	d0a72945 	stb	r2,-25435(gp)
		   reset_cycle = 1;
  800790:	00800044 	movi	r2,1
  800794:	d0a72845 	stb	r2,-25439(gp)
	  }




  }
  800798:	003f7f06 	br	800598 <__alt_mem_onchip_mem+0xff7f8598>

0080079c <logic>:
#include "timing.h"
#include <stdio.h>

#include "scchart_heart.h"

void logic(TickData* d) {
  80079c:	defffa04 	addi	sp,sp,-24
  8007a0:	dfc00515 	stw	ra,20(sp)
  8007a4:	df000415 	stw	fp,16(sp)
  8007a8:	dc800315 	stw	r18,12(sp)
  8007ac:	dc400215 	stw	r17,8(sp)
  8007b0:	dc000115 	stw	r16,4(sp)
  8007b4:	df000404 	addi	fp,sp,16
  8007b8:	e13ffc15 	stw	r4,-16(fp)
  d->_g30 = d->_pg9;
  8007bc:	e0bffc17 	ldw	r2,-16(fp)
  8007c0:	10c063c3 	ldbu	r3,399(r2)
  8007c4:	e0bffc17 	ldw	r2,-16(fp)
  8007c8:	10c023c5 	stb	r3,143(r2)
  if (d->_g30) {
  8007cc:	e0bffc17 	ldw	r2,-16(fp)
  8007d0:	108023c3 	ldbu	r2,143(r2)
  8007d4:	10803fcc 	andi	r2,r2,255
  8007d8:	1080201c 	xori	r2,r2,128
  8007dc:	10bfe004 	addi	r2,r2,-128
  8007e0:	10001226 	beq	r2,zero,80082c <logic+0x90>
    d->_region0_null_URI += d->deltaT;
  8007e4:	e13ffc17 	ldw	r4,-16(fp)
  8007e8:	20800717 	ldw	r2,28(r4)
  8007ec:	20c00817 	ldw	r3,32(r4)
  8007f0:	e1bffc17 	ldw	r6,-16(fp)
  8007f4:	31001317 	ldw	r4,76(r6)
  8007f8:	31401417 	ldw	r5,80(r6)
  8007fc:	200d883a 	mov	r6,r4
  800800:	280f883a 	mov	r7,r5
  800804:	1009883a 	mov	r4,r2
  800808:	180b883a 	mov	r5,r3
  80080c:	08078280 	call	807828 <__adddf3>
  800810:	1009883a 	mov	r4,r2
  800814:	180b883a 	mov	r5,r3
  800818:	2005883a 	mov	r2,r4
  80081c:	2807883a 	mov	r3,r5
  800820:	e13ffc17 	ldw	r4,-16(fp)
  800824:	20800715 	stw	r2,28(r4)
  800828:	20c00815 	stw	r3,32(r4)
  }
  d->_g31_e1 = !d->_g30;
  80082c:	e0bffc17 	ldw	r2,-16(fp)
  800830:	108023c3 	ldbu	r2,143(r2)
  800834:	10803fcc 	andi	r2,r2,255
  800838:	1080201c 	xori	r2,r2,128
  80083c:	10bfe004 	addi	r2,r2,-128
  800840:	1005003a 	cmpeq	r2,r2,zero
  800844:	1007883a 	mov	r3,r2
  800848:	e0bffc17 	ldw	r2,-16(fp)
  80084c:	10c05cc5 	stb	r3,371(r2)
  d->AP = 0;
  800850:	e0bffc17 	ldw	r2,-16(fp)
  800854:	10001785 	stb	zero,94(r2)
  d->VP = 0;
  800858:	e0bffc17 	ldw	r2,-16(fp)
  80085c:	100017c5 	stb	zero,95(r2)
  d->VR = 0;
  800860:	e0bffc17 	ldw	r2,-16(fp)
  800864:	10001805 	stb	zero,96(r2)
  d->AR = 0;
  800868:	e0bffc17 	ldw	r2,-16(fp)
  80086c:	10001845 	stb	zero,97(r2)
  d->a = 0;
  800870:	e0bffc17 	ldw	r2,-16(fp)
  800874:	10001885 	stb	zero,98(r2)
  d->v = 0;
  800878:	e0bffc17 	ldw	r2,-16(fp)
  80087c:	100018c5 	stb	zero,99(r2)
  d->VS_i = 0;
  800880:	e0bffc17 	ldw	r2,-16(fp)
  800884:	10001905 	stb	zero,100(r2)
  d->_pre_VS_i = d->_reg_VS_i;
  800888:	e0bffc17 	ldw	r2,-16(fp)
  80088c:	10c019c3 	ldbu	r3,103(r2)
  800890:	e0bffc17 	ldw	r2,-16(fp)
  800894:	10c01a05 	stb	r3,104(r2)
  d->_g235 = d->_pg217;
  800898:	e0bffc17 	ldw	r2,-16(fp)
  80089c:	10c06403 	ldbu	r3,400(r2)
  8008a0:	e0bffc17 	ldw	r2,-16(fp)
  8008a4:	10c04485 	stb	r3,274(r2)
  d->_cg235 = d->_pre_VS_i;
  8008a8:	e0bffc17 	ldw	r2,-16(fp)
  8008ac:	10c01a03 	ldbu	r3,104(r2)
  8008b0:	e0bffc17 	ldw	r2,-16(fp)
  8008b4:	10c05bc5 	stb	r3,367(r2)
  d->_g236 = d->_g235 && d->_cg235;
  8008b8:	e0bffc17 	ldw	r2,-16(fp)
  8008bc:	10804483 	ldbu	r2,274(r2)
  8008c0:	10803fcc 	andi	r2,r2,255
  8008c4:	1080201c 	xori	r2,r2,128
  8008c8:	10bfe004 	addi	r2,r2,-128
  8008cc:	10000826 	beq	r2,zero,8008f0 <logic+0x154>
  8008d0:	e0bffc17 	ldw	r2,-16(fp)
  8008d4:	10805bc3 	ldbu	r2,367(r2)
  8008d8:	10803fcc 	andi	r2,r2,255
  8008dc:	1080201c 	xori	r2,r2,128
  8008e0:	10bfe004 	addi	r2,r2,-128
  8008e4:	10000226 	beq	r2,zero,8008f0 <logic+0x154>
  8008e8:	00800044 	movi	r2,1
  8008ec:	00000106 	br	8008f4 <logic+0x158>
  8008f0:	0005883a 	mov	r2,zero
  8008f4:	1007883a 	mov	r3,r2
  8008f8:	e0bffc17 	ldw	r2,-16(fp)
  8008fc:	10c044c5 	stb	r3,275(r2)
  if (d->_g236) {
  800900:	e0bffc17 	ldw	r2,-16(fp)
  800904:	108044c3 	ldbu	r2,275(r2)
  800908:	10803fcc 	andi	r2,r2,255
  80090c:	1080201c 	xori	r2,r2,128
  800910:	10bfe004 	addi	r2,r2,-128
  800914:	10000626 	beq	r2,zero,800930 <logic+0x194>
    d->v |= 1;
  800918:	e0bffc17 	ldw	r2,-16(fp)
  80091c:	108018c3 	ldbu	r2,99(r2)
  800920:	10800054 	ori	r2,r2,1
  800924:	1007883a 	mov	r3,r2
  800928:	e0bffc17 	ldw	r2,-16(fp)
  80092c:	10c018c5 	stb	r3,99(r2)
  }
  d->_pre_VP = d->_reg_VP;
  800930:	e0bffc17 	ldw	r2,-16(fp)
  800934:	10c01943 	ldbu	r3,101(r2)
  800938:	e0bffc17 	ldw	r2,-16(fp)
  80093c:	10c01985 	stb	r3,102(r2)
  d->_g235 = d->_g235 && !d->_cg235;
  800940:	e0bffc17 	ldw	r2,-16(fp)
  800944:	10804483 	ldbu	r2,274(r2)
  800948:	10803fcc 	andi	r2,r2,255
  80094c:	1080201c 	xori	r2,r2,128
  800950:	10bfe004 	addi	r2,r2,-128
  800954:	10000826 	beq	r2,zero,800978 <logic+0x1dc>
  800958:	e0bffc17 	ldw	r2,-16(fp)
  80095c:	10805bc3 	ldbu	r2,367(r2)
  800960:	10803fcc 	andi	r2,r2,255
  800964:	1080201c 	xori	r2,r2,128
  800968:	10bfe004 	addi	r2,r2,-128
  80096c:	1000021e 	bne	r2,zero,800978 <logic+0x1dc>
  800970:	00800044 	movi	r2,1
  800974:	00000106 	br	80097c <logic+0x1e0>
  800978:	0005883a 	mov	r2,zero
  80097c:	1007883a 	mov	r3,r2
  800980:	e0bffc17 	ldw	r2,-16(fp)
  800984:	10c04485 	stb	r3,274(r2)
  d->_cg237 = d->_pre_VP;
  800988:	e0bffc17 	ldw	r2,-16(fp)
  80098c:	10c01983 	ldbu	r3,102(r2)
  800990:	e0bffc17 	ldw	r2,-16(fp)
  800994:	10c05b85 	stb	r3,366(r2)
  d->_g238 = d->_g235 && d->_cg237;
  800998:	e0bffc17 	ldw	r2,-16(fp)
  80099c:	10804483 	ldbu	r2,274(r2)
  8009a0:	10803fcc 	andi	r2,r2,255
  8009a4:	1080201c 	xori	r2,r2,128
  8009a8:	10bfe004 	addi	r2,r2,-128
  8009ac:	10000826 	beq	r2,zero,8009d0 <logic+0x234>
  8009b0:	e0bffc17 	ldw	r2,-16(fp)
  8009b4:	10805b83 	ldbu	r2,366(r2)
  8009b8:	10803fcc 	andi	r2,r2,255
  8009bc:	1080201c 	xori	r2,r2,128
  8009c0:	10bfe004 	addi	r2,r2,-128
  8009c4:	10000226 	beq	r2,zero,8009d0 <logic+0x234>
  8009c8:	00800044 	movi	r2,1
  8009cc:	00000106 	br	8009d4 <logic+0x238>
  8009d0:	0005883a 	mov	r2,zero
  8009d4:	1007883a 	mov	r3,r2
  8009d8:	e0bffc17 	ldw	r2,-16(fp)
  8009dc:	10c04505 	stb	r3,276(r2)
  if (d->_g238) {
  8009e0:	e0bffc17 	ldw	r2,-16(fp)
  8009e4:	10804503 	ldbu	r2,276(r2)
  8009e8:	10803fcc 	andi	r2,r2,255
  8009ec:	1080201c 	xori	r2,r2,128
  8009f0:	10bfe004 	addi	r2,r2,-128
  8009f4:	10000626 	beq	r2,zero,800a10 <logic+0x274>
    d->v |= 1;
  8009f8:	e0bffc17 	ldw	r2,-16(fp)
  8009fc:	108018c3 	ldbu	r2,99(r2)
  800a00:	10800054 	ori	r2,r2,1
  800a04:	1007883a 	mov	r3,r2
  800a08:	e0bffc17 	ldw	r2,-16(fp)
  800a0c:	10c018c5 	stb	r3,99(r2)
  }
  d->_g34 = d->_pg13;
  800a10:	e0bffc17 	ldw	r2,-16(fp)
  800a14:	10c06443 	ldbu	r3,401(r2)
  800a18:	e0bffc17 	ldw	r2,-16(fp)
  800a1c:	10c02445 	stb	r3,145(r2)
  d->_cg34 = d->v;
  800a20:	e0bffc17 	ldw	r2,-16(fp)
  800a24:	10c018c3 	ldbu	r3,99(r2)
  800a28:	e0bffc17 	ldw	r2,-16(fp)
  800a2c:	10c048c5 	stb	r3,291(r2)
  d->_g35 = d->_g34 && d->_cg34;
  800a30:	e0bffc17 	ldw	r2,-16(fp)
  800a34:	10802443 	ldbu	r2,145(r2)
  800a38:	10803fcc 	andi	r2,r2,255
  800a3c:	1080201c 	xori	r2,r2,128
  800a40:	10bfe004 	addi	r2,r2,-128
  800a44:	10000826 	beq	r2,zero,800a68 <logic+0x2cc>
  800a48:	e0bffc17 	ldw	r2,-16(fp)
  800a4c:	108048c3 	ldbu	r2,291(r2)
  800a50:	10803fcc 	andi	r2,r2,255
  800a54:	1080201c 	xori	r2,r2,128
  800a58:	10bfe004 	addi	r2,r2,-128
  800a5c:	10000226 	beq	r2,zero,800a68 <logic+0x2cc>
  800a60:	00800044 	movi	r2,1
  800a64:	00000106 	br	800a6c <logic+0x2d0>
  800a68:	0005883a 	mov	r2,zero
  800a6c:	1007883a 	mov	r3,r2
  800a70:	e0bffc17 	ldw	r2,-16(fp)
  800a74:	10c02485 	stb	r3,146(r2)
  if (d->_g35) {
  800a78:	e0bffc17 	ldw	r2,-16(fp)
  800a7c:	10802483 	ldbu	r2,146(r2)
  800a80:	10803fcc 	andi	r2,r2,255
  800a84:	1080201c 	xori	r2,r2,128
  800a88:	10bfe004 	addi	r2,r2,-128
  800a8c:	10000326 	beq	r2,zero,800a9c <logic+0x300>
    d->_heart2_local__Atrig2 = 1;
  800a90:	e0bffc17 	ldw	r2,-16(fp)
  800a94:	00c00044 	movi	r3,1
  800a98:	10c01ac5 	stb	r3,107(r2)
  }
  d->_cg30 = d->_heart2_local__Atrig2;
  800a9c:	e0bffc17 	ldw	r2,-16(fp)
  800aa0:	10c01ac3 	ldbu	r3,107(r2)
  800aa4:	e0bffc17 	ldw	r2,-16(fp)
  800aa8:	10c04885 	stb	r3,290(r2)
  d->_g31 = d->_g30 && d->_cg30;
  800aac:	e0bffc17 	ldw	r2,-16(fp)
  800ab0:	108023c3 	ldbu	r2,143(r2)
  800ab4:	10803fcc 	andi	r2,r2,255
  800ab8:	1080201c 	xori	r2,r2,128
  800abc:	10bfe004 	addi	r2,r2,-128
  800ac0:	10000826 	beq	r2,zero,800ae4 <logic+0x348>
  800ac4:	e0bffc17 	ldw	r2,-16(fp)
  800ac8:	10804883 	ldbu	r2,290(r2)
  800acc:	10803fcc 	andi	r2,r2,255
  800ad0:	1080201c 	xori	r2,r2,128
  800ad4:	10bfe004 	addi	r2,r2,-128
  800ad8:	10000226 	beq	r2,zero,800ae4 <logic+0x348>
  800adc:	00800044 	movi	r2,1
  800ae0:	00000106 	br	800ae8 <logic+0x34c>
  800ae4:	0005883a 	mov	r2,zero
  800ae8:	1007883a 	mov	r3,r2
  800aec:	e0bffc17 	ldw	r2,-16(fp)
  800af0:	10c02405 	stb	r3,144(r2)
  d->_g35_e2 = !d->_g34;
  800af4:	e0bffc17 	ldw	r2,-16(fp)
  800af8:	10802443 	ldbu	r2,145(r2)
  800afc:	10803fcc 	andi	r2,r2,255
  800b00:	1080201c 	xori	r2,r2,128
  800b04:	10bfe004 	addi	r2,r2,-128
  800b08:	1005003a 	cmpeq	r2,r2,zero
  800b0c:	1007883a 	mov	r3,r2
  800b10:	e0bffc17 	ldw	r2,-16(fp)
  800b14:	10c05d05 	stb	r3,372(r2)
  d->_g35_e2 = (d->_g31_e1 || d->_g31) && (d->_g35_e2 || d->_g35) && (d->_g31 || d->_g35);
  800b18:	e0bffc17 	ldw	r2,-16(fp)
  800b1c:	10805cc3 	ldbu	r2,371(r2)
  800b20:	10803fcc 	andi	r2,r2,255
  800b24:	1080201c 	xori	r2,r2,128
  800b28:	10bfe004 	addi	r2,r2,-128
  800b2c:	1000061e 	bne	r2,zero,800b48 <logic+0x3ac>
  800b30:	e0bffc17 	ldw	r2,-16(fp)
  800b34:	10802403 	ldbu	r2,144(r2)
  800b38:	10803fcc 	andi	r2,r2,255
  800b3c:	1080201c 	xori	r2,r2,128
  800b40:	10bfe004 	addi	r2,r2,-128
  800b44:	10001a26 	beq	r2,zero,800bb0 <logic+0x414>
  800b48:	e0bffc17 	ldw	r2,-16(fp)
  800b4c:	10805d03 	ldbu	r2,372(r2)
  800b50:	10803fcc 	andi	r2,r2,255
  800b54:	1080201c 	xori	r2,r2,128
  800b58:	10bfe004 	addi	r2,r2,-128
  800b5c:	1000061e 	bne	r2,zero,800b78 <logic+0x3dc>
  800b60:	e0bffc17 	ldw	r2,-16(fp)
  800b64:	10802483 	ldbu	r2,146(r2)
  800b68:	10803fcc 	andi	r2,r2,255
  800b6c:	1080201c 	xori	r2,r2,128
  800b70:	10bfe004 	addi	r2,r2,-128
  800b74:	10000e26 	beq	r2,zero,800bb0 <logic+0x414>
  800b78:	e0bffc17 	ldw	r2,-16(fp)
  800b7c:	10802403 	ldbu	r2,144(r2)
  800b80:	10803fcc 	andi	r2,r2,255
  800b84:	1080201c 	xori	r2,r2,128
  800b88:	10bfe004 	addi	r2,r2,-128
  800b8c:	1000061e 	bne	r2,zero,800ba8 <logic+0x40c>
  800b90:	e0bffc17 	ldw	r2,-16(fp)
  800b94:	10802483 	ldbu	r2,146(r2)
  800b98:	10803fcc 	andi	r2,r2,255
  800b9c:	1080201c 	xori	r2,r2,128
  800ba0:	10bfe004 	addi	r2,r2,-128
  800ba4:	10000226 	beq	r2,zero,800bb0 <logic+0x414>
  800ba8:	00800044 	movi	r2,1
  800bac:	00000106 	br	800bb4 <logic+0x418>
  800bb0:	0005883a 	mov	r2,zero
  800bb4:	1007883a 	mov	r3,r2
  800bb8:	e0bffc17 	ldw	r2,-16(fp)
  800bbc:	10c05d05 	stb	r3,372(r2)
  if (d->_g35_e2) {
  800bc0:	e0bffc17 	ldw	r2,-16(fp)
  800bc4:	10805d03 	ldbu	r2,372(r2)
  800bc8:	10803fcc 	andi	r2,r2,255
  800bcc:	1080201c 	xori	r2,r2,128
  800bd0:	10bfe004 	addi	r2,r2,-128
  800bd4:	10000526 	beq	r2,zero,800bec <logic+0x450>
    d->_region0_null_URI = 0;
  800bd8:	e0bffc17 	ldw	r2,-16(fp)
  800bdc:	10000715 	stw	zero,28(r2)
  800be0:	10000815 	stw	zero,32(r2)
    d->ready = 0;
  800be4:	e0bffc17 	ldw	r2,-16(fp)
  800be8:	10000605 	stb	zero,24(r2)
  }
  d->_g31 = d->_pg7_e1;
  800bec:	e0bffc17 	ldw	r2,-16(fp)
  800bf0:	10c06483 	ldbu	r3,402(r2)
  800bf4:	e0bffc17 	ldw	r2,-16(fp)
  800bf8:	10c02405 	stb	r3,144(r2)
  if (d->_g31) {
  800bfc:	e0bffc17 	ldw	r2,-16(fp)
  800c00:	10802403 	ldbu	r2,144(r2)
  800c04:	10803fcc 	andi	r2,r2,255
  800c08:	1080201c 	xori	r2,r2,128
  800c0c:	10bfe004 	addi	r2,r2,-128
  800c10:	10001226 	beq	r2,zero,800c5c <logic+0x4c0>
    d->_region0_null_URI += d->deltaT;
  800c14:	e13ffc17 	ldw	r4,-16(fp)
  800c18:	20800717 	ldw	r2,28(r4)
  800c1c:	20c00817 	ldw	r3,32(r4)
  800c20:	e1bffc17 	ldw	r6,-16(fp)
  800c24:	31001317 	ldw	r4,76(r6)
  800c28:	31401417 	ldw	r5,80(r6)
  800c2c:	200d883a 	mov	r6,r4
  800c30:	280f883a 	mov	r7,r5
  800c34:	1009883a 	mov	r4,r2
  800c38:	180b883a 	mov	r5,r3
  800c3c:	08078280 	call	807828 <__adddf3>
  800c40:	1009883a 	mov	r4,r2
  800c44:	180b883a 	mov	r5,r3
  800c48:	2005883a 	mov	r2,r4
  800c4c:	2807883a 	mov	r3,r5
  800c50:	e13ffc17 	ldw	r4,-16(fp)
  800c54:	20800715 	stw	r2,28(r4)
  800c58:	20c00815 	stw	r3,32(r4)
  }
  d->_g31_e1 = !d->_g31;
  800c5c:	e0bffc17 	ldw	r2,-16(fp)
  800c60:	10802403 	ldbu	r2,144(r2)
  800c64:	10803fcc 	andi	r2,r2,255
  800c68:	1080201c 	xori	r2,r2,128
  800c6c:	10bfe004 	addi	r2,r2,-128
  800c70:	1005003a 	cmpeq	r2,r2,zero
  800c74:	1007883a 	mov	r3,r2
  800c78:	e0bffc17 	ldw	r2,-16(fp)
  800c7c:	10c05cc5 	stb	r3,371(r2)
  d->_g35 = d->_pg36;
  800c80:	e0bffc17 	ldw	r2,-16(fp)
  800c84:	10c064c3 	ldbu	r3,403(r2)
  800c88:	e0bffc17 	ldw	r2,-16(fp)
  800c8c:	10c02485 	stb	r3,146(r2)
  d->_cg21 = d->_region0_null_URI >= d->URI_time;
  800c90:	e0bffc17 	ldw	r2,-16(fp)
  800c94:	14000717 	ldw	r16,28(r2)
  800c98:	14400817 	ldw	r17,32(r2)
  800c9c:	e0bffc17 	ldw	r2,-16(fp)
  800ca0:	10800217 	ldw	r2,8(r2)
  800ca4:	1009883a 	mov	r4,r2
  800ca8:	0808ba00 	call	808ba0 <__floatsidf>
  800cac:	1009883a 	mov	r4,r2
  800cb0:	180b883a 	mov	r5,r3
  800cb4:	04800044 	movi	r18,1
  800cb8:	200d883a 	mov	r6,r4
  800cbc:	280f883a 	mov	r7,r5
  800cc0:	8009883a 	mov	r4,r16
  800cc4:	880b883a 	mov	r5,r17
  800cc8:	08080d40 	call	8080d4 <__gedf2>
  800ccc:	1000010e 	bge	r2,zero,800cd4 <logic+0x538>
  800cd0:	0025883a 	mov	r18,zero
  800cd4:	9007883a 	mov	r3,r18
  800cd8:	e0bffc17 	ldw	r2,-16(fp)
  800cdc:	10c047c5 	stb	r3,287(r2)
  d->_g22 = d->_g35 && d->_cg21;
  800ce0:	e0bffc17 	ldw	r2,-16(fp)
  800ce4:	10802483 	ldbu	r2,146(r2)
  800ce8:	10803fcc 	andi	r2,r2,255
  800cec:	1080201c 	xori	r2,r2,128
  800cf0:	10bfe004 	addi	r2,r2,-128
  800cf4:	10000826 	beq	r2,zero,800d18 <logic+0x57c>
  800cf8:	e0bffc17 	ldw	r2,-16(fp)
  800cfc:	108047c3 	ldbu	r2,287(r2)
  800d00:	10803fcc 	andi	r2,r2,255
  800d04:	1080201c 	xori	r2,r2,128
  800d08:	10bfe004 	addi	r2,r2,-128
  800d0c:	10000226 	beq	r2,zero,800d18 <logic+0x57c>
  800d10:	00800044 	movi	r2,1
  800d14:	00000106 	br	800d1c <logic+0x580>
  800d18:	0005883a 	mov	r2,zero
  800d1c:	1007883a 	mov	r3,r2
  800d20:	e0bffc17 	ldw	r2,-16(fp)
  800d24:	10c02245 	stb	r3,137(r2)
  if (d->_g22) {
  800d28:	e0bffc17 	ldw	r2,-16(fp)
  800d2c:	10802243 	ldbu	r2,137(r2)
  800d30:	10803fcc 	andi	r2,r2,255
  800d34:	1080201c 	xori	r2,r2,128
  800d38:	10bfe004 	addi	r2,r2,-128
  800d3c:	10000326 	beq	r2,zero,800d4c <logic+0x5b0>
    d->_heart2_local__Atrig = 1;
  800d40:	e0bffc17 	ldw	r2,-16(fp)
  800d44:	00c00044 	movi	r3,1
  800d48:	10c01a45 	stb	r3,105(r2)
  }
  d->_g24 = d->_g35 && !d->_cg21;
  800d4c:	e0bffc17 	ldw	r2,-16(fp)
  800d50:	10802483 	ldbu	r2,146(r2)
  800d54:	10803fcc 	andi	r2,r2,255
  800d58:	1080201c 	xori	r2,r2,128
  800d5c:	10bfe004 	addi	r2,r2,-128
  800d60:	10000826 	beq	r2,zero,800d84 <logic+0x5e8>
  800d64:	e0bffc17 	ldw	r2,-16(fp)
  800d68:	108047c3 	ldbu	r2,287(r2)
  800d6c:	10803fcc 	andi	r2,r2,255
  800d70:	1080201c 	xori	r2,r2,128
  800d74:	10bfe004 	addi	r2,r2,-128
  800d78:	1000021e 	bne	r2,zero,800d84 <logic+0x5e8>
  800d7c:	00800044 	movi	r2,1
  800d80:	00000106 	br	800d88 <logic+0x5ec>
  800d84:	0005883a 	mov	r2,zero
  800d88:	1007883a 	mov	r3,r2
  800d8c:	e0bffc17 	ldw	r2,-16(fp)
  800d90:	10c022c5 	stb	r3,139(r2)
  d->_cg24 = d->v;
  800d94:	e0bffc17 	ldw	r2,-16(fp)
  800d98:	10c018c3 	ldbu	r3,99(r2)
  800d9c:	e0bffc17 	ldw	r2,-16(fp)
  800da0:	10c04785 	stb	r3,286(r2)
  d->_g25 = d->_g24 && d->_cg24;
  800da4:	e0bffc17 	ldw	r2,-16(fp)
  800da8:	108022c3 	ldbu	r2,139(r2)
  800dac:	10803fcc 	andi	r2,r2,255
  800db0:	1080201c 	xori	r2,r2,128
  800db4:	10bfe004 	addi	r2,r2,-128
  800db8:	10000826 	beq	r2,zero,800ddc <logic+0x640>
  800dbc:	e0bffc17 	ldw	r2,-16(fp)
  800dc0:	10804783 	ldbu	r2,286(r2)
  800dc4:	10803fcc 	andi	r2,r2,255
  800dc8:	1080201c 	xori	r2,r2,128
  800dcc:	10bfe004 	addi	r2,r2,-128
  800dd0:	10000226 	beq	r2,zero,800ddc <logic+0x640>
  800dd4:	00800044 	movi	r2,1
  800dd8:	00000106 	br	800de0 <logic+0x644>
  800ddc:	0005883a 	mov	r2,zero
  800de0:	1007883a 	mov	r3,r2
  800de4:	e0bffc17 	ldw	r2,-16(fp)
  800de8:	10c02305 	stb	r3,140(r2)
  if (d->_g25) {
  800dec:	e0bffc17 	ldw	r2,-16(fp)
  800df0:	10802303 	ldbu	r2,140(r2)
  800df4:	10803fcc 	andi	r2,r2,255
  800df8:	1080201c 	xori	r2,r2,128
  800dfc:	10bfe004 	addi	r2,r2,-128
  800e00:	10000326 	beq	r2,zero,800e10 <logic+0x674>
    d->_heart2_local__Atrig1 = 1;
  800e04:	e0bffc17 	ldw	r2,-16(fp)
  800e08:	00c00044 	movi	r3,1
  800e0c:	10c01a85 	stb	r3,106(r2)
  }
  d->_cg6 = d->_heart2_local__Atrig || d->_heart2_local__Atrig1;
  800e10:	e0bffc17 	ldw	r2,-16(fp)
  800e14:	10801a43 	ldbu	r2,105(r2)
  800e18:	10803fcc 	andi	r2,r2,255
  800e1c:	1080201c 	xori	r2,r2,128
  800e20:	10bfe004 	addi	r2,r2,-128
  800e24:	1000061e 	bne	r2,zero,800e40 <logic+0x6a4>
  800e28:	e0bffc17 	ldw	r2,-16(fp)
  800e2c:	10801a83 	ldbu	r2,106(r2)
  800e30:	10803fcc 	andi	r2,r2,255
  800e34:	1080201c 	xori	r2,r2,128
  800e38:	10bfe004 	addi	r2,r2,-128
  800e3c:	10000226 	beq	r2,zero,800e48 <logic+0x6ac>
  800e40:	00800044 	movi	r2,1
  800e44:	00000106 	br	800e4c <logic+0x6b0>
  800e48:	0005883a 	mov	r2,zero
  800e4c:	1007883a 	mov	r3,r2
  800e50:	e0bffc17 	ldw	r2,-16(fp)
  800e54:	10c045c5 	stb	r3,279(r2)
  d->_g7 = d->_g31 && d->_cg6;
  800e58:	e0bffc17 	ldw	r2,-16(fp)
  800e5c:	10802403 	ldbu	r2,144(r2)
  800e60:	10803fcc 	andi	r2,r2,255
  800e64:	1080201c 	xori	r2,r2,128
  800e68:	10bfe004 	addi	r2,r2,-128
  800e6c:	10000826 	beq	r2,zero,800e90 <logic+0x6f4>
  800e70:	e0bffc17 	ldw	r2,-16(fp)
  800e74:	108045c3 	ldbu	r2,279(r2)
  800e78:	10803fcc 	andi	r2,r2,255
  800e7c:	1080201c 	xori	r2,r2,128
  800e80:	10bfe004 	addi	r2,r2,-128
  800e84:	10000226 	beq	r2,zero,800e90 <logic+0x6f4>
  800e88:	00800044 	movi	r2,1
  800e8c:	00000106 	br	800e94 <logic+0x6f8>
  800e90:	0005883a 	mov	r2,zero
  800e94:	1007883a 	mov	r3,r2
  800e98:	e0bffc17 	ldw	r2,-16(fp)
  800e9c:	10c01fc5 	stb	r3,127(r2)
  d->_g17 = d->_pg37;
  800ea0:	e0bffc17 	ldw	r2,-16(fp)
  800ea4:	10c06503 	ldbu	r3,404(r2)
  800ea8:	e0bffc17 	ldw	r2,-16(fp)
  800eac:	10c02185 	stb	r3,134(r2)
  d->_g11 = d->_pg14;
  800eb0:	e0bffc17 	ldw	r2,-16(fp)
  800eb4:	10c06543 	ldbu	r3,405(r2)
  800eb8:	e0bffc17 	ldw	r2,-16(fp)
  800ebc:	10c02045 	stb	r3,129(r2)
  d->_g14_e2 = !(d->_g17 || d->_g11);
  800ec0:	e0bffc17 	ldw	r2,-16(fp)
  800ec4:	10802183 	ldbu	r2,134(r2)
  800ec8:	10803fcc 	andi	r2,r2,255
  800ecc:	1080201c 	xori	r2,r2,128
  800ed0:	10bfe004 	addi	r2,r2,-128
  800ed4:	1000081e 	bne	r2,zero,800ef8 <logic+0x75c>
  800ed8:	e0bffc17 	ldw	r2,-16(fp)
  800edc:	10802043 	ldbu	r2,129(r2)
  800ee0:	10803fcc 	andi	r2,r2,255
  800ee4:	1080201c 	xori	r2,r2,128
  800ee8:	10bfe004 	addi	r2,r2,-128
  800eec:	1000021e 	bne	r2,zero,800ef8 <logic+0x75c>
  800ef0:	00800044 	movi	r2,1
  800ef4:	00000106 	br	800efc <logic+0x760>
  800ef8:	0005883a 	mov	r2,zero
  800efc:	1007883a 	mov	r3,r2
  800f00:	e0bffc17 	ldw	r2,-16(fp)
  800f04:	10c05c45 	stb	r3,369(r2)
  d->sleepT = 1000.0;
  800f08:	e0fffc17 	ldw	r3,-16(fp)
  800f0c:	18001515 	stw	zero,84(r3)
  800f10:	009023f4 	movhi	r2,16527
  800f14:	10900004 	addi	r2,r2,16384
  800f18:	18801615 	stw	r2,88(r3)
  d->_g11 = d->_g11 || d->_g17;
  800f1c:	e0bffc17 	ldw	r2,-16(fp)
  800f20:	10802043 	ldbu	r2,129(r2)
  800f24:	10803fcc 	andi	r2,r2,255
  800f28:	1080201c 	xori	r2,r2,128
  800f2c:	10bfe004 	addi	r2,r2,-128
  800f30:	1000061e 	bne	r2,zero,800f4c <logic+0x7b0>
  800f34:	e0bffc17 	ldw	r2,-16(fp)
  800f38:	10802183 	ldbu	r2,134(r2)
  800f3c:	10803fcc 	andi	r2,r2,255
  800f40:	1080201c 	xori	r2,r2,128
  800f44:	10bfe004 	addi	r2,r2,-128
  800f48:	10000226 	beq	r2,zero,800f54 <logic+0x7b8>
  800f4c:	00800044 	movi	r2,1
  800f50:	00000106 	br	800f58 <logic+0x7bc>
  800f54:	0005883a 	mov	r2,zero
  800f58:	1007883a 	mov	r3,r2
  800f5c:	e0bffc17 	ldw	r2,-16(fp)
  800f60:	10c02045 	stb	r3,129(r2)
  d->_cg12 = d->_region0_null_URI < d->URI_time;
  800f64:	e0bffc17 	ldw	r2,-16(fp)
  800f68:	14000717 	ldw	r16,28(r2)
  800f6c:	14400817 	ldw	r17,32(r2)
  800f70:	e0bffc17 	ldw	r2,-16(fp)
  800f74:	10800217 	ldw	r2,8(r2)
  800f78:	1009883a 	mov	r4,r2
  800f7c:	0808ba00 	call	808ba0 <__floatsidf>
  800f80:	1009883a 	mov	r4,r2
  800f84:	180b883a 	mov	r5,r3
  800f88:	04800044 	movi	r18,1
  800f8c:	200d883a 	mov	r6,r4
  800f90:	280f883a 	mov	r7,r5
  800f94:	8009883a 	mov	r4,r16
  800f98:	880b883a 	mov	r5,r17
  800f9c:	08081b00 	call	8081b0 <__ledf2>
  800fa0:	10000116 	blt	r2,zero,800fa8 <logic+0x80c>
  800fa4:	0025883a 	mov	r18,zero
  800fa8:	9007883a 	mov	r3,r18
  800fac:	e0bffc17 	ldw	r2,-16(fp)
  800fb0:	10c046c5 	stb	r3,283(r2)
  d->_g17 = d->_g11 && d->_cg12;
  800fb4:	e0bffc17 	ldw	r2,-16(fp)
  800fb8:	10802043 	ldbu	r2,129(r2)
  800fbc:	10803fcc 	andi	r2,r2,255
  800fc0:	1080201c 	xori	r2,r2,128
  800fc4:	10bfe004 	addi	r2,r2,-128
  800fc8:	10000826 	beq	r2,zero,800fec <logic+0x850>
  800fcc:	e0bffc17 	ldw	r2,-16(fp)
  800fd0:	108046c3 	ldbu	r2,283(r2)
  800fd4:	10803fcc 	andi	r2,r2,255
  800fd8:	1080201c 	xori	r2,r2,128
  800fdc:	10bfe004 	addi	r2,r2,-128
  800fe0:	10000226 	beq	r2,zero,800fec <logic+0x850>
  800fe4:	00800044 	movi	r2,1
  800fe8:	00000106 	br	800ff0 <logic+0x854>
  800fec:	0005883a 	mov	r2,zero
  800ff0:	1007883a 	mov	r3,r2
  800ff4:	e0bffc17 	ldw	r2,-16(fp)
  800ff8:	10c02185 	stb	r3,134(r2)
  if (d->_g17) {
  800ffc:	e0bffc17 	ldw	r2,-16(fp)
  801000:	10802183 	ldbu	r2,134(r2)
  801004:	10803fcc 	andi	r2,r2,255
  801008:	1080201c 	xori	r2,r2,128
  80100c:	10bfe004 	addi	r2,r2,-128
  801010:	10003426 	beq	r2,zero,8010e4 <logic+0x948>
    d->sleepT = (d->sleepT < (d->URI_time - d->_region0_null_URI)) ? d->sleepT : (d->URI_time - d->_region0_null_URI);
  801014:	e0bffc17 	ldw	r2,-16(fp)
  801018:	14001517 	ldw	r16,84(r2)
  80101c:	14401617 	ldw	r17,88(r2)
  801020:	e0bffc17 	ldw	r2,-16(fp)
  801024:	10800217 	ldw	r2,8(r2)
  801028:	1009883a 	mov	r4,r2
  80102c:	0808ba00 	call	808ba0 <__floatsidf>
  801030:	1011883a 	mov	r8,r2
  801034:	1813883a 	mov	r9,r3
  801038:	e13ffc17 	ldw	r4,-16(fp)
  80103c:	20800717 	ldw	r2,28(r4)
  801040:	20c00817 	ldw	r3,32(r4)
  801044:	100d883a 	mov	r6,r2
  801048:	180f883a 	mov	r7,r3
  80104c:	4009883a 	mov	r4,r8
  801050:	480b883a 	mov	r5,r9
  801054:	08082a40 	call	8082a4 <__subdf3>
  801058:	1009883a 	mov	r4,r2
  80105c:	180b883a 	mov	r5,r3
  801060:	2005883a 	mov	r2,r4
  801064:	2807883a 	mov	r3,r5
  801068:	100d883a 	mov	r6,r2
  80106c:	180f883a 	mov	r7,r3
  801070:	8009883a 	mov	r4,r16
  801074:	880b883a 	mov	r5,r17
  801078:	08081b00 	call	8081b0 <__ledf2>
  80107c:	1000040e 	bge	r2,zero,801090 <logic+0x8f4>
  801080:	e13ffc17 	ldw	r4,-16(fp)
  801084:	20801517 	ldw	r2,84(r4)
  801088:	20c01617 	ldw	r3,88(r4)
  80108c:	00001206 	br	8010d8 <logic+0x93c>
  801090:	e0bffc17 	ldw	r2,-16(fp)
  801094:	10800217 	ldw	r2,8(r2)
  801098:	1009883a 	mov	r4,r2
  80109c:	0808ba00 	call	808ba0 <__floatsidf>
  8010a0:	1011883a 	mov	r8,r2
  8010a4:	1813883a 	mov	r9,r3
  8010a8:	e13ffc17 	ldw	r4,-16(fp)
  8010ac:	20800717 	ldw	r2,28(r4)
  8010b0:	20c00817 	ldw	r3,32(r4)
  8010b4:	100d883a 	mov	r6,r2
  8010b8:	180f883a 	mov	r7,r3
  8010bc:	4009883a 	mov	r4,r8
  8010c0:	480b883a 	mov	r5,r9
  8010c4:	08082a40 	call	8082a4 <__subdf3>
  8010c8:	1009883a 	mov	r4,r2
  8010cc:	180b883a 	mov	r5,r3
  8010d0:	2005883a 	mov	r2,r4
  8010d4:	2807883a 	mov	r3,r5
  8010d8:	e13ffc17 	ldw	r4,-16(fp)
  8010dc:	20801515 	stw	r2,84(r4)
  8010e0:	20c01615 	stw	r3,88(r4)
  }
  d->_cg13 = d->_heart2_local__Atrig || d->_heart2_local__Atrig1;
  8010e4:	e0bffc17 	ldw	r2,-16(fp)
  8010e8:	10801a43 	ldbu	r2,105(r2)
  8010ec:	10803fcc 	andi	r2,r2,255
  8010f0:	1080201c 	xori	r2,r2,128
  8010f4:	10bfe004 	addi	r2,r2,-128
  8010f8:	1000061e 	bne	r2,zero,801114 <logic+0x978>
  8010fc:	e0bffc17 	ldw	r2,-16(fp)
  801100:	10801a83 	ldbu	r2,106(r2)
  801104:	10803fcc 	andi	r2,r2,255
  801108:	1080201c 	xori	r2,r2,128
  80110c:	10bfe004 	addi	r2,r2,-128
  801110:	10000226 	beq	r2,zero,80111c <logic+0x980>
  801114:	00800044 	movi	r2,1
  801118:	00000106 	br	801120 <logic+0x984>
  80111c:	0005883a 	mov	r2,zero
  801120:	1007883a 	mov	r3,r2
  801124:	e0bffc17 	ldw	r2,-16(fp)
  801128:	10c04685 	stb	r3,282(r2)
  d->_g12 = d->_g11 && !d->_cg12;
  80112c:	e0bffc17 	ldw	r2,-16(fp)
  801130:	10802043 	ldbu	r2,129(r2)
  801134:	10803fcc 	andi	r2,r2,255
  801138:	1080201c 	xori	r2,r2,128
  80113c:	10bfe004 	addi	r2,r2,-128
  801140:	10000826 	beq	r2,zero,801164 <logic+0x9c8>
  801144:	e0bffc17 	ldw	r2,-16(fp)
  801148:	108046c3 	ldbu	r2,283(r2)
  80114c:	10803fcc 	andi	r2,r2,255
  801150:	1080201c 	xori	r2,r2,128
  801154:	10bfe004 	addi	r2,r2,-128
  801158:	1000021e 	bne	r2,zero,801164 <logic+0x9c8>
  80115c:	00800044 	movi	r2,1
  801160:	00000106 	br	801168 <logic+0x9cc>
  801164:	0005883a 	mov	r2,zero
  801168:	1007883a 	mov	r3,r2
  80116c:	e0bffc17 	ldw	r2,-16(fp)
  801170:	10c02085 	stb	r3,130(r2)
  d->_cg15 = d->_heart2_local__Atrig || d->_heart2_local__Atrig1;
  801174:	e0bffc17 	ldw	r2,-16(fp)
  801178:	10801a43 	ldbu	r2,105(r2)
  80117c:	10803fcc 	andi	r2,r2,255
  801180:	1080201c 	xori	r2,r2,128
  801184:	10bfe004 	addi	r2,r2,-128
  801188:	1000061e 	bne	r2,zero,8011a4 <logic+0xa08>
  80118c:	e0bffc17 	ldw	r2,-16(fp)
  801190:	10801a83 	ldbu	r2,106(r2)
  801194:	10803fcc 	andi	r2,r2,255
  801198:	1080201c 	xori	r2,r2,128
  80119c:	10bfe004 	addi	r2,r2,-128
  8011a0:	10000226 	beq	r2,zero,8011ac <logic+0xa10>
  8011a4:	00800044 	movi	r2,1
  8011a8:	00000106 	br	8011b0 <logic+0xa14>
  8011ac:	0005883a 	mov	r2,zero
  8011b0:	1007883a 	mov	r3,r2
  8011b4:	e0bffc17 	ldw	r2,-16(fp)
  8011b8:	10c04705 	stb	r3,284(r2)
  d->_g14 = d->_g17 && d->_cg13 || d->_g12 && d->_cg15;
  8011bc:	e0bffc17 	ldw	r2,-16(fp)
  8011c0:	10802183 	ldbu	r2,134(r2)
  8011c4:	10803fcc 	andi	r2,r2,255
  8011c8:	1080201c 	xori	r2,r2,128
  8011cc:	10bfe004 	addi	r2,r2,-128
  8011d0:	10000626 	beq	r2,zero,8011ec <logic+0xa50>
  8011d4:	e0bffc17 	ldw	r2,-16(fp)
  8011d8:	10804683 	ldbu	r2,282(r2)
  8011dc:	10803fcc 	andi	r2,r2,255
  8011e0:	1080201c 	xori	r2,r2,128
  8011e4:	10bfe004 	addi	r2,r2,-128
  8011e8:	10000c1e 	bne	r2,zero,80121c <logic+0xa80>
  8011ec:	e0bffc17 	ldw	r2,-16(fp)
  8011f0:	10802083 	ldbu	r2,130(r2)
  8011f4:	10803fcc 	andi	r2,r2,255
  8011f8:	1080201c 	xori	r2,r2,128
  8011fc:	10bfe004 	addi	r2,r2,-128
  801200:	10000826 	beq	r2,zero,801224 <logic+0xa88>
  801204:	e0bffc17 	ldw	r2,-16(fp)
  801208:	10804703 	ldbu	r2,284(r2)
  80120c:	10803fcc 	andi	r2,r2,255
  801210:	1080201c 	xori	r2,r2,128
  801214:	10bfe004 	addi	r2,r2,-128
  801218:	10000226 	beq	r2,zero,801224 <logic+0xa88>
  80121c:	00800044 	movi	r2,1
  801220:	00000106 	br	801228 <logic+0xa8c>
  801224:	0005883a 	mov	r2,zero
  801228:	1007883a 	mov	r3,r2
  80122c:	e0bffc17 	ldw	r2,-16(fp)
  801230:	10c02105 	stb	r3,132(r2)
  d->_g21 = !d->_g35;
  801234:	e0bffc17 	ldw	r2,-16(fp)
  801238:	10802483 	ldbu	r2,146(r2)
  80123c:	10803fcc 	andi	r2,r2,255
  801240:	1080201c 	xori	r2,r2,128
  801244:	10bfe004 	addi	r2,r2,-128
  801248:	1005003a 	cmpeq	r2,r2,zero
  80124c:	1007883a 	mov	r3,r2
  801250:	e0bffc17 	ldw	r2,-16(fp)
  801254:	10c02205 	stb	r3,136(r2)
  d->_g22 = d->_g22 || d->_g25;
  801258:	e0bffc17 	ldw	r2,-16(fp)
  80125c:	10802243 	ldbu	r2,137(r2)
  801260:	10803fcc 	andi	r2,r2,255
  801264:	1080201c 	xori	r2,r2,128
  801268:	10bfe004 	addi	r2,r2,-128
  80126c:	1000061e 	bne	r2,zero,801288 <logic+0xaec>
  801270:	e0bffc17 	ldw	r2,-16(fp)
  801274:	10802303 	ldbu	r2,140(r2)
  801278:	10803fcc 	andi	r2,r2,255
  80127c:	1080201c 	xori	r2,r2,128
  801280:	10bfe004 	addi	r2,r2,-128
  801284:	10000226 	beq	r2,zero,801290 <logic+0xaf4>
  801288:	00800044 	movi	r2,1
  80128c:	00000106 	br	801294 <logic+0xaf8>
  801290:	0005883a 	mov	r2,zero
  801294:	1007883a 	mov	r3,r2
  801298:	e0bffc17 	ldw	r2,-16(fp)
  80129c:	10c02245 	stb	r3,137(r2)
  d->_g25 = (d->_g31_e1 || d->_g7) && (d->_g14_e2 || d->_g14) && (d->_g21 || d->_g22) && (d->_g7 || d->_g14 || d->_g22);
  8012a0:	e0bffc17 	ldw	r2,-16(fp)
  8012a4:	10805cc3 	ldbu	r2,371(r2)
  8012a8:	10803fcc 	andi	r2,r2,255
  8012ac:	1080201c 	xori	r2,r2,128
  8012b0:	10bfe004 	addi	r2,r2,-128
  8012b4:	1000061e 	bne	r2,zero,8012d0 <logic+0xb34>
  8012b8:	e0bffc17 	ldw	r2,-16(fp)
  8012bc:	10801fc3 	ldbu	r2,127(r2)
  8012c0:	10803fcc 	andi	r2,r2,255
  8012c4:	1080201c 	xori	r2,r2,128
  8012c8:	10bfe004 	addi	r2,r2,-128
  8012cc:	10002c26 	beq	r2,zero,801380 <logic+0xbe4>
  8012d0:	e0bffc17 	ldw	r2,-16(fp)
  8012d4:	10805c43 	ldbu	r2,369(r2)
  8012d8:	10803fcc 	andi	r2,r2,255
  8012dc:	1080201c 	xori	r2,r2,128
  8012e0:	10bfe004 	addi	r2,r2,-128
  8012e4:	1000061e 	bne	r2,zero,801300 <logic+0xb64>
  8012e8:	e0bffc17 	ldw	r2,-16(fp)
  8012ec:	10802103 	ldbu	r2,132(r2)
  8012f0:	10803fcc 	andi	r2,r2,255
  8012f4:	1080201c 	xori	r2,r2,128
  8012f8:	10bfe004 	addi	r2,r2,-128
  8012fc:	10002026 	beq	r2,zero,801380 <logic+0xbe4>
  801300:	e0bffc17 	ldw	r2,-16(fp)
  801304:	10802203 	ldbu	r2,136(r2)
  801308:	10803fcc 	andi	r2,r2,255
  80130c:	1080201c 	xori	r2,r2,128
  801310:	10bfe004 	addi	r2,r2,-128
  801314:	1000061e 	bne	r2,zero,801330 <logic+0xb94>
  801318:	e0bffc17 	ldw	r2,-16(fp)
  80131c:	10802243 	ldbu	r2,137(r2)
  801320:	10803fcc 	andi	r2,r2,255
  801324:	1080201c 	xori	r2,r2,128
  801328:	10bfe004 	addi	r2,r2,-128
  80132c:	10001426 	beq	r2,zero,801380 <logic+0xbe4>
  801330:	e0bffc17 	ldw	r2,-16(fp)
  801334:	10801fc3 	ldbu	r2,127(r2)
  801338:	10803fcc 	andi	r2,r2,255
  80133c:	1080201c 	xori	r2,r2,128
  801340:	10bfe004 	addi	r2,r2,-128
  801344:	10000c1e 	bne	r2,zero,801378 <logic+0xbdc>
  801348:	e0bffc17 	ldw	r2,-16(fp)
  80134c:	10802103 	ldbu	r2,132(r2)
  801350:	10803fcc 	andi	r2,r2,255
  801354:	1080201c 	xori	r2,r2,128
  801358:	10bfe004 	addi	r2,r2,-128
  80135c:	1000061e 	bne	r2,zero,801378 <logic+0xbdc>
  801360:	e0bffc17 	ldw	r2,-16(fp)
  801364:	10802243 	ldbu	r2,137(r2)
  801368:	10803fcc 	andi	r2,r2,255
  80136c:	1080201c 	xori	r2,r2,128
  801370:	10bfe004 	addi	r2,r2,-128
  801374:	10000226 	beq	r2,zero,801380 <logic+0xbe4>
  801378:	00800044 	movi	r2,1
  80137c:	00000106 	br	801384 <logic+0xbe8>
  801380:	0005883a 	mov	r2,zero
  801384:	1007883a 	mov	r3,r2
  801388:	e0bffc17 	ldw	r2,-16(fp)
  80138c:	10c02305 	stb	r3,140(r2)
  d->_cg26 = d->_heart2_local__Atrig;
  801390:	e0bffc17 	ldw	r2,-16(fp)
  801394:	10c01a43 	ldbu	r3,105(r2)
  801398:	e0bffc17 	ldw	r2,-16(fp)
  80139c:	10c04805 	stb	r3,288(r2)
  d->_g23_e3 = d->_g25 && !d->_cg26;
  8013a0:	e0bffc17 	ldw	r2,-16(fp)
  8013a4:	10802303 	ldbu	r2,140(r2)
  8013a8:	10803fcc 	andi	r2,r2,255
  8013ac:	1080201c 	xori	r2,r2,128
  8013b0:	10bfe004 	addi	r2,r2,-128
  8013b4:	10000826 	beq	r2,zero,8013d8 <logic+0xc3c>
  8013b8:	e0bffc17 	ldw	r2,-16(fp)
  8013bc:	10804803 	ldbu	r2,288(r2)
  8013c0:	10803fcc 	andi	r2,r2,255
  8013c4:	1080201c 	xori	r2,r2,128
  8013c8:	10bfe004 	addi	r2,r2,-128
  8013cc:	1000021e 	bne	r2,zero,8013d8 <logic+0xc3c>
  8013d0:	00800044 	movi	r2,1
  8013d4:	00000106 	br	8013dc <logic+0xc40>
  8013d8:	0005883a 	mov	r2,zero
  8013dc:	1007883a 	mov	r3,r2
  8013e0:	e0bffc17 	ldw	r2,-16(fp)
  8013e4:	10c05c85 	stb	r3,370(r2)
  if (d->_g23_e3) {
  8013e8:	e0bffc17 	ldw	r2,-16(fp)
  8013ec:	10805c83 	ldbu	r2,370(r2)
  8013f0:	10803fcc 	andi	r2,r2,255
  8013f4:	1080201c 	xori	r2,r2,128
  8013f8:	10bfe004 	addi	r2,r2,-128
  8013fc:	10000326 	beq	r2,zero,80140c <logic+0xc70>
    d->_region0_null_URI = 0;
  801400:	e0bffc17 	ldw	r2,-16(fp)
  801404:	10000715 	stw	zero,28(r2)
  801408:	10000815 	stw	zero,32(r2)
  }
  d->_g23 = d->_GO || d->_g35_e2 || d->_g23_e3;
  80140c:	e0bffc17 	ldw	r2,-16(fp)
  801410:	10804543 	ldbu	r2,277(r2)
  801414:	10803fcc 	andi	r2,r2,255
  801418:	1080201c 	xori	r2,r2,128
  80141c:	10bfe004 	addi	r2,r2,-128
  801420:	10000c1e 	bne	r2,zero,801454 <logic+0xcb8>
  801424:	e0bffc17 	ldw	r2,-16(fp)
  801428:	10805d03 	ldbu	r2,372(r2)
  80142c:	10803fcc 	andi	r2,r2,255
  801430:	1080201c 	xori	r2,r2,128
  801434:	10bfe004 	addi	r2,r2,-128
  801438:	1000061e 	bne	r2,zero,801454 <logic+0xcb8>
  80143c:	e0bffc17 	ldw	r2,-16(fp)
  801440:	10805c83 	ldbu	r2,370(r2)
  801444:	10803fcc 	andi	r2,r2,255
  801448:	1080201c 	xori	r2,r2,128
  80144c:	10bfe004 	addi	r2,r2,-128
  801450:	10000226 	beq	r2,zero,80145c <logic+0xcc0>
  801454:	00800044 	movi	r2,1
  801458:	00000106 	br	801460 <logic+0xcc4>
  80145c:	0005883a 	mov	r2,zero
  801460:	1007883a 	mov	r3,r2
  801464:	e0bffc17 	ldw	r2,-16(fp)
  801468:	10c02285 	stb	r3,138(r2)
  if (d->_g23) {
  80146c:	e0bffc17 	ldw	r2,-16(fp)
  801470:	10802283 	ldbu	r2,138(r2)
  801474:	10803fcc 	andi	r2,r2,255
  801478:	1080201c 	xori	r2,r2,128
  80147c:	10bfe004 	addi	r2,r2,-128
  801480:	10000426 	beq	r2,zero,801494 <logic+0xcf8>
    d->_heart2_local__Atrig = 0;
  801484:	e0bffc17 	ldw	r2,-16(fp)
  801488:	10001a45 	stb	zero,105(r2)
    d->_heart2_local__Atrig1 = 0;
  80148c:	e0bffc17 	ldw	r2,-16(fp)
  801490:	10001a85 	stb	zero,106(r2)
  }
  d->_cg4 = d->_heart2_local__Atrig || d->_heart2_local__Atrig1;
  801494:	e0bffc17 	ldw	r2,-16(fp)
  801498:	10801a43 	ldbu	r2,105(r2)
  80149c:	10803fcc 	andi	r2,r2,255
  8014a0:	1080201c 	xori	r2,r2,128
  8014a4:	10bfe004 	addi	r2,r2,-128
  8014a8:	1000061e 	bne	r2,zero,8014c4 <logic+0xd28>
  8014ac:	e0bffc17 	ldw	r2,-16(fp)
  8014b0:	10801a83 	ldbu	r2,106(r2)
  8014b4:	10803fcc 	andi	r2,r2,255
  8014b8:	1080201c 	xori	r2,r2,128
  8014bc:	10bfe004 	addi	r2,r2,-128
  8014c0:	10000226 	beq	r2,zero,8014cc <logic+0xd30>
  8014c4:	00800044 	movi	r2,1
  8014c8:	00000106 	br	8014d0 <logic+0xd34>
  8014cc:	0005883a 	mov	r2,zero
  8014d0:	1007883a 	mov	r3,r2
  8014d4:	e0bffc17 	ldw	r2,-16(fp)
  8014d8:	10c04585 	stb	r3,278(r2)
  d->_g7_e1 = d->_g23 && !d->_cg4 || d->_g31 && !d->_cg6;
  8014dc:	e0bffc17 	ldw	r2,-16(fp)
  8014e0:	10802283 	ldbu	r2,138(r2)
  8014e4:	10803fcc 	andi	r2,r2,255
  8014e8:	1080201c 	xori	r2,r2,128
  8014ec:	10bfe004 	addi	r2,r2,-128
  8014f0:	10000626 	beq	r2,zero,80150c <logic+0xd70>
  8014f4:	e0bffc17 	ldw	r2,-16(fp)
  8014f8:	10804583 	ldbu	r2,278(r2)
  8014fc:	10803fcc 	andi	r2,r2,255
  801500:	1080201c 	xori	r2,r2,128
  801504:	10bfe004 	addi	r2,r2,-128
  801508:	10000c26 	beq	r2,zero,80153c <logic+0xda0>
  80150c:	e0bffc17 	ldw	r2,-16(fp)
  801510:	10802403 	ldbu	r2,144(r2)
  801514:	10803fcc 	andi	r2,r2,255
  801518:	1080201c 	xori	r2,r2,128
  80151c:	10bfe004 	addi	r2,r2,-128
  801520:	10000826 	beq	r2,zero,801544 <logic+0xda8>
  801524:	e0bffc17 	ldw	r2,-16(fp)
  801528:	108045c3 	ldbu	r2,279(r2)
  80152c:	10803fcc 	andi	r2,r2,255
  801530:	1080201c 	xori	r2,r2,128
  801534:	10bfe004 	addi	r2,r2,-128
  801538:	1000021e 	bne	r2,zero,801544 <logic+0xda8>
  80153c:	00800044 	movi	r2,1
  801540:	00000106 	br	801548 <logic+0xdac>
  801544:	0005883a 	mov	r2,zero
  801548:	1007883a 	mov	r3,r2
  80154c:	e0bffc17 	ldw	r2,-16(fp)
  801550:	10c05c05 	stb	r3,368(r2)
  d->_cg8 = d->_region0_null_URI < d->URI_time;
  801554:	e0bffc17 	ldw	r2,-16(fp)
  801558:	14000717 	ldw	r16,28(r2)
  80155c:	14400817 	ldw	r17,32(r2)
  801560:	e0bffc17 	ldw	r2,-16(fp)
  801564:	10800217 	ldw	r2,8(r2)
  801568:	1009883a 	mov	r4,r2
  80156c:	0808ba00 	call	808ba0 <__floatsidf>
  801570:	1009883a 	mov	r4,r2
  801574:	180b883a 	mov	r5,r3
  801578:	04800044 	movi	r18,1
  80157c:	200d883a 	mov	r6,r4
  801580:	280f883a 	mov	r7,r5
  801584:	8009883a 	mov	r4,r16
  801588:	880b883a 	mov	r5,r17
  80158c:	08081b00 	call	8081b0 <__ledf2>
  801590:	10000116 	blt	r2,zero,801598 <logic+0xdfc>
  801594:	0025883a 	mov	r18,zero
  801598:	9007883a 	mov	r3,r18
  80159c:	e0bffc17 	ldw	r2,-16(fp)
  8015a0:	10c04605 	stb	r3,280(r2)
  d->_g7 = d->_g23 && d->_cg8;
  8015a4:	e0bffc17 	ldw	r2,-16(fp)
  8015a8:	10802283 	ldbu	r2,138(r2)
  8015ac:	10803fcc 	andi	r2,r2,255
  8015b0:	1080201c 	xori	r2,r2,128
  8015b4:	10bfe004 	addi	r2,r2,-128
  8015b8:	10000826 	beq	r2,zero,8015dc <logic+0xe40>
  8015bc:	e0bffc17 	ldw	r2,-16(fp)
  8015c0:	10804603 	ldbu	r2,280(r2)
  8015c4:	10803fcc 	andi	r2,r2,255
  8015c8:	1080201c 	xori	r2,r2,128
  8015cc:	10bfe004 	addi	r2,r2,-128
  8015d0:	10000226 	beq	r2,zero,8015dc <logic+0xe40>
  8015d4:	00800044 	movi	r2,1
  8015d8:	00000106 	br	8015e0 <logic+0xe44>
  8015dc:	0005883a 	mov	r2,zero
  8015e0:	1007883a 	mov	r3,r2
  8015e4:	e0bffc17 	ldw	r2,-16(fp)
  8015e8:	10c01fc5 	stb	r3,127(r2)
  if (d->_g7) {
  8015ec:	e0bffc17 	ldw	r2,-16(fp)
  8015f0:	10801fc3 	ldbu	r2,127(r2)
  8015f4:	10803fcc 	andi	r2,r2,255
  8015f8:	1080201c 	xori	r2,r2,128
  8015fc:	10bfe004 	addi	r2,r2,-128
  801600:	10003426 	beq	r2,zero,8016d4 <logic+0xf38>
    d->sleepT = (d->sleepT < (d->URI_time - d->_region0_null_URI)) ? d->sleepT : (d->URI_time - d->_region0_null_URI);
  801604:	e0bffc17 	ldw	r2,-16(fp)
  801608:	14001517 	ldw	r16,84(r2)
  80160c:	14401617 	ldw	r17,88(r2)
  801610:	e0bffc17 	ldw	r2,-16(fp)
  801614:	10800217 	ldw	r2,8(r2)
  801618:	1009883a 	mov	r4,r2
  80161c:	0808ba00 	call	808ba0 <__floatsidf>
  801620:	1011883a 	mov	r8,r2
  801624:	1813883a 	mov	r9,r3
  801628:	e13ffc17 	ldw	r4,-16(fp)
  80162c:	20800717 	ldw	r2,28(r4)
  801630:	20c00817 	ldw	r3,32(r4)
  801634:	100d883a 	mov	r6,r2
  801638:	180f883a 	mov	r7,r3
  80163c:	4009883a 	mov	r4,r8
  801640:	480b883a 	mov	r5,r9
  801644:	08082a40 	call	8082a4 <__subdf3>
  801648:	1009883a 	mov	r4,r2
  80164c:	180b883a 	mov	r5,r3
  801650:	2005883a 	mov	r2,r4
  801654:	2807883a 	mov	r3,r5
  801658:	100d883a 	mov	r6,r2
  80165c:	180f883a 	mov	r7,r3
  801660:	8009883a 	mov	r4,r16
  801664:	880b883a 	mov	r5,r17
  801668:	08081b00 	call	8081b0 <__ledf2>
  80166c:	1000040e 	bge	r2,zero,801680 <logic+0xee4>
  801670:	e13ffc17 	ldw	r4,-16(fp)
  801674:	20801517 	ldw	r2,84(r4)
  801678:	20c01617 	ldw	r3,88(r4)
  80167c:	00001206 	br	8016c8 <logic+0xf2c>
  801680:	e0bffc17 	ldw	r2,-16(fp)
  801684:	10800217 	ldw	r2,8(r2)
  801688:	1009883a 	mov	r4,r2
  80168c:	0808ba00 	call	808ba0 <__floatsidf>
  801690:	1011883a 	mov	r8,r2
  801694:	1813883a 	mov	r9,r3
  801698:	e13ffc17 	ldw	r4,-16(fp)
  80169c:	20800717 	ldw	r2,28(r4)
  8016a0:	20c00817 	ldw	r3,32(r4)
  8016a4:	100d883a 	mov	r6,r2
  8016a8:	180f883a 	mov	r7,r3
  8016ac:	4009883a 	mov	r4,r8
  8016b0:	480b883a 	mov	r5,r9
  8016b4:	08082a40 	call	8082a4 <__subdf3>
  8016b8:	1009883a 	mov	r4,r2
  8016bc:	180b883a 	mov	r5,r3
  8016c0:	2005883a 	mov	r2,r4
  8016c4:	2807883a 	mov	r3,r5
  8016c8:	e13ffc17 	ldw	r4,-16(fp)
  8016cc:	20801515 	stw	r2,84(r4)
  8016d0:	20c01615 	stw	r3,88(r4)
  }
  d->_cg9 = d->_heart2_local__Atrig || d->_heart2_local__Atrig1;
  8016d4:	e0bffc17 	ldw	r2,-16(fp)
  8016d8:	10801a43 	ldbu	r2,105(r2)
  8016dc:	10803fcc 	andi	r2,r2,255
  8016e0:	1080201c 	xori	r2,r2,128
  8016e4:	10bfe004 	addi	r2,r2,-128
  8016e8:	1000061e 	bne	r2,zero,801704 <logic+0xf68>
  8016ec:	e0bffc17 	ldw	r2,-16(fp)
  8016f0:	10801a83 	ldbu	r2,106(r2)
  8016f4:	10803fcc 	andi	r2,r2,255
  8016f8:	1080201c 	xori	r2,r2,128
  8016fc:	10bfe004 	addi	r2,r2,-128
  801700:	10000226 	beq	r2,zero,80170c <logic+0xf70>
  801704:	00800044 	movi	r2,1
  801708:	00000106 	br	801710 <logic+0xf74>
  80170c:	0005883a 	mov	r2,zero
  801710:	1007883a 	mov	r3,r2
  801714:	e0bffc17 	ldw	r2,-16(fp)
  801718:	10c04645 	stb	r3,281(r2)
  d->_g14 = d->_g7 && !d->_cg9 || d->_g17 && !d->_cg13;
  80171c:	e0bffc17 	ldw	r2,-16(fp)
  801720:	10801fc3 	ldbu	r2,127(r2)
  801724:	10803fcc 	andi	r2,r2,255
  801728:	1080201c 	xori	r2,r2,128
  80172c:	10bfe004 	addi	r2,r2,-128
  801730:	10000626 	beq	r2,zero,80174c <logic+0xfb0>
  801734:	e0bffc17 	ldw	r2,-16(fp)
  801738:	10804643 	ldbu	r2,281(r2)
  80173c:	10803fcc 	andi	r2,r2,255
  801740:	1080201c 	xori	r2,r2,128
  801744:	10bfe004 	addi	r2,r2,-128
  801748:	10000c26 	beq	r2,zero,80177c <logic+0xfe0>
  80174c:	e0bffc17 	ldw	r2,-16(fp)
  801750:	10802183 	ldbu	r2,134(r2)
  801754:	10803fcc 	andi	r2,r2,255
  801758:	1080201c 	xori	r2,r2,128
  80175c:	10bfe004 	addi	r2,r2,-128
  801760:	10000826 	beq	r2,zero,801784 <logic+0xfe8>
  801764:	e0bffc17 	ldw	r2,-16(fp)
  801768:	10804683 	ldbu	r2,282(r2)
  80176c:	10803fcc 	andi	r2,r2,255
  801770:	1080201c 	xori	r2,r2,128
  801774:	10bfe004 	addi	r2,r2,-128
  801778:	1000021e 	bne	r2,zero,801784 <logic+0xfe8>
  80177c:	00800044 	movi	r2,1
  801780:	00000106 	br	801788 <logic+0xfec>
  801784:	0005883a 	mov	r2,zero
  801788:	1007883a 	mov	r3,r2
  80178c:	e0bffc17 	ldw	r2,-16(fp)
  801790:	10c02105 	stb	r3,132(r2)
  d->_g14_e2 = d->_g23 && !d->_cg8;
  801794:	e0bffc17 	ldw	r2,-16(fp)
  801798:	10802283 	ldbu	r2,138(r2)
  80179c:	10803fcc 	andi	r2,r2,255
  8017a0:	1080201c 	xori	r2,r2,128
  8017a4:	10bfe004 	addi	r2,r2,-128
  8017a8:	10000826 	beq	r2,zero,8017cc <logic+0x1030>
  8017ac:	e0bffc17 	ldw	r2,-16(fp)
  8017b0:	10804603 	ldbu	r2,280(r2)
  8017b4:	10803fcc 	andi	r2,r2,255
  8017b8:	1080201c 	xori	r2,r2,128
  8017bc:	10bfe004 	addi	r2,r2,-128
  8017c0:	1000021e 	bne	r2,zero,8017cc <logic+0x1030>
  8017c4:	00800044 	movi	r2,1
  8017c8:	00000106 	br	8017d0 <logic+0x1034>
  8017cc:	0005883a 	mov	r2,zero
  8017d0:	1007883a 	mov	r3,r2
  8017d4:	e0bffc17 	ldw	r2,-16(fp)
  8017d8:	10c05c45 	stb	r3,369(r2)
  d->_cg18 = d->_heart2_local__Atrig || d->_heart2_local__Atrig1;
  8017dc:	e0bffc17 	ldw	r2,-16(fp)
  8017e0:	10801a43 	ldbu	r2,105(r2)
  8017e4:	10803fcc 	andi	r2,r2,255
  8017e8:	1080201c 	xori	r2,r2,128
  8017ec:	10bfe004 	addi	r2,r2,-128
  8017f0:	1000061e 	bne	r2,zero,80180c <logic+0x1070>
  8017f4:	e0bffc17 	ldw	r2,-16(fp)
  8017f8:	10801a83 	ldbu	r2,106(r2)
  8017fc:	10803fcc 	andi	r2,r2,255
  801800:	1080201c 	xori	r2,r2,128
  801804:	10bfe004 	addi	r2,r2,-128
  801808:	10000226 	beq	r2,zero,801814 <logic+0x1078>
  80180c:	00800044 	movi	r2,1
  801810:	00000106 	br	801818 <logic+0x107c>
  801814:	0005883a 	mov	r2,zero
  801818:	1007883a 	mov	r3,r2
  80181c:	e0bffc17 	ldw	r2,-16(fp)
  801820:	10c04745 	stb	r3,285(r2)
  d->_g37 = d->_g12 && !d->_cg15 || d->_g14_e2 && !d->_cg18;
  801824:	e0bffc17 	ldw	r2,-16(fp)
  801828:	10802083 	ldbu	r2,130(r2)
  80182c:	10803fcc 	andi	r2,r2,255
  801830:	1080201c 	xori	r2,r2,128
  801834:	10bfe004 	addi	r2,r2,-128
  801838:	10000626 	beq	r2,zero,801854 <logic+0x10b8>
  80183c:	e0bffc17 	ldw	r2,-16(fp)
  801840:	10804703 	ldbu	r2,284(r2)
  801844:	10803fcc 	andi	r2,r2,255
  801848:	1080201c 	xori	r2,r2,128
  80184c:	10bfe004 	addi	r2,r2,-128
  801850:	10000c26 	beq	r2,zero,801884 <logic+0x10e8>
  801854:	e0bffc17 	ldw	r2,-16(fp)
  801858:	10805c43 	ldbu	r2,369(r2)
  80185c:	10803fcc 	andi	r2,r2,255
  801860:	1080201c 	xori	r2,r2,128
  801864:	10bfe004 	addi	r2,r2,-128
  801868:	10000826 	beq	r2,zero,80188c <logic+0x10f0>
  80186c:	e0bffc17 	ldw	r2,-16(fp)
  801870:	10804743 	ldbu	r2,285(r2)
  801874:	10803fcc 	andi	r2,r2,255
  801878:	1080201c 	xori	r2,r2,128
  80187c:	10bfe004 	addi	r2,r2,-128
  801880:	1000021e 	bne	r2,zero,80188c <logic+0x10f0>
  801884:	00800044 	movi	r2,1
  801888:	00000106 	br	801890 <logic+0x10f4>
  80188c:	0005883a 	mov	r2,zero
  801890:	1007883a 	mov	r3,r2
  801894:	e0bffc17 	ldw	r2,-16(fp)
  801898:	10c02505 	stb	r3,148(r2)
  d->_g36 = d->_g23 || d->_g24 && !d->_cg24;
  80189c:	e0bffc17 	ldw	r2,-16(fp)
  8018a0:	10802283 	ldbu	r2,138(r2)
  8018a4:	10803fcc 	andi	r2,r2,255
  8018a8:	1080201c 	xori	r2,r2,128
  8018ac:	10bfe004 	addi	r2,r2,-128
  8018b0:	10000c1e 	bne	r2,zero,8018e4 <logic+0x1148>
  8018b4:	e0bffc17 	ldw	r2,-16(fp)
  8018b8:	108022c3 	ldbu	r2,139(r2)
  8018bc:	10803fcc 	andi	r2,r2,255
  8018c0:	1080201c 	xori	r2,r2,128
  8018c4:	10bfe004 	addi	r2,r2,-128
  8018c8:	10000826 	beq	r2,zero,8018ec <logic+0x1150>
  8018cc:	e0bffc17 	ldw	r2,-16(fp)
  8018d0:	10804783 	ldbu	r2,286(r2)
  8018d4:	10803fcc 	andi	r2,r2,255
  8018d8:	1080201c 	xori	r2,r2,128
  8018dc:	10bfe004 	addi	r2,r2,-128
  8018e0:	1000021e 	bne	r2,zero,8018ec <logic+0x1150>
  8018e4:	00800044 	movi	r2,1
  8018e8:	00000106 	br	8018f0 <logic+0x1154>
  8018ec:	0005883a 	mov	r2,zero
  8018f0:	1007883a 	mov	r3,r2
  8018f4:	e0bffc17 	ldw	r2,-16(fp)
  8018f8:	10c024c5 	stb	r3,147(r2)
  d->_g6 = d->_g25 && d->_cg26;
  8018fc:	e0bffc17 	ldw	r2,-16(fp)
  801900:	10802303 	ldbu	r2,140(r2)
  801904:	10803fcc 	andi	r2,r2,255
  801908:	1080201c 	xori	r2,r2,128
  80190c:	10bfe004 	addi	r2,r2,-128
  801910:	10000826 	beq	r2,zero,801934 <logic+0x1198>
  801914:	e0bffc17 	ldw	r2,-16(fp)
  801918:	10804803 	ldbu	r2,288(r2)
  80191c:	10803fcc 	andi	r2,r2,255
  801920:	1080201c 	xori	r2,r2,128
  801924:	10bfe004 	addi	r2,r2,-128
  801928:	10000226 	beq	r2,zero,801934 <logic+0x1198>
  80192c:	00800044 	movi	r2,1
  801930:	00000106 	br	801938 <logic+0x119c>
  801934:	0005883a 	mov	r2,zero
  801938:	1007883a 	mov	r3,r2
  80193c:	e0bffc17 	ldw	r2,-16(fp)
  801940:	10c01f85 	stb	r3,126(r2)
  if (d->_g6) {
  801944:	e0bffc17 	ldw	r2,-16(fp)
  801948:	10801f83 	ldbu	r2,126(r2)
  80194c:	10803fcc 	andi	r2,r2,255
  801950:	1080201c 	xori	r2,r2,128
  801954:	10bfe004 	addi	r2,r2,-128
  801958:	10000526 	beq	r2,zero,801970 <logic+0x11d4>
    d->ready = 1;
  80195c:	e0bffc17 	ldw	r2,-16(fp)
  801960:	00c00044 	movi	r3,1
  801964:	10c00605 	stb	r3,24(r2)
    d->_heart2_local__Atrig2 = 0;
  801968:	e0bffc17 	ldw	r2,-16(fp)
  80196c:	10001ac5 	stb	zero,107(r2)
  }
  d->_cg28 = d->_heart2_local__Atrig2;
  801970:	e0bffc17 	ldw	r2,-16(fp)
  801974:	10c01ac3 	ldbu	r3,107(r2)
  801978:	e0bffc17 	ldw	r2,-16(fp)
  80197c:	10c04845 	stb	r3,289(r2)
  d->_g9 = d->_g6 && !d->_cg28 || d->_g30 && !d->_cg30;
  801980:	e0bffc17 	ldw	r2,-16(fp)
  801984:	10801f83 	ldbu	r2,126(r2)
  801988:	10803fcc 	andi	r2,r2,255
  80198c:	1080201c 	xori	r2,r2,128
  801990:	10bfe004 	addi	r2,r2,-128
  801994:	10000626 	beq	r2,zero,8019b0 <logic+0x1214>
  801998:	e0bffc17 	ldw	r2,-16(fp)
  80199c:	10804843 	ldbu	r2,289(r2)
  8019a0:	10803fcc 	andi	r2,r2,255
  8019a4:	1080201c 	xori	r2,r2,128
  8019a8:	10bfe004 	addi	r2,r2,-128
  8019ac:	10000c26 	beq	r2,zero,8019e0 <logic+0x1244>
  8019b0:	e0bffc17 	ldw	r2,-16(fp)
  8019b4:	108023c3 	ldbu	r2,143(r2)
  8019b8:	10803fcc 	andi	r2,r2,255
  8019bc:	1080201c 	xori	r2,r2,128
  8019c0:	10bfe004 	addi	r2,r2,-128
  8019c4:	10000826 	beq	r2,zero,8019e8 <logic+0x124c>
  8019c8:	e0bffc17 	ldw	r2,-16(fp)
  8019cc:	10804883 	ldbu	r2,290(r2)
  8019d0:	10803fcc 	andi	r2,r2,255
  8019d4:	1080201c 	xori	r2,r2,128
  8019d8:	10bfe004 	addi	r2,r2,-128
  8019dc:	1000021e 	bne	r2,zero,8019e8 <logic+0x124c>
  8019e0:	00800044 	movi	r2,1
  8019e4:	00000106 	br	8019ec <logic+0x1250>
  8019e8:	0005883a 	mov	r2,zero
  8019ec:	1007883a 	mov	r3,r2
  8019f0:	e0bffc17 	ldw	r2,-16(fp)
  8019f4:	10c02005 	stb	r3,128(r2)
  d->_g13 = d->_g6 || d->_g34 && !d->_cg34;
  8019f8:	e0bffc17 	ldw	r2,-16(fp)
  8019fc:	10801f83 	ldbu	r2,126(r2)
  801a00:	10803fcc 	andi	r2,r2,255
  801a04:	1080201c 	xori	r2,r2,128
  801a08:	10bfe004 	addi	r2,r2,-128
  801a0c:	10000c1e 	bne	r2,zero,801a40 <logic+0x12a4>
  801a10:	e0bffc17 	ldw	r2,-16(fp)
  801a14:	10802443 	ldbu	r2,145(r2)
  801a18:	10803fcc 	andi	r2,r2,255
  801a1c:	1080201c 	xori	r2,r2,128
  801a20:	10bfe004 	addi	r2,r2,-128
  801a24:	10000826 	beq	r2,zero,801a48 <logic+0x12ac>
  801a28:	e0bffc17 	ldw	r2,-16(fp)
  801a2c:	108048c3 	ldbu	r2,291(r2)
  801a30:	10803fcc 	andi	r2,r2,255
  801a34:	1080201c 	xori	r2,r2,128
  801a38:	10bfe004 	addi	r2,r2,-128
  801a3c:	1000021e 	bne	r2,zero,801a48 <logic+0x12ac>
  801a40:	00800044 	movi	r2,1
  801a44:	00000106 	br	801a4c <logic+0x12b0>
  801a48:	0005883a 	mov	r2,zero
  801a4c:	1007883a 	mov	r3,r2
  801a50:	e0bffc17 	ldw	r2,-16(fp)
  801a54:	10c020c5 	stb	r3,131(r2)
  d->_g15 = d->_pg46;
  801a58:	e0bffc17 	ldw	r2,-16(fp)
  801a5c:	10c06583 	ldbu	r3,406(r2)
  801a60:	e0bffc17 	ldw	r2,-16(fp)
  801a64:	10c02145 	stb	r3,133(r2)
  if (d->_g15) {
  801a68:	e0bffc17 	ldw	r2,-16(fp)
  801a6c:	10802143 	ldbu	r2,133(r2)
  801a70:	10803fcc 	andi	r2,r2,255
  801a74:	1080201c 	xori	r2,r2,128
  801a78:	10bfe004 	addi	r2,r2,-128
  801a7c:	10001226 	beq	r2,zero,801ac8 <logic+0x132c>
    d->_region1_null_LRI += d->deltaT;
  801a80:	e13ffc17 	ldw	r4,-16(fp)
  801a84:	20800917 	ldw	r2,36(r4)
  801a88:	20c00a17 	ldw	r3,40(r4)
  801a8c:	e1bffc17 	ldw	r6,-16(fp)
  801a90:	31001317 	ldw	r4,76(r6)
  801a94:	31401417 	ldw	r5,80(r6)
  801a98:	200d883a 	mov	r6,r4
  801a9c:	280f883a 	mov	r7,r5
  801aa0:	1009883a 	mov	r4,r2
  801aa4:	180b883a 	mov	r5,r3
  801aa8:	08078280 	call	807828 <__adddf3>
  801aac:	1009883a 	mov	r4,r2
  801ab0:	180b883a 	mov	r5,r3
  801ab4:	2005883a 	mov	r2,r4
  801ab8:	2807883a 	mov	r3,r5
  801abc:	e13ffc17 	ldw	r4,-16(fp)
  801ac0:	20800915 	stw	r2,36(r4)
  801ac4:	20c00a15 	stw	r3,40(r4)
  }
  d->_g18 = !d->_g15;
  801ac8:	e0bffc17 	ldw	r2,-16(fp)
  801acc:	10802143 	ldbu	r2,133(r2)
  801ad0:	10803fcc 	andi	r2,r2,255
  801ad4:	1080201c 	xori	r2,r2,128
  801ad8:	10bfe004 	addi	r2,r2,-128
  801adc:	1005003a 	cmpeq	r2,r2,zero
  801ae0:	1007883a 	mov	r3,r2
  801ae4:	e0bffc17 	ldw	r2,-16(fp)
  801ae8:	10c021c5 	stb	r3,135(r2)
  d->_g24 = d->_pg50;
  801aec:	e0bffc17 	ldw	r2,-16(fp)
  801af0:	10c065c3 	ldbu	r3,407(r2)
  801af4:	e0bffc17 	ldw	r2,-16(fp)
  801af8:	10c022c5 	stb	r3,139(r2)
  d->_cg71 = d->v;
  801afc:	e0bffc17 	ldw	r2,-16(fp)
  801b00:	10c018c3 	ldbu	r3,99(r2)
  801b04:	e0bffc17 	ldw	r2,-16(fp)
  801b08:	10c04c45 	stb	r3,305(r2)
  d->_g3 = d->_g24 && d->_cg71;
  801b0c:	e0bffc17 	ldw	r2,-16(fp)
  801b10:	108022c3 	ldbu	r2,139(r2)
  801b14:	10803fcc 	andi	r2,r2,255
  801b18:	1080201c 	xori	r2,r2,128
  801b1c:	10bfe004 	addi	r2,r2,-128
  801b20:	10000826 	beq	r2,zero,801b44 <logic+0x13a8>
  801b24:	e0bffc17 	ldw	r2,-16(fp)
  801b28:	10804c43 	ldbu	r2,305(r2)
  801b2c:	10803fcc 	andi	r2,r2,255
  801b30:	1080201c 	xori	r2,r2,128
  801b34:	10bfe004 	addi	r2,r2,-128
  801b38:	10000226 	beq	r2,zero,801b44 <logic+0x13a8>
  801b3c:	00800044 	movi	r2,1
  801b40:	00000106 	br	801b48 <logic+0x13ac>
  801b44:	0005883a 	mov	r2,zero
  801b48:	1007883a 	mov	r3,r2
  801b4c:	e0bffc17 	ldw	r2,-16(fp)
  801b50:	10c01f45 	stb	r3,125(r2)
  if (d->_g3) {
  801b54:	e0bffc17 	ldw	r2,-16(fp)
  801b58:	10801f43 	ldbu	r2,125(r2)
  801b5c:	10803fcc 	andi	r2,r2,255
  801b60:	1080201c 	xori	r2,r2,128
  801b64:	10bfe004 	addi	r2,r2,-128
  801b68:	10000326 	beq	r2,zero,801b78 <logic+0x13dc>
    d->_heart2_local__Atrig5 = 1;
  801b6c:	e0bffc17 	ldw	r2,-16(fp)
  801b70:	00c00044 	movi	r3,1
  801b74:	10c01b85 	stb	r3,110(r2)
  }
  d->_cg67 = d->_heart2_local__Atrig5;
  801b78:	e0bffc17 	ldw	r2,-16(fp)
  801b7c:	10c01b83 	ldbu	r3,110(r2)
  801b80:	e0bffc17 	ldw	r2,-16(fp)
  801b84:	10c04c05 	stb	r3,304(r2)
  d->_g26 = d->_g15 && d->_cg67;
  801b88:	e0bffc17 	ldw	r2,-16(fp)
  801b8c:	10802143 	ldbu	r2,133(r2)
  801b90:	10803fcc 	andi	r2,r2,255
  801b94:	1080201c 	xori	r2,r2,128
  801b98:	10bfe004 	addi	r2,r2,-128
  801b9c:	10000826 	beq	r2,zero,801bc0 <logic+0x1424>
  801ba0:	e0bffc17 	ldw	r2,-16(fp)
  801ba4:	10804c03 	ldbu	r2,304(r2)
  801ba8:	10803fcc 	andi	r2,r2,255
  801bac:	1080201c 	xori	r2,r2,128
  801bb0:	10bfe004 	addi	r2,r2,-128
  801bb4:	10000226 	beq	r2,zero,801bc0 <logic+0x1424>
  801bb8:	00800044 	movi	r2,1
  801bbc:	00000106 	br	801bc4 <logic+0x1428>
  801bc0:	0005883a 	mov	r2,zero
  801bc4:	1007883a 	mov	r3,r2
  801bc8:	e0bffc17 	ldw	r2,-16(fp)
  801bcc:	10c02345 	stb	r3,141(r2)
  d->_g30 = !d->_g24;
  801bd0:	e0bffc17 	ldw	r2,-16(fp)
  801bd4:	108022c3 	ldbu	r2,139(r2)
  801bd8:	10803fcc 	andi	r2,r2,255
  801bdc:	1080201c 	xori	r2,r2,128
  801be0:	10bfe004 	addi	r2,r2,-128
  801be4:	1005003a 	cmpeq	r2,r2,zero
  801be8:	1007883a 	mov	r3,r2
  801bec:	e0bffc17 	ldw	r2,-16(fp)
  801bf0:	10c023c5 	stb	r3,143(r2)
  d->_g27 = (d->_g18 || d->_g26) && (d->_g30 || d->_g3) && (d->_g26 || d->_g3);
  801bf4:	e0bffc17 	ldw	r2,-16(fp)
  801bf8:	108021c3 	ldbu	r2,135(r2)
  801bfc:	10803fcc 	andi	r2,r2,255
  801c00:	1080201c 	xori	r2,r2,128
  801c04:	10bfe004 	addi	r2,r2,-128
  801c08:	1000061e 	bne	r2,zero,801c24 <logic+0x1488>
  801c0c:	e0bffc17 	ldw	r2,-16(fp)
  801c10:	10802343 	ldbu	r2,141(r2)
  801c14:	10803fcc 	andi	r2,r2,255
  801c18:	1080201c 	xori	r2,r2,128
  801c1c:	10bfe004 	addi	r2,r2,-128
  801c20:	10001a26 	beq	r2,zero,801c8c <logic+0x14f0>
  801c24:	e0bffc17 	ldw	r2,-16(fp)
  801c28:	108023c3 	ldbu	r2,143(r2)
  801c2c:	10803fcc 	andi	r2,r2,255
  801c30:	1080201c 	xori	r2,r2,128
  801c34:	10bfe004 	addi	r2,r2,-128
  801c38:	1000061e 	bne	r2,zero,801c54 <logic+0x14b8>
  801c3c:	e0bffc17 	ldw	r2,-16(fp)
  801c40:	10801f43 	ldbu	r2,125(r2)
  801c44:	10803fcc 	andi	r2,r2,255
  801c48:	1080201c 	xori	r2,r2,128
  801c4c:	10bfe004 	addi	r2,r2,-128
  801c50:	10000e26 	beq	r2,zero,801c8c <logic+0x14f0>
  801c54:	e0bffc17 	ldw	r2,-16(fp)
  801c58:	10802343 	ldbu	r2,141(r2)
  801c5c:	10803fcc 	andi	r2,r2,255
  801c60:	1080201c 	xori	r2,r2,128
  801c64:	10bfe004 	addi	r2,r2,-128
  801c68:	1000061e 	bne	r2,zero,801c84 <logic+0x14e8>
  801c6c:	e0bffc17 	ldw	r2,-16(fp)
  801c70:	10801f43 	ldbu	r2,125(r2)
  801c74:	10803fcc 	andi	r2,r2,255
  801c78:	1080201c 	xori	r2,r2,128
  801c7c:	10bfe004 	addi	r2,r2,-128
  801c80:	10000226 	beq	r2,zero,801c8c <logic+0x14f0>
  801c84:	00800044 	movi	r2,1
  801c88:	00000106 	br	801c90 <logic+0x14f4>
  801c8c:	0005883a 	mov	r2,zero
  801c90:	1007883a 	mov	r3,r2
  801c94:	e0bffc17 	ldw	r2,-16(fp)
  801c98:	10c02385 	stb	r3,142(r2)
  if (d->_g27) {
  801c9c:	e0bffc17 	ldw	r2,-16(fp)
  801ca0:	10802383 	ldbu	r2,142(r2)
  801ca4:	10803fcc 	andi	r2,r2,255
  801ca8:	1080201c 	xori	r2,r2,128
  801cac:	10bfe004 	addi	r2,r2,-128
  801cb0:	10000326 	beq	r2,zero,801cc0 <logic+0x1524>
    d->_region1_null_LRI = 0;
  801cb4:	e0bffc17 	ldw	r2,-16(fp)
  801cb8:	10000915 	stw	zero,36(r2)
  801cbc:	10000a15 	stw	zero,40(r2)
  }
  d->_g34 = d->_pg44_e1;
  801cc0:	e0bffc17 	ldw	r2,-16(fp)
  801cc4:	10c06603 	ldbu	r3,408(r2)
  801cc8:	e0bffc17 	ldw	r2,-16(fp)
  801ccc:	10c02445 	stb	r3,145(r2)
  if (d->_g34) {
  801cd0:	e0bffc17 	ldw	r2,-16(fp)
  801cd4:	10802443 	ldbu	r2,145(r2)
  801cd8:	10803fcc 	andi	r2,r2,255
  801cdc:	1080201c 	xori	r2,r2,128
  801ce0:	10bfe004 	addi	r2,r2,-128
  801ce4:	10001226 	beq	r2,zero,801d30 <logic+0x1594>
    d->_region1_null_LRI += d->deltaT;
  801ce8:	e13ffc17 	ldw	r4,-16(fp)
  801cec:	20800917 	ldw	r2,36(r4)
  801cf0:	20c00a17 	ldw	r3,40(r4)
  801cf4:	e1bffc17 	ldw	r6,-16(fp)
  801cf8:	31001317 	ldw	r4,76(r6)
  801cfc:	31401417 	ldw	r5,80(r6)
  801d00:	200d883a 	mov	r6,r4
  801d04:	280f883a 	mov	r7,r5
  801d08:	1009883a 	mov	r4,r2
  801d0c:	180b883a 	mov	r5,r3
  801d10:	08078280 	call	807828 <__adddf3>
  801d14:	1009883a 	mov	r4,r2
  801d18:	180b883a 	mov	r5,r3
  801d1c:	2005883a 	mov	r2,r4
  801d20:	2807883a 	mov	r3,r5
  801d24:	e13ffc17 	ldw	r4,-16(fp)
  801d28:	20800915 	stw	r2,36(r4)
  801d2c:	20c00a15 	stw	r3,40(r4)
  }
  d->_g72_e2 = !d->_g34;
  801d30:	e0bffc17 	ldw	r2,-16(fp)
  801d34:	10802443 	ldbu	r2,145(r2)
  801d38:	10803fcc 	andi	r2,r2,255
  801d3c:	1080201c 	xori	r2,r2,128
  801d40:	10bfe004 	addi	r2,r2,-128
  801d44:	1005003a 	cmpeq	r2,r2,zero
  801d48:	1007883a 	mov	r3,r2
  801d4c:	e0bffc17 	ldw	r2,-16(fp)
  801d50:	10c05e45 	stb	r3,377(r2)
  d->_g68_e1 = d->_pg74;
  801d54:	e0bffc17 	ldw	r2,-16(fp)
  801d58:	10c06643 	ldbu	r3,409(r2)
  801d5c:	e0bffc17 	ldw	r2,-16(fp)
  801d60:	10c05e05 	stb	r3,376(r2)
  d->_cg58 = d->_region1_null_LRI >= d->LRI_time;
  801d64:	e0bffc17 	ldw	r2,-16(fp)
  801d68:	14000917 	ldw	r16,36(r2)
  801d6c:	14400a17 	ldw	r17,40(r2)
  801d70:	e0bffc17 	ldw	r2,-16(fp)
  801d74:	10800317 	ldw	r2,12(r2)
  801d78:	1009883a 	mov	r4,r2
  801d7c:	0808ba00 	call	808ba0 <__floatsidf>
  801d80:	1009883a 	mov	r4,r2
  801d84:	180b883a 	mov	r5,r3
  801d88:	04800044 	movi	r18,1
  801d8c:	200d883a 	mov	r6,r4
  801d90:	280f883a 	mov	r7,r5
  801d94:	8009883a 	mov	r4,r16
  801d98:	880b883a 	mov	r5,r17
  801d9c:	08080d40 	call	8080d4 <__gedf2>
  801da0:	1000010e 	bge	r2,zero,801da8 <logic+0x160c>
  801da4:	0025883a 	mov	r18,zero
  801da8:	9007883a 	mov	r3,r18
  801dac:	e0bffc17 	ldw	r2,-16(fp)
  801db0:	10c04b45 	stb	r3,301(r2)
  d->_g68 = d->_g68_e1 && d->_cg58;
  801db4:	e0bffc17 	ldw	r2,-16(fp)
  801db8:	10805e03 	ldbu	r2,376(r2)
  801dbc:	10803fcc 	andi	r2,r2,255
  801dc0:	1080201c 	xori	r2,r2,128
  801dc4:	10bfe004 	addi	r2,r2,-128
  801dc8:	10000826 	beq	r2,zero,801dec <logic+0x1650>
  801dcc:	e0bffc17 	ldw	r2,-16(fp)
  801dd0:	10804b43 	ldbu	r2,301(r2)
  801dd4:	10803fcc 	andi	r2,r2,255
  801dd8:	1080201c 	xori	r2,r2,128
  801ddc:	10bfe004 	addi	r2,r2,-128
  801de0:	10000226 	beq	r2,zero,801dec <logic+0x1650>
  801de4:	00800044 	movi	r2,1
  801de8:	00000106 	br	801df0 <logic+0x1654>
  801dec:	0005883a 	mov	r2,zero
  801df0:	1007883a 	mov	r3,r2
  801df4:	e0bffc17 	ldw	r2,-16(fp)
  801df8:	10c02a05 	stb	r3,168(r2)
  if (d->_g68) {
  801dfc:	e0bffc17 	ldw	r2,-16(fp)
  801e00:	10802a03 	ldbu	r2,168(r2)
  801e04:	10803fcc 	andi	r2,r2,255
  801e08:	1080201c 	xori	r2,r2,128
  801e0c:	10bfe004 	addi	r2,r2,-128
  801e10:	10000326 	beq	r2,zero,801e20 <logic+0x1684>
    d->_heart2_local__Atrig3 = 1;
  801e14:	e0bffc17 	ldw	r2,-16(fp)
  801e18:	00c00044 	movi	r3,1
  801e1c:	10c01b05 	stb	r3,108(r2)
  }
  d->_g72 = d->_g68_e1 && !d->_cg58;
  801e20:	e0bffc17 	ldw	r2,-16(fp)
  801e24:	10805e03 	ldbu	r2,376(r2)
  801e28:	10803fcc 	andi	r2,r2,255
  801e2c:	1080201c 	xori	r2,r2,128
  801e30:	10bfe004 	addi	r2,r2,-128
  801e34:	10000826 	beq	r2,zero,801e58 <logic+0x16bc>
  801e38:	e0bffc17 	ldw	r2,-16(fp)
  801e3c:	10804b43 	ldbu	r2,301(r2)
  801e40:	10803fcc 	andi	r2,r2,255
  801e44:	1080201c 	xori	r2,r2,128
  801e48:	10bfe004 	addi	r2,r2,-128
  801e4c:	1000021e 	bne	r2,zero,801e58 <logic+0x16bc>
  801e50:	00800044 	movi	r2,1
  801e54:	00000106 	br	801e5c <logic+0x16c0>
  801e58:	0005883a 	mov	r2,zero
  801e5c:	1007883a 	mov	r3,r2
  801e60:	e0bffc17 	ldw	r2,-16(fp)
  801e64:	10c02a85 	stb	r3,170(r2)
  d->_cg61 = d->v;
  801e68:	e0bffc17 	ldw	r2,-16(fp)
  801e6c:	10c018c3 	ldbu	r3,99(r2)
  801e70:	e0bffc17 	ldw	r2,-16(fp)
  801e74:	10c04b05 	stb	r3,300(r2)
  d->_g62 = d->_g72 && d->_cg61;
  801e78:	e0bffc17 	ldw	r2,-16(fp)
  801e7c:	10802a83 	ldbu	r2,170(r2)
  801e80:	10803fcc 	andi	r2,r2,255
  801e84:	1080201c 	xori	r2,r2,128
  801e88:	10bfe004 	addi	r2,r2,-128
  801e8c:	10000826 	beq	r2,zero,801eb0 <logic+0x1714>
  801e90:	e0bffc17 	ldw	r2,-16(fp)
  801e94:	10804b03 	ldbu	r2,300(r2)
  801e98:	10803fcc 	andi	r2,r2,255
  801e9c:	1080201c 	xori	r2,r2,128
  801ea0:	10bfe004 	addi	r2,r2,-128
  801ea4:	10000226 	beq	r2,zero,801eb0 <logic+0x1714>
  801ea8:	00800044 	movi	r2,1
  801eac:	00000106 	br	801eb4 <logic+0x1718>
  801eb0:	0005883a 	mov	r2,zero
  801eb4:	1007883a 	mov	r3,r2
  801eb8:	e0bffc17 	ldw	r2,-16(fp)
  801ebc:	10c02905 	stb	r3,164(r2)
  if (d->_g62) {
  801ec0:	e0bffc17 	ldw	r2,-16(fp)
  801ec4:	10802903 	ldbu	r2,164(r2)
  801ec8:	10803fcc 	andi	r2,r2,255
  801ecc:	1080201c 	xori	r2,r2,128
  801ed0:	10bfe004 	addi	r2,r2,-128
  801ed4:	10000326 	beq	r2,zero,801ee4 <logic+0x1748>
    d->_heart2_local__Atrig4 = 1;
  801ed8:	e0bffc17 	ldw	r2,-16(fp)
  801edc:	00c00044 	movi	r3,1
  801ee0:	10c01b45 	stb	r3,109(r2)
  }
  d->_cg43 = d->_heart2_local__Atrig3 || d->_heart2_local__Atrig4;
  801ee4:	e0bffc17 	ldw	r2,-16(fp)
  801ee8:	10801b03 	ldbu	r2,108(r2)
  801eec:	10803fcc 	andi	r2,r2,255
  801ef0:	1080201c 	xori	r2,r2,128
  801ef4:	10bfe004 	addi	r2,r2,-128
  801ef8:	1000061e 	bne	r2,zero,801f14 <logic+0x1778>
  801efc:	e0bffc17 	ldw	r2,-16(fp)
  801f00:	10801b43 	ldbu	r2,109(r2)
  801f04:	10803fcc 	andi	r2,r2,255
  801f08:	1080201c 	xori	r2,r2,128
  801f0c:	10bfe004 	addi	r2,r2,-128
  801f10:	10000226 	beq	r2,zero,801f1c <logic+0x1780>
  801f14:	00800044 	movi	r2,1
  801f18:	00000106 	br	801f20 <logic+0x1784>
  801f1c:	0005883a 	mov	r2,zero
  801f20:	1007883a 	mov	r3,r2
  801f24:	e0bffc17 	ldw	r2,-16(fp)
  801f28:	10c04945 	stb	r3,293(r2)
  d->_g44 = d->_g34 && d->_cg43;
  801f2c:	e0bffc17 	ldw	r2,-16(fp)
  801f30:	10802443 	ldbu	r2,145(r2)
  801f34:	10803fcc 	andi	r2,r2,255
  801f38:	1080201c 	xori	r2,r2,128
  801f3c:	10bfe004 	addi	r2,r2,-128
  801f40:	10000826 	beq	r2,zero,801f64 <logic+0x17c8>
  801f44:	e0bffc17 	ldw	r2,-16(fp)
  801f48:	10804943 	ldbu	r2,293(r2)
  801f4c:	10803fcc 	andi	r2,r2,255
  801f50:	1080201c 	xori	r2,r2,128
  801f54:	10bfe004 	addi	r2,r2,-128
  801f58:	10000226 	beq	r2,zero,801f64 <logic+0x17c8>
  801f5c:	00800044 	movi	r2,1
  801f60:	00000106 	br	801f68 <logic+0x17cc>
  801f64:	0005883a 	mov	r2,zero
  801f68:	1007883a 	mov	r3,r2
  801f6c:	e0bffc17 	ldw	r2,-16(fp)
  801f70:	10c025c5 	stb	r3,151(r2)
  d->_g54 = d->_pg73;
  801f74:	e0bffc17 	ldw	r2,-16(fp)
  801f78:	10c06683 	ldbu	r3,410(r2)
  801f7c:	e0bffc17 	ldw	r2,-16(fp)
  801f80:	10c02785 	stb	r3,158(r2)
  d->_g48 = d->_pg51_e2;
  801f84:	e0bffc17 	ldw	r2,-16(fp)
  801f88:	10c066c3 	ldbu	r3,411(r2)
  801f8c:	e0bffc17 	ldw	r2,-16(fp)
  801f90:	10c02645 	stb	r3,153(r2)
  d->_g51_e2 = !(d->_g54 || d->_g48);
  801f94:	e0bffc17 	ldw	r2,-16(fp)
  801f98:	10802783 	ldbu	r2,158(r2)
  801f9c:	10803fcc 	andi	r2,r2,255
  801fa0:	1080201c 	xori	r2,r2,128
  801fa4:	10bfe004 	addi	r2,r2,-128
  801fa8:	1000081e 	bne	r2,zero,801fcc <logic+0x1830>
  801fac:	e0bffc17 	ldw	r2,-16(fp)
  801fb0:	10802643 	ldbu	r2,153(r2)
  801fb4:	10803fcc 	andi	r2,r2,255
  801fb8:	1080201c 	xori	r2,r2,128
  801fbc:	10bfe004 	addi	r2,r2,-128
  801fc0:	1000021e 	bne	r2,zero,801fcc <logic+0x1830>
  801fc4:	00800044 	movi	r2,1
  801fc8:	00000106 	br	801fd0 <logic+0x1834>
  801fcc:	0005883a 	mov	r2,zero
  801fd0:	1007883a 	mov	r3,r2
  801fd4:	e0bffc17 	ldw	r2,-16(fp)
  801fd8:	10c05d85 	stb	r3,374(r2)
  d->_g48 = d->_g48 || d->_g54;
  801fdc:	e0bffc17 	ldw	r2,-16(fp)
  801fe0:	10802643 	ldbu	r2,153(r2)
  801fe4:	10803fcc 	andi	r2,r2,255
  801fe8:	1080201c 	xori	r2,r2,128
  801fec:	10bfe004 	addi	r2,r2,-128
  801ff0:	1000061e 	bne	r2,zero,80200c <logic+0x1870>
  801ff4:	e0bffc17 	ldw	r2,-16(fp)
  801ff8:	10802783 	ldbu	r2,158(r2)
  801ffc:	10803fcc 	andi	r2,r2,255
  802000:	1080201c 	xori	r2,r2,128
  802004:	10bfe004 	addi	r2,r2,-128
  802008:	10000226 	beq	r2,zero,802014 <logic+0x1878>
  80200c:	00800044 	movi	r2,1
  802010:	00000106 	br	802018 <logic+0x187c>
  802014:	0005883a 	mov	r2,zero
  802018:	1007883a 	mov	r3,r2
  80201c:	e0bffc17 	ldw	r2,-16(fp)
  802020:	10c02645 	stb	r3,153(r2)
  d->_cg49 = d->_region1_null_LRI < d->LRI_time;
  802024:	e0bffc17 	ldw	r2,-16(fp)
  802028:	14000917 	ldw	r16,36(r2)
  80202c:	14400a17 	ldw	r17,40(r2)
  802030:	e0bffc17 	ldw	r2,-16(fp)
  802034:	10800317 	ldw	r2,12(r2)
  802038:	1009883a 	mov	r4,r2
  80203c:	0808ba00 	call	808ba0 <__floatsidf>
  802040:	1009883a 	mov	r4,r2
  802044:	180b883a 	mov	r5,r3
  802048:	04800044 	movi	r18,1
  80204c:	200d883a 	mov	r6,r4
  802050:	280f883a 	mov	r7,r5
  802054:	8009883a 	mov	r4,r16
  802058:	880b883a 	mov	r5,r17
  80205c:	08081b00 	call	8081b0 <__ledf2>
  802060:	10000116 	blt	r2,zero,802068 <logic+0x18cc>
  802064:	0025883a 	mov	r18,zero
  802068:	9007883a 	mov	r3,r18
  80206c:	e0bffc17 	ldw	r2,-16(fp)
  802070:	10c04a45 	stb	r3,297(r2)
  d->_g54 = d->_g48 && d->_cg49;
  802074:	e0bffc17 	ldw	r2,-16(fp)
  802078:	10802643 	ldbu	r2,153(r2)
  80207c:	10803fcc 	andi	r2,r2,255
  802080:	1080201c 	xori	r2,r2,128
  802084:	10bfe004 	addi	r2,r2,-128
  802088:	10000826 	beq	r2,zero,8020ac <logic+0x1910>
  80208c:	e0bffc17 	ldw	r2,-16(fp)
  802090:	10804a43 	ldbu	r2,297(r2)
  802094:	10803fcc 	andi	r2,r2,255
  802098:	1080201c 	xori	r2,r2,128
  80209c:	10bfe004 	addi	r2,r2,-128
  8020a0:	10000226 	beq	r2,zero,8020ac <logic+0x1910>
  8020a4:	00800044 	movi	r2,1
  8020a8:	00000106 	br	8020b0 <logic+0x1914>
  8020ac:	0005883a 	mov	r2,zero
  8020b0:	1007883a 	mov	r3,r2
  8020b4:	e0bffc17 	ldw	r2,-16(fp)
  8020b8:	10c02785 	stb	r3,158(r2)
  if (d->_g54) {
  8020bc:	e0bffc17 	ldw	r2,-16(fp)
  8020c0:	10802783 	ldbu	r2,158(r2)
  8020c4:	10803fcc 	andi	r2,r2,255
  8020c8:	1080201c 	xori	r2,r2,128
  8020cc:	10bfe004 	addi	r2,r2,-128
  8020d0:	10003426 	beq	r2,zero,8021a4 <logic+0x1a08>
    d->sleepT = (d->sleepT < (d->LRI_time - d->_region1_null_LRI)) ? d->sleepT : (d->LRI_time - d->_region1_null_LRI);
  8020d4:	e0bffc17 	ldw	r2,-16(fp)
  8020d8:	14001517 	ldw	r16,84(r2)
  8020dc:	14401617 	ldw	r17,88(r2)
  8020e0:	e0bffc17 	ldw	r2,-16(fp)
  8020e4:	10800317 	ldw	r2,12(r2)
  8020e8:	1009883a 	mov	r4,r2
  8020ec:	0808ba00 	call	808ba0 <__floatsidf>
  8020f0:	1011883a 	mov	r8,r2
  8020f4:	1813883a 	mov	r9,r3
  8020f8:	e13ffc17 	ldw	r4,-16(fp)
  8020fc:	20800917 	ldw	r2,36(r4)
  802100:	20c00a17 	ldw	r3,40(r4)
  802104:	100d883a 	mov	r6,r2
  802108:	180f883a 	mov	r7,r3
  80210c:	4009883a 	mov	r4,r8
  802110:	480b883a 	mov	r5,r9
  802114:	08082a40 	call	8082a4 <__subdf3>
  802118:	1009883a 	mov	r4,r2
  80211c:	180b883a 	mov	r5,r3
  802120:	2005883a 	mov	r2,r4
  802124:	2807883a 	mov	r3,r5
  802128:	100d883a 	mov	r6,r2
  80212c:	180f883a 	mov	r7,r3
  802130:	8009883a 	mov	r4,r16
  802134:	880b883a 	mov	r5,r17
  802138:	08081b00 	call	8081b0 <__ledf2>
  80213c:	1000040e 	bge	r2,zero,802150 <logic+0x19b4>
  802140:	e13ffc17 	ldw	r4,-16(fp)
  802144:	20801517 	ldw	r2,84(r4)
  802148:	20c01617 	ldw	r3,88(r4)
  80214c:	00001206 	br	802198 <logic+0x19fc>
  802150:	e0bffc17 	ldw	r2,-16(fp)
  802154:	10800317 	ldw	r2,12(r2)
  802158:	1009883a 	mov	r4,r2
  80215c:	0808ba00 	call	808ba0 <__floatsidf>
  802160:	1011883a 	mov	r8,r2
  802164:	1813883a 	mov	r9,r3
  802168:	e13ffc17 	ldw	r4,-16(fp)
  80216c:	20800917 	ldw	r2,36(r4)
  802170:	20c00a17 	ldw	r3,40(r4)
  802174:	100d883a 	mov	r6,r2
  802178:	180f883a 	mov	r7,r3
  80217c:	4009883a 	mov	r4,r8
  802180:	480b883a 	mov	r5,r9
  802184:	08082a40 	call	8082a4 <__subdf3>
  802188:	1009883a 	mov	r4,r2
  80218c:	180b883a 	mov	r5,r3
  802190:	2005883a 	mov	r2,r4
  802194:	2807883a 	mov	r3,r5
  802198:	e13ffc17 	ldw	r4,-16(fp)
  80219c:	20801515 	stw	r2,84(r4)
  8021a0:	20c01615 	stw	r3,88(r4)
  }
  d->_cg50 = d->_heart2_local__Atrig3 || d->_heart2_local__Atrig4;
  8021a4:	e0bffc17 	ldw	r2,-16(fp)
  8021a8:	10801b03 	ldbu	r2,108(r2)
  8021ac:	10803fcc 	andi	r2,r2,255
  8021b0:	1080201c 	xori	r2,r2,128
  8021b4:	10bfe004 	addi	r2,r2,-128
  8021b8:	1000061e 	bne	r2,zero,8021d4 <logic+0x1a38>
  8021bc:	e0bffc17 	ldw	r2,-16(fp)
  8021c0:	10801b43 	ldbu	r2,109(r2)
  8021c4:	10803fcc 	andi	r2,r2,255
  8021c8:	1080201c 	xori	r2,r2,128
  8021cc:	10bfe004 	addi	r2,r2,-128
  8021d0:	10000226 	beq	r2,zero,8021dc <logic+0x1a40>
  8021d4:	00800044 	movi	r2,1
  8021d8:	00000106 	br	8021e0 <logic+0x1a44>
  8021dc:	0005883a 	mov	r2,zero
  8021e0:	1007883a 	mov	r3,r2
  8021e4:	e0bffc17 	ldw	r2,-16(fp)
  8021e8:	10c04a05 	stb	r3,296(r2)
  d->_g49 = d->_g48 && !d->_cg49;
  8021ec:	e0bffc17 	ldw	r2,-16(fp)
  8021f0:	10802643 	ldbu	r2,153(r2)
  8021f4:	10803fcc 	andi	r2,r2,255
  8021f8:	1080201c 	xori	r2,r2,128
  8021fc:	10bfe004 	addi	r2,r2,-128
  802200:	10000826 	beq	r2,zero,802224 <logic+0x1a88>
  802204:	e0bffc17 	ldw	r2,-16(fp)
  802208:	10804a43 	ldbu	r2,297(r2)
  80220c:	10803fcc 	andi	r2,r2,255
  802210:	1080201c 	xori	r2,r2,128
  802214:	10bfe004 	addi	r2,r2,-128
  802218:	1000021e 	bne	r2,zero,802224 <logic+0x1a88>
  80221c:	00800044 	movi	r2,1
  802220:	00000106 	br	802228 <logic+0x1a8c>
  802224:	0005883a 	mov	r2,zero
  802228:	1007883a 	mov	r3,r2
  80222c:	e0bffc17 	ldw	r2,-16(fp)
  802230:	10c02685 	stb	r3,154(r2)
  d->_cg52 = d->_heart2_local__Atrig3 || d->_heart2_local__Atrig4;
  802234:	e0bffc17 	ldw	r2,-16(fp)
  802238:	10801b03 	ldbu	r2,108(r2)
  80223c:	10803fcc 	andi	r2,r2,255
  802240:	1080201c 	xori	r2,r2,128
  802244:	10bfe004 	addi	r2,r2,-128
  802248:	1000061e 	bne	r2,zero,802264 <logic+0x1ac8>
  80224c:	e0bffc17 	ldw	r2,-16(fp)
  802250:	10801b43 	ldbu	r2,109(r2)
  802254:	10803fcc 	andi	r2,r2,255
  802258:	1080201c 	xori	r2,r2,128
  80225c:	10bfe004 	addi	r2,r2,-128
  802260:	10000226 	beq	r2,zero,80226c <logic+0x1ad0>
  802264:	00800044 	movi	r2,1
  802268:	00000106 	br	802270 <logic+0x1ad4>
  80226c:	0005883a 	mov	r2,zero
  802270:	1007883a 	mov	r3,r2
  802274:	e0bffc17 	ldw	r2,-16(fp)
  802278:	10c04a85 	stb	r3,298(r2)
  d->_g51 = d->_g54 && d->_cg50 || d->_g49 && d->_cg52;
  80227c:	e0bffc17 	ldw	r2,-16(fp)
  802280:	10802783 	ldbu	r2,158(r2)
  802284:	10803fcc 	andi	r2,r2,255
  802288:	1080201c 	xori	r2,r2,128
  80228c:	10bfe004 	addi	r2,r2,-128
  802290:	10000626 	beq	r2,zero,8022ac <logic+0x1b10>
  802294:	e0bffc17 	ldw	r2,-16(fp)
  802298:	10804a03 	ldbu	r2,296(r2)
  80229c:	10803fcc 	andi	r2,r2,255
  8022a0:	1080201c 	xori	r2,r2,128
  8022a4:	10bfe004 	addi	r2,r2,-128
  8022a8:	10000c1e 	bne	r2,zero,8022dc <logic+0x1b40>
  8022ac:	e0bffc17 	ldw	r2,-16(fp)
  8022b0:	10802683 	ldbu	r2,154(r2)
  8022b4:	10803fcc 	andi	r2,r2,255
  8022b8:	1080201c 	xori	r2,r2,128
  8022bc:	10bfe004 	addi	r2,r2,-128
  8022c0:	10000826 	beq	r2,zero,8022e4 <logic+0x1b48>
  8022c4:	e0bffc17 	ldw	r2,-16(fp)
  8022c8:	10804a83 	ldbu	r2,298(r2)
  8022cc:	10803fcc 	andi	r2,r2,255
  8022d0:	1080201c 	xori	r2,r2,128
  8022d4:	10bfe004 	addi	r2,r2,-128
  8022d8:	10000226 	beq	r2,zero,8022e4 <logic+0x1b48>
  8022dc:	00800044 	movi	r2,1
  8022e0:	00000106 	br	8022e8 <logic+0x1b4c>
  8022e4:	0005883a 	mov	r2,zero
  8022e8:	1007883a 	mov	r3,r2
  8022ec:	e0bffc17 	ldw	r2,-16(fp)
  8022f0:	10c02705 	stb	r3,156(r2)
  d->_g58 = !d->_g68_e1;
  8022f4:	e0bffc17 	ldw	r2,-16(fp)
  8022f8:	10805e03 	ldbu	r2,376(r2)
  8022fc:	10803fcc 	andi	r2,r2,255
  802300:	1080201c 	xori	r2,r2,128
  802304:	10bfe004 	addi	r2,r2,-128
  802308:	1005003a 	cmpeq	r2,r2,zero
  80230c:	1007883a 	mov	r3,r2
  802310:	e0bffc17 	ldw	r2,-16(fp)
  802314:	10c02805 	stb	r3,160(r2)
  d->_g62 = d->_g68 || d->_g62;
  802318:	e0bffc17 	ldw	r2,-16(fp)
  80231c:	10802a03 	ldbu	r2,168(r2)
  802320:	10803fcc 	andi	r2,r2,255
  802324:	1080201c 	xori	r2,r2,128
  802328:	10bfe004 	addi	r2,r2,-128
  80232c:	1000061e 	bne	r2,zero,802348 <logic+0x1bac>
  802330:	e0bffc17 	ldw	r2,-16(fp)
  802334:	10802903 	ldbu	r2,164(r2)
  802338:	10803fcc 	andi	r2,r2,255
  80233c:	1080201c 	xori	r2,r2,128
  802340:	10bfe004 	addi	r2,r2,-128
  802344:	10000226 	beq	r2,zero,802350 <logic+0x1bb4>
  802348:	00800044 	movi	r2,1
  80234c:	00000106 	br	802354 <logic+0x1bb8>
  802350:	0005883a 	mov	r2,zero
  802354:	1007883a 	mov	r3,r2
  802358:	e0bffc17 	ldw	r2,-16(fp)
  80235c:	10c02905 	stb	r3,164(r2)
  d->_g59 = (d->_g72_e2 || d->_g44) && (d->_g51_e2 || d->_g51) && (d->_g58 || d->_g62) && (d->_g44 || d->_g51 || d->_g62);
  802360:	e0bffc17 	ldw	r2,-16(fp)
  802364:	10805e43 	ldbu	r2,377(r2)
  802368:	10803fcc 	andi	r2,r2,255
  80236c:	1080201c 	xori	r2,r2,128
  802370:	10bfe004 	addi	r2,r2,-128
  802374:	1000061e 	bne	r2,zero,802390 <logic+0x1bf4>
  802378:	e0bffc17 	ldw	r2,-16(fp)
  80237c:	108025c3 	ldbu	r2,151(r2)
  802380:	10803fcc 	andi	r2,r2,255
  802384:	1080201c 	xori	r2,r2,128
  802388:	10bfe004 	addi	r2,r2,-128
  80238c:	10002c26 	beq	r2,zero,802440 <logic+0x1ca4>
  802390:	e0bffc17 	ldw	r2,-16(fp)
  802394:	10805d83 	ldbu	r2,374(r2)
  802398:	10803fcc 	andi	r2,r2,255
  80239c:	1080201c 	xori	r2,r2,128
  8023a0:	10bfe004 	addi	r2,r2,-128
  8023a4:	1000061e 	bne	r2,zero,8023c0 <logic+0x1c24>
  8023a8:	e0bffc17 	ldw	r2,-16(fp)
  8023ac:	10802703 	ldbu	r2,156(r2)
  8023b0:	10803fcc 	andi	r2,r2,255
  8023b4:	1080201c 	xori	r2,r2,128
  8023b8:	10bfe004 	addi	r2,r2,-128
  8023bc:	10002026 	beq	r2,zero,802440 <logic+0x1ca4>
  8023c0:	e0bffc17 	ldw	r2,-16(fp)
  8023c4:	10802803 	ldbu	r2,160(r2)
  8023c8:	10803fcc 	andi	r2,r2,255
  8023cc:	1080201c 	xori	r2,r2,128
  8023d0:	10bfe004 	addi	r2,r2,-128
  8023d4:	1000061e 	bne	r2,zero,8023f0 <logic+0x1c54>
  8023d8:	e0bffc17 	ldw	r2,-16(fp)
  8023dc:	10802903 	ldbu	r2,164(r2)
  8023e0:	10803fcc 	andi	r2,r2,255
  8023e4:	1080201c 	xori	r2,r2,128
  8023e8:	10bfe004 	addi	r2,r2,-128
  8023ec:	10001426 	beq	r2,zero,802440 <logic+0x1ca4>
  8023f0:	e0bffc17 	ldw	r2,-16(fp)
  8023f4:	108025c3 	ldbu	r2,151(r2)
  8023f8:	10803fcc 	andi	r2,r2,255
  8023fc:	1080201c 	xori	r2,r2,128
  802400:	10bfe004 	addi	r2,r2,-128
  802404:	10000c1e 	bne	r2,zero,802438 <logic+0x1c9c>
  802408:	e0bffc17 	ldw	r2,-16(fp)
  80240c:	10802703 	ldbu	r2,156(r2)
  802410:	10803fcc 	andi	r2,r2,255
  802414:	1080201c 	xori	r2,r2,128
  802418:	10bfe004 	addi	r2,r2,-128
  80241c:	1000061e 	bne	r2,zero,802438 <logic+0x1c9c>
  802420:	e0bffc17 	ldw	r2,-16(fp)
  802424:	10802903 	ldbu	r2,164(r2)
  802428:	10803fcc 	andi	r2,r2,255
  80242c:	1080201c 	xori	r2,r2,128
  802430:	10bfe004 	addi	r2,r2,-128
  802434:	10000226 	beq	r2,zero,802440 <logic+0x1ca4>
  802438:	00800044 	movi	r2,1
  80243c:	00000106 	br	802444 <logic+0x1ca8>
  802440:	0005883a 	mov	r2,zero
  802444:	1007883a 	mov	r3,r2
  802448:	e0bffc17 	ldw	r2,-16(fp)
  80244c:	10c02845 	stb	r3,161(r2)
  d->_cg63 = d->_heart2_local__Atrig3;
  802450:	e0bffc17 	ldw	r2,-16(fp)
  802454:	10c01b03 	ldbu	r3,108(r2)
  802458:	e0bffc17 	ldw	r2,-16(fp)
  80245c:	10c04b85 	stb	r3,302(r2)
  d->_g51 = d->_g59 && !d->_cg63;
  802460:	e0bffc17 	ldw	r2,-16(fp)
  802464:	10802843 	ldbu	r2,161(r2)
  802468:	10803fcc 	andi	r2,r2,255
  80246c:	1080201c 	xori	r2,r2,128
  802470:	10bfe004 	addi	r2,r2,-128
  802474:	10000826 	beq	r2,zero,802498 <logic+0x1cfc>
  802478:	e0bffc17 	ldw	r2,-16(fp)
  80247c:	10804b83 	ldbu	r2,302(r2)
  802480:	10803fcc 	andi	r2,r2,255
  802484:	1080201c 	xori	r2,r2,128
  802488:	10bfe004 	addi	r2,r2,-128
  80248c:	1000021e 	bne	r2,zero,802498 <logic+0x1cfc>
  802490:	00800044 	movi	r2,1
  802494:	00000106 	br	80249c <logic+0x1d00>
  802498:	0005883a 	mov	r2,zero
  80249c:	1007883a 	mov	r3,r2
  8024a0:	e0bffc17 	ldw	r2,-16(fp)
  8024a4:	10c02705 	stb	r3,156(r2)
  if (d->_g51) {
  8024a8:	e0bffc17 	ldw	r2,-16(fp)
  8024ac:	10802703 	ldbu	r2,156(r2)
  8024b0:	10803fcc 	andi	r2,r2,255
  8024b4:	1080201c 	xori	r2,r2,128
  8024b8:	10bfe004 	addi	r2,r2,-128
  8024bc:	10000326 	beq	r2,zero,8024cc <logic+0x1d30>
    d->_region1_null_LRI = 0;
  8024c0:	e0bffc17 	ldw	r2,-16(fp)
  8024c4:	10000915 	stw	zero,36(r2)
  8024c8:	10000a15 	stw	zero,40(r2)
  }
  d->_g60_e3 = d->_GO || d->_g27 || d->_g51;
  8024cc:	e0bffc17 	ldw	r2,-16(fp)
  8024d0:	10804543 	ldbu	r2,277(r2)
  8024d4:	10803fcc 	andi	r2,r2,255
  8024d8:	1080201c 	xori	r2,r2,128
  8024dc:	10bfe004 	addi	r2,r2,-128
  8024e0:	10000c1e 	bne	r2,zero,802514 <logic+0x1d78>
  8024e4:	e0bffc17 	ldw	r2,-16(fp)
  8024e8:	10802383 	ldbu	r2,142(r2)
  8024ec:	10803fcc 	andi	r2,r2,255
  8024f0:	1080201c 	xori	r2,r2,128
  8024f4:	10bfe004 	addi	r2,r2,-128
  8024f8:	1000061e 	bne	r2,zero,802514 <logic+0x1d78>
  8024fc:	e0bffc17 	ldw	r2,-16(fp)
  802500:	10802703 	ldbu	r2,156(r2)
  802504:	10803fcc 	andi	r2,r2,255
  802508:	1080201c 	xori	r2,r2,128
  80250c:	10bfe004 	addi	r2,r2,-128
  802510:	10000226 	beq	r2,zero,80251c <logic+0x1d80>
  802514:	00800044 	movi	r2,1
  802518:	00000106 	br	802520 <logic+0x1d84>
  80251c:	0005883a 	mov	r2,zero
  802520:	1007883a 	mov	r3,r2
  802524:	e0bffc17 	ldw	r2,-16(fp)
  802528:	10c05dc5 	stb	r3,375(r2)
  if (d->_g60_e3) {
  80252c:	e0bffc17 	ldw	r2,-16(fp)
  802530:	10805dc3 	ldbu	r2,375(r2)
  802534:	10803fcc 	andi	r2,r2,255
  802538:	1080201c 	xori	r2,r2,128
  80253c:	10bfe004 	addi	r2,r2,-128
  802540:	10000426 	beq	r2,zero,802554 <logic+0x1db8>
    d->_heart2_local__Atrig3 = 0;
  802544:	e0bffc17 	ldw	r2,-16(fp)
  802548:	10001b05 	stb	zero,108(r2)
    d->_heart2_local__Atrig4 = 0;
  80254c:	e0bffc17 	ldw	r2,-16(fp)
  802550:	10001b45 	stb	zero,109(r2)
  }
  d->_cg41 = d->_heart2_local__Atrig3 || d->_heart2_local__Atrig4;
  802554:	e0bffc17 	ldw	r2,-16(fp)
  802558:	10801b03 	ldbu	r2,108(r2)
  80255c:	10803fcc 	andi	r2,r2,255
  802560:	1080201c 	xori	r2,r2,128
  802564:	10bfe004 	addi	r2,r2,-128
  802568:	1000061e 	bne	r2,zero,802584 <logic+0x1de8>
  80256c:	e0bffc17 	ldw	r2,-16(fp)
  802570:	10801b43 	ldbu	r2,109(r2)
  802574:	10803fcc 	andi	r2,r2,255
  802578:	1080201c 	xori	r2,r2,128
  80257c:	10bfe004 	addi	r2,r2,-128
  802580:	10000226 	beq	r2,zero,80258c <logic+0x1df0>
  802584:	00800044 	movi	r2,1
  802588:	00000106 	br	802590 <logic+0x1df4>
  80258c:	0005883a 	mov	r2,zero
  802590:	1007883a 	mov	r3,r2
  802594:	e0bffc17 	ldw	r2,-16(fp)
  802598:	10c04905 	stb	r3,292(r2)
  d->_g44_e1 = d->_g60_e3 && !d->_cg41 || d->_g34 && !d->_cg43;
  80259c:	e0bffc17 	ldw	r2,-16(fp)
  8025a0:	10805dc3 	ldbu	r2,375(r2)
  8025a4:	10803fcc 	andi	r2,r2,255
  8025a8:	1080201c 	xori	r2,r2,128
  8025ac:	10bfe004 	addi	r2,r2,-128
  8025b0:	10000626 	beq	r2,zero,8025cc <logic+0x1e30>
  8025b4:	e0bffc17 	ldw	r2,-16(fp)
  8025b8:	10804903 	ldbu	r2,292(r2)
  8025bc:	10803fcc 	andi	r2,r2,255
  8025c0:	1080201c 	xori	r2,r2,128
  8025c4:	10bfe004 	addi	r2,r2,-128
  8025c8:	10000c26 	beq	r2,zero,8025fc <logic+0x1e60>
  8025cc:	e0bffc17 	ldw	r2,-16(fp)
  8025d0:	10802443 	ldbu	r2,145(r2)
  8025d4:	10803fcc 	andi	r2,r2,255
  8025d8:	1080201c 	xori	r2,r2,128
  8025dc:	10bfe004 	addi	r2,r2,-128
  8025e0:	10000826 	beq	r2,zero,802604 <logic+0x1e68>
  8025e4:	e0bffc17 	ldw	r2,-16(fp)
  8025e8:	10804943 	ldbu	r2,293(r2)
  8025ec:	10803fcc 	andi	r2,r2,255
  8025f0:	1080201c 	xori	r2,r2,128
  8025f4:	10bfe004 	addi	r2,r2,-128
  8025f8:	1000021e 	bne	r2,zero,802604 <logic+0x1e68>
  8025fc:	00800044 	movi	r2,1
  802600:	00000106 	br	802608 <logic+0x1e6c>
  802604:	0005883a 	mov	r2,zero
  802608:	1007883a 	mov	r3,r2
  80260c:	e0bffc17 	ldw	r2,-16(fp)
  802610:	10c05d45 	stb	r3,373(r2)
  d->_cg45 = d->_region1_null_LRI < d->LRI_time;
  802614:	e0bffc17 	ldw	r2,-16(fp)
  802618:	14000917 	ldw	r16,36(r2)
  80261c:	14400a17 	ldw	r17,40(r2)
  802620:	e0bffc17 	ldw	r2,-16(fp)
  802624:	10800317 	ldw	r2,12(r2)
  802628:	1009883a 	mov	r4,r2
  80262c:	0808ba00 	call	808ba0 <__floatsidf>
  802630:	1009883a 	mov	r4,r2
  802634:	180b883a 	mov	r5,r3
  802638:	04800044 	movi	r18,1
  80263c:	200d883a 	mov	r6,r4
  802640:	280f883a 	mov	r7,r5
  802644:	8009883a 	mov	r4,r16
  802648:	880b883a 	mov	r5,r17
  80264c:	08081b00 	call	8081b0 <__ledf2>
  802650:	10000116 	blt	r2,zero,802658 <logic+0x1ebc>
  802654:	0025883a 	mov	r18,zero
  802658:	9007883a 	mov	r3,r18
  80265c:	e0bffc17 	ldw	r2,-16(fp)
  802660:	10c04985 	stb	r3,294(r2)
  d->_g44 = d->_g60_e3 && d->_cg45;
  802664:	e0bffc17 	ldw	r2,-16(fp)
  802668:	10805dc3 	ldbu	r2,375(r2)
  80266c:	10803fcc 	andi	r2,r2,255
  802670:	1080201c 	xori	r2,r2,128
  802674:	10bfe004 	addi	r2,r2,-128
  802678:	10000826 	beq	r2,zero,80269c <logic+0x1f00>
  80267c:	e0bffc17 	ldw	r2,-16(fp)
  802680:	10804983 	ldbu	r2,294(r2)
  802684:	10803fcc 	andi	r2,r2,255
  802688:	1080201c 	xori	r2,r2,128
  80268c:	10bfe004 	addi	r2,r2,-128
  802690:	10000226 	beq	r2,zero,80269c <logic+0x1f00>
  802694:	00800044 	movi	r2,1
  802698:	00000106 	br	8026a0 <logic+0x1f04>
  80269c:	0005883a 	mov	r2,zero
  8026a0:	1007883a 	mov	r3,r2
  8026a4:	e0bffc17 	ldw	r2,-16(fp)
  8026a8:	10c025c5 	stb	r3,151(r2)
  if (d->_g44) {
  8026ac:	e0bffc17 	ldw	r2,-16(fp)
  8026b0:	108025c3 	ldbu	r2,151(r2)
  8026b4:	10803fcc 	andi	r2,r2,255
  8026b8:	1080201c 	xori	r2,r2,128
  8026bc:	10bfe004 	addi	r2,r2,-128
  8026c0:	10003426 	beq	r2,zero,802794 <logic+0x1ff8>
    d->sleepT = (d->sleepT < (d->LRI_time - d->_region1_null_LRI)) ? d->sleepT : (d->LRI_time - d->_region1_null_LRI);
  8026c4:	e0bffc17 	ldw	r2,-16(fp)
  8026c8:	14001517 	ldw	r16,84(r2)
  8026cc:	14401617 	ldw	r17,88(r2)
  8026d0:	e0bffc17 	ldw	r2,-16(fp)
  8026d4:	10800317 	ldw	r2,12(r2)
  8026d8:	1009883a 	mov	r4,r2
  8026dc:	0808ba00 	call	808ba0 <__floatsidf>
  8026e0:	1011883a 	mov	r8,r2
  8026e4:	1813883a 	mov	r9,r3
  8026e8:	e13ffc17 	ldw	r4,-16(fp)
  8026ec:	20800917 	ldw	r2,36(r4)
  8026f0:	20c00a17 	ldw	r3,40(r4)
  8026f4:	100d883a 	mov	r6,r2
  8026f8:	180f883a 	mov	r7,r3
  8026fc:	4009883a 	mov	r4,r8
  802700:	480b883a 	mov	r5,r9
  802704:	08082a40 	call	8082a4 <__subdf3>
  802708:	1009883a 	mov	r4,r2
  80270c:	180b883a 	mov	r5,r3
  802710:	2005883a 	mov	r2,r4
  802714:	2807883a 	mov	r3,r5
  802718:	100d883a 	mov	r6,r2
  80271c:	180f883a 	mov	r7,r3
  802720:	8009883a 	mov	r4,r16
  802724:	880b883a 	mov	r5,r17
  802728:	08081b00 	call	8081b0 <__ledf2>
  80272c:	1000040e 	bge	r2,zero,802740 <logic+0x1fa4>
  802730:	e13ffc17 	ldw	r4,-16(fp)
  802734:	20801517 	ldw	r2,84(r4)
  802738:	20c01617 	ldw	r3,88(r4)
  80273c:	00001206 	br	802788 <logic+0x1fec>
  802740:	e0bffc17 	ldw	r2,-16(fp)
  802744:	10800317 	ldw	r2,12(r2)
  802748:	1009883a 	mov	r4,r2
  80274c:	0808ba00 	call	808ba0 <__floatsidf>
  802750:	1011883a 	mov	r8,r2
  802754:	1813883a 	mov	r9,r3
  802758:	e13ffc17 	ldw	r4,-16(fp)
  80275c:	20800917 	ldw	r2,36(r4)
  802760:	20c00a17 	ldw	r3,40(r4)
  802764:	100d883a 	mov	r6,r2
  802768:	180f883a 	mov	r7,r3
  80276c:	4009883a 	mov	r4,r8
  802770:	480b883a 	mov	r5,r9
  802774:	08082a40 	call	8082a4 <__subdf3>
  802778:	1009883a 	mov	r4,r2
  80277c:	180b883a 	mov	r5,r3
  802780:	2005883a 	mov	r2,r4
  802784:	2807883a 	mov	r3,r5
  802788:	e13ffc17 	ldw	r4,-16(fp)
  80278c:	20801515 	stw	r2,84(r4)
  802790:	20c01615 	stw	r3,88(r4)
  }
  d->_cg46 = d->_heart2_local__Atrig3 || d->_heart2_local__Atrig4;
  802794:	e0bffc17 	ldw	r2,-16(fp)
  802798:	10801b03 	ldbu	r2,108(r2)
  80279c:	10803fcc 	andi	r2,r2,255
  8027a0:	1080201c 	xori	r2,r2,128
  8027a4:	10bfe004 	addi	r2,r2,-128
  8027a8:	1000061e 	bne	r2,zero,8027c4 <logic+0x2028>
  8027ac:	e0bffc17 	ldw	r2,-16(fp)
  8027b0:	10801b43 	ldbu	r2,109(r2)
  8027b4:	10803fcc 	andi	r2,r2,255
  8027b8:	1080201c 	xori	r2,r2,128
  8027bc:	10bfe004 	addi	r2,r2,-128
  8027c0:	10000226 	beq	r2,zero,8027cc <logic+0x2030>
  8027c4:	00800044 	movi	r2,1
  8027c8:	00000106 	br	8027d0 <logic+0x2034>
  8027cc:	0005883a 	mov	r2,zero
  8027d0:	1007883a 	mov	r3,r2
  8027d4:	e0bffc17 	ldw	r2,-16(fp)
  8027d8:	10c049c5 	stb	r3,295(r2)
  d->_g51_e2 = d->_g44 && !d->_cg46 || d->_g54 && !d->_cg50;
  8027dc:	e0bffc17 	ldw	r2,-16(fp)
  8027e0:	108025c3 	ldbu	r2,151(r2)
  8027e4:	10803fcc 	andi	r2,r2,255
  8027e8:	1080201c 	xori	r2,r2,128
  8027ec:	10bfe004 	addi	r2,r2,-128
  8027f0:	10000626 	beq	r2,zero,80280c <logic+0x2070>
  8027f4:	e0bffc17 	ldw	r2,-16(fp)
  8027f8:	108049c3 	ldbu	r2,295(r2)
  8027fc:	10803fcc 	andi	r2,r2,255
  802800:	1080201c 	xori	r2,r2,128
  802804:	10bfe004 	addi	r2,r2,-128
  802808:	10000c26 	beq	r2,zero,80283c <logic+0x20a0>
  80280c:	e0bffc17 	ldw	r2,-16(fp)
  802810:	10802783 	ldbu	r2,158(r2)
  802814:	10803fcc 	andi	r2,r2,255
  802818:	1080201c 	xori	r2,r2,128
  80281c:	10bfe004 	addi	r2,r2,-128
  802820:	10000826 	beq	r2,zero,802844 <logic+0x20a8>
  802824:	e0bffc17 	ldw	r2,-16(fp)
  802828:	10804a03 	ldbu	r2,296(r2)
  80282c:	10803fcc 	andi	r2,r2,255
  802830:	1080201c 	xori	r2,r2,128
  802834:	10bfe004 	addi	r2,r2,-128
  802838:	1000021e 	bne	r2,zero,802844 <logic+0x20a8>
  80283c:	00800044 	movi	r2,1
  802840:	00000106 	br	802848 <logic+0x20ac>
  802844:	0005883a 	mov	r2,zero
  802848:	1007883a 	mov	r3,r2
  80284c:	e0bffc17 	ldw	r2,-16(fp)
  802850:	10c05d85 	stb	r3,374(r2)
  d->_g60 = d->_g60_e3 && !d->_cg45;
  802854:	e0bffc17 	ldw	r2,-16(fp)
  802858:	10805dc3 	ldbu	r2,375(r2)
  80285c:	10803fcc 	andi	r2,r2,255
  802860:	1080201c 	xori	r2,r2,128
  802864:	10bfe004 	addi	r2,r2,-128
  802868:	10000826 	beq	r2,zero,80288c <logic+0x20f0>
  80286c:	e0bffc17 	ldw	r2,-16(fp)
  802870:	10804983 	ldbu	r2,294(r2)
  802874:	10803fcc 	andi	r2,r2,255
  802878:	1080201c 	xori	r2,r2,128
  80287c:	10bfe004 	addi	r2,r2,-128
  802880:	1000021e 	bne	r2,zero,80288c <logic+0x20f0>
  802884:	00800044 	movi	r2,1
  802888:	00000106 	br	802890 <logic+0x20f4>
  80288c:	0005883a 	mov	r2,zero
  802890:	1007883a 	mov	r3,r2
  802894:	e0bffc17 	ldw	r2,-16(fp)
  802898:	10c02885 	stb	r3,162(r2)
  d->_cg55 = d->_heart2_local__Atrig3 || d->_heart2_local__Atrig4;
  80289c:	e0bffc17 	ldw	r2,-16(fp)
  8028a0:	10801b03 	ldbu	r2,108(r2)
  8028a4:	10803fcc 	andi	r2,r2,255
  8028a8:	1080201c 	xori	r2,r2,128
  8028ac:	10bfe004 	addi	r2,r2,-128
  8028b0:	1000061e 	bne	r2,zero,8028cc <logic+0x2130>
  8028b4:	e0bffc17 	ldw	r2,-16(fp)
  8028b8:	10801b43 	ldbu	r2,109(r2)
  8028bc:	10803fcc 	andi	r2,r2,255
  8028c0:	1080201c 	xori	r2,r2,128
  8028c4:	10bfe004 	addi	r2,r2,-128
  8028c8:	10000226 	beq	r2,zero,8028d4 <logic+0x2138>
  8028cc:	00800044 	movi	r2,1
  8028d0:	00000106 	br	8028d8 <logic+0x213c>
  8028d4:	0005883a 	mov	r2,zero
  8028d8:	1007883a 	mov	r3,r2
  8028dc:	e0bffc17 	ldw	r2,-16(fp)
  8028e0:	10c04ac5 	stb	r3,299(r2)
  d->_g73 = d->_g49 && !d->_cg52 || d->_g60 && !d->_cg55;
  8028e4:	e0bffc17 	ldw	r2,-16(fp)
  8028e8:	10802683 	ldbu	r2,154(r2)
  8028ec:	10803fcc 	andi	r2,r2,255
  8028f0:	1080201c 	xori	r2,r2,128
  8028f4:	10bfe004 	addi	r2,r2,-128
  8028f8:	10000626 	beq	r2,zero,802914 <logic+0x2178>
  8028fc:	e0bffc17 	ldw	r2,-16(fp)
  802900:	10804a83 	ldbu	r2,298(r2)
  802904:	10803fcc 	andi	r2,r2,255
  802908:	1080201c 	xori	r2,r2,128
  80290c:	10bfe004 	addi	r2,r2,-128
  802910:	10000c26 	beq	r2,zero,802944 <logic+0x21a8>
  802914:	e0bffc17 	ldw	r2,-16(fp)
  802918:	10802883 	ldbu	r2,162(r2)
  80291c:	10803fcc 	andi	r2,r2,255
  802920:	1080201c 	xori	r2,r2,128
  802924:	10bfe004 	addi	r2,r2,-128
  802928:	10000826 	beq	r2,zero,80294c <logic+0x21b0>
  80292c:	e0bffc17 	ldw	r2,-16(fp)
  802930:	10804ac3 	ldbu	r2,299(r2)
  802934:	10803fcc 	andi	r2,r2,255
  802938:	1080201c 	xori	r2,r2,128
  80293c:	10bfe004 	addi	r2,r2,-128
  802940:	1000021e 	bne	r2,zero,80294c <logic+0x21b0>
  802944:	00800044 	movi	r2,1
  802948:	00000106 	br	802950 <logic+0x21b4>
  80294c:	0005883a 	mov	r2,zero
  802950:	1007883a 	mov	r3,r2
  802954:	e0bffc17 	ldw	r2,-16(fp)
  802958:	10c02ac5 	stb	r3,171(r2)
  d->_g74 = d->_g60_e3 || d->_g72 && !d->_cg61;
  80295c:	e0bffc17 	ldw	r2,-16(fp)
  802960:	10805dc3 	ldbu	r2,375(r2)
  802964:	10803fcc 	andi	r2,r2,255
  802968:	1080201c 	xori	r2,r2,128
  80296c:	10bfe004 	addi	r2,r2,-128
  802970:	10000c1e 	bne	r2,zero,8029a4 <logic+0x2208>
  802974:	e0bffc17 	ldw	r2,-16(fp)
  802978:	10802a83 	ldbu	r2,170(r2)
  80297c:	10803fcc 	andi	r2,r2,255
  802980:	1080201c 	xori	r2,r2,128
  802984:	10bfe004 	addi	r2,r2,-128
  802988:	10000826 	beq	r2,zero,8029ac <logic+0x2210>
  80298c:	e0bffc17 	ldw	r2,-16(fp)
  802990:	10804b03 	ldbu	r2,300(r2)
  802994:	10803fcc 	andi	r2,r2,255
  802998:	1080201c 	xori	r2,r2,128
  80299c:	10bfe004 	addi	r2,r2,-128
  8029a0:	1000021e 	bne	r2,zero,8029ac <logic+0x2210>
  8029a4:	00800044 	movi	r2,1
  8029a8:	00000106 	br	8029b0 <logic+0x2214>
  8029ac:	0005883a 	mov	r2,zero
  8029b0:	1007883a 	mov	r3,r2
  8029b4:	e0bffc17 	ldw	r2,-16(fp)
  8029b8:	10c02b05 	stb	r3,172(r2)
  d->_g43 = d->_g59 && d->_cg63;
  8029bc:	e0bffc17 	ldw	r2,-16(fp)
  8029c0:	10802843 	ldbu	r2,161(r2)
  8029c4:	10803fcc 	andi	r2,r2,255
  8029c8:	1080201c 	xori	r2,r2,128
  8029cc:	10bfe004 	addi	r2,r2,-128
  8029d0:	10000826 	beq	r2,zero,8029f4 <logic+0x2258>
  8029d4:	e0bffc17 	ldw	r2,-16(fp)
  8029d8:	10804b83 	ldbu	r2,302(r2)
  8029dc:	10803fcc 	andi	r2,r2,255
  8029e0:	1080201c 	xori	r2,r2,128
  8029e4:	10bfe004 	addi	r2,r2,-128
  8029e8:	10000226 	beq	r2,zero,8029f4 <logic+0x2258>
  8029ec:	00800044 	movi	r2,1
  8029f0:	00000106 	br	8029f8 <logic+0x225c>
  8029f4:	0005883a 	mov	r2,zero
  8029f8:	1007883a 	mov	r3,r2
  8029fc:	e0bffc17 	ldw	r2,-16(fp)
  802a00:	10c02585 	stb	r3,150(r2)
  if (d->_g43) {
  802a04:	e0bffc17 	ldw	r2,-16(fp)
  802a08:	10802583 	ldbu	r2,150(r2)
  802a0c:	10803fcc 	andi	r2,r2,255
  802a10:	1080201c 	xori	r2,r2,128
  802a14:	10bfe004 	addi	r2,r2,-128
  802a18:	10000826 	beq	r2,zero,802a3c <logic+0x22a0>
    d->VP |= 1;
  802a1c:	e0bffc17 	ldw	r2,-16(fp)
  802a20:	108017c3 	ldbu	r2,95(r2)
  802a24:	10800054 	ori	r2,r2,1
  802a28:	1007883a 	mov	r3,r2
  802a2c:	e0bffc17 	ldw	r2,-16(fp)
  802a30:	10c017c5 	stb	r3,95(r2)
    d->_heart2_local__Atrig5 = 0;
  802a34:	e0bffc17 	ldw	r2,-16(fp)
  802a38:	10001b85 	stb	zero,110(r2)
  }
  d->_cg65 = d->_heart2_local__Atrig5;
  802a3c:	e0bffc17 	ldw	r2,-16(fp)
  802a40:	10c01b83 	ldbu	r3,110(r2)
  802a44:	e0bffc17 	ldw	r2,-16(fp)
  802a48:	10c04bc5 	stb	r3,303(r2)
  d->_g46 = d->_g43 && !d->_cg65 || d->_g15 && !d->_cg67;
  802a4c:	e0bffc17 	ldw	r2,-16(fp)
  802a50:	10802583 	ldbu	r2,150(r2)
  802a54:	10803fcc 	andi	r2,r2,255
  802a58:	1080201c 	xori	r2,r2,128
  802a5c:	10bfe004 	addi	r2,r2,-128
  802a60:	10000626 	beq	r2,zero,802a7c <logic+0x22e0>
  802a64:	e0bffc17 	ldw	r2,-16(fp)
  802a68:	10804bc3 	ldbu	r2,303(r2)
  802a6c:	10803fcc 	andi	r2,r2,255
  802a70:	1080201c 	xori	r2,r2,128
  802a74:	10bfe004 	addi	r2,r2,-128
  802a78:	10000c26 	beq	r2,zero,802aac <logic+0x2310>
  802a7c:	e0bffc17 	ldw	r2,-16(fp)
  802a80:	10802143 	ldbu	r2,133(r2)
  802a84:	10803fcc 	andi	r2,r2,255
  802a88:	1080201c 	xori	r2,r2,128
  802a8c:	10bfe004 	addi	r2,r2,-128
  802a90:	10000826 	beq	r2,zero,802ab4 <logic+0x2318>
  802a94:	e0bffc17 	ldw	r2,-16(fp)
  802a98:	10804c03 	ldbu	r2,304(r2)
  802a9c:	10803fcc 	andi	r2,r2,255
  802aa0:	1080201c 	xori	r2,r2,128
  802aa4:	10bfe004 	addi	r2,r2,-128
  802aa8:	1000021e 	bne	r2,zero,802ab4 <logic+0x2318>
  802aac:	00800044 	movi	r2,1
  802ab0:	00000106 	br	802ab8 <logic+0x231c>
  802ab4:	0005883a 	mov	r2,zero
  802ab8:	1007883a 	mov	r3,r2
  802abc:	e0bffc17 	ldw	r2,-16(fp)
  802ac0:	10c02605 	stb	r3,152(r2)
  d->_g50 = d->_g43 || d->_g24 && !d->_cg71;
  802ac4:	e0bffc17 	ldw	r2,-16(fp)
  802ac8:	10802583 	ldbu	r2,150(r2)
  802acc:	10803fcc 	andi	r2,r2,255
  802ad0:	1080201c 	xori	r2,r2,128
  802ad4:	10bfe004 	addi	r2,r2,-128
  802ad8:	10000c1e 	bne	r2,zero,802b0c <logic+0x2370>
  802adc:	e0bffc17 	ldw	r2,-16(fp)
  802ae0:	108022c3 	ldbu	r2,139(r2)
  802ae4:	10803fcc 	andi	r2,r2,255
  802ae8:	1080201c 	xori	r2,r2,128
  802aec:	10bfe004 	addi	r2,r2,-128
  802af0:	10000826 	beq	r2,zero,802b14 <logic+0x2378>
  802af4:	e0bffc17 	ldw	r2,-16(fp)
  802af8:	10804c43 	ldbu	r2,305(r2)
  802afc:	10803fcc 	andi	r2,r2,255
  802b00:	1080201c 	xori	r2,r2,128
  802b04:	10bfe004 	addi	r2,r2,-128
  802b08:	1000021e 	bne	r2,zero,802b14 <logic+0x2378>
  802b0c:	00800044 	movi	r2,1
  802b10:	00000106 	br	802b18 <logic+0x237c>
  802b14:	0005883a 	mov	r2,zero
  802b18:	1007883a 	mov	r3,r2
  802b1c:	e0bffc17 	ldw	r2,-16(fp)
  802b20:	10c026c5 	stb	r3,155(r2)
  d->_g55 = d->_pg83;
  802b24:	e0bffc17 	ldw	r2,-16(fp)
  802b28:	10c06703 	ldbu	r3,412(r2)
  802b2c:	e0bffc17 	ldw	r2,-16(fp)
  802b30:	10c027c5 	stb	r3,159(r2)
  if (d->_g55) {
  802b34:	e0bffc17 	ldw	r2,-16(fp)
  802b38:	108027c3 	ldbu	r2,159(r2)
  802b3c:	10803fcc 	andi	r2,r2,255
  802b40:	1080201c 	xori	r2,r2,128
  802b44:	10bfe004 	addi	r2,r2,-128
  802b48:	10001226 	beq	r2,zero,802b94 <logic+0x23f8>
    d->_region2_null_VRP += d->deltaT;
  802b4c:	e13ffc17 	ldw	r4,-16(fp)
  802b50:	20800b17 	ldw	r2,44(r4)
  802b54:	20c00c17 	ldw	r3,48(r4)
  802b58:	e1bffc17 	ldw	r6,-16(fp)
  802b5c:	31001317 	ldw	r4,76(r6)
  802b60:	31401417 	ldw	r5,80(r6)
  802b64:	200d883a 	mov	r6,r4
  802b68:	280f883a 	mov	r7,r5
  802b6c:	1009883a 	mov	r4,r2
  802b70:	180b883a 	mov	r5,r3
  802b74:	08078280 	call	807828 <__adddf3>
  802b78:	1009883a 	mov	r4,r2
  802b7c:	180b883a 	mov	r5,r3
  802b80:	2005883a 	mov	r2,r4
  802b84:	2807883a 	mov	r3,r5
  802b88:	e13ffc17 	ldw	r4,-16(fp)
  802b8c:	20800b15 	stw	r2,44(r4)
  802b90:	20c00c15 	stw	r3,48(r4)
  }
  d->_g52 = !d->_g55;
  802b94:	e0bffc17 	ldw	r2,-16(fp)
  802b98:	108027c3 	ldbu	r2,159(r2)
  802b9c:	10803fcc 	andi	r2,r2,255
  802ba0:	1080201c 	xori	r2,r2,128
  802ba4:	10bfe004 	addi	r2,r2,-128
  802ba8:	1005003a 	cmpeq	r2,r2,zero
  802bac:	1007883a 	mov	r3,r2
  802bb0:	e0bffc17 	ldw	r2,-16(fp)
  802bb4:	10c02745 	stb	r3,157(r2)
  d->_g40 = d->_pg89;
  802bb8:	e0bffc17 	ldw	r2,-16(fp)
  802bbc:	10c06743 	ldbu	r3,413(r2)
  802bc0:	e0bffc17 	ldw	r2,-16(fp)
  802bc4:	10c02545 	stb	r3,149(r2)
  d->_cg108 = d->v;
  802bc8:	e0bffc17 	ldw	r2,-16(fp)
  802bcc:	10c018c3 	ldbu	r3,99(r2)
  802bd0:	e0bffc17 	ldw	r2,-16(fp)
  802bd4:	10c05005 	stb	r3,320(r2)
  d->_g61 = d->_g40 && d->_cg108;
  802bd8:	e0bffc17 	ldw	r2,-16(fp)
  802bdc:	10802543 	ldbu	r2,149(r2)
  802be0:	10803fcc 	andi	r2,r2,255
  802be4:	1080201c 	xori	r2,r2,128
  802be8:	10bfe004 	addi	r2,r2,-128
  802bec:	10000826 	beq	r2,zero,802c10 <logic+0x2474>
  802bf0:	e0bffc17 	ldw	r2,-16(fp)
  802bf4:	10805003 	ldbu	r2,320(r2)
  802bf8:	10803fcc 	andi	r2,r2,255
  802bfc:	1080201c 	xori	r2,r2,128
  802c00:	10bfe004 	addi	r2,r2,-128
  802c04:	10000226 	beq	r2,zero,802c10 <logic+0x2474>
  802c08:	00800044 	movi	r2,1
  802c0c:	00000106 	br	802c14 <logic+0x2478>
  802c10:	0005883a 	mov	r2,zero
  802c14:	1007883a 	mov	r3,r2
  802c18:	e0bffc17 	ldw	r2,-16(fp)
  802c1c:	10c028c5 	stb	r3,163(r2)
  if (d->_g61) {
  802c20:	e0bffc17 	ldw	r2,-16(fp)
  802c24:	108028c3 	ldbu	r2,163(r2)
  802c28:	10803fcc 	andi	r2,r2,255
  802c2c:	1080201c 	xori	r2,r2,128
  802c30:	10bfe004 	addi	r2,r2,-128
  802c34:	10000326 	beq	r2,zero,802c44 <logic+0x24a8>
    d->_heart2_local__Atrig8 = 1;
  802c38:	e0bffc17 	ldw	r2,-16(fp)
  802c3c:	00c00044 	movi	r3,1
  802c40:	10c01c45 	stb	r3,113(r2)
  }
  d->_g63 = d->_g40 && !d->_cg108;
  802c44:	e0bffc17 	ldw	r2,-16(fp)
  802c48:	10802543 	ldbu	r2,149(r2)
  802c4c:	10803fcc 	andi	r2,r2,255
  802c50:	1080201c 	xori	r2,r2,128
  802c54:	10bfe004 	addi	r2,r2,-128
  802c58:	10000826 	beq	r2,zero,802c7c <logic+0x24e0>
  802c5c:	e0bffc17 	ldw	r2,-16(fp)
  802c60:	10805003 	ldbu	r2,320(r2)
  802c64:	10803fcc 	andi	r2,r2,255
  802c68:	1080201c 	xori	r2,r2,128
  802c6c:	10bfe004 	addi	r2,r2,-128
  802c70:	1000021e 	bne	r2,zero,802c7c <logic+0x24e0>
  802c74:	00800044 	movi	r2,1
  802c78:	00000106 	br	802c80 <logic+0x24e4>
  802c7c:	0005883a 	mov	r2,zero
  802c80:	1007883a 	mov	r3,r2
  802c84:	e0bffc17 	ldw	r2,-16(fp)
  802c88:	10c02945 	stb	r3,165(r2)
  d->_g67 = d->_g63 && d->VS;
  802c8c:	e0bffc17 	ldw	r2,-16(fp)
  802c90:	10802943 	ldbu	r2,165(r2)
  802c94:	10803fcc 	andi	r2,r2,255
  802c98:	1080201c 	xori	r2,r2,128
  802c9c:	10bfe004 	addi	r2,r2,-128
  802ca0:	10000826 	beq	r2,zero,802cc4 <logic+0x2528>
  802ca4:	e0bffc17 	ldw	r2,-16(fp)
  802ca8:	10801743 	ldbu	r2,93(r2)
  802cac:	10803fcc 	andi	r2,r2,255
  802cb0:	1080201c 	xori	r2,r2,128
  802cb4:	10bfe004 	addi	r2,r2,-128
  802cb8:	10000226 	beq	r2,zero,802cc4 <logic+0x2528>
  802cbc:	00800044 	movi	r2,1
  802cc0:	00000106 	br	802cc8 <logic+0x252c>
  802cc4:	0005883a 	mov	r2,zero
  802cc8:	1007883a 	mov	r3,r2
  802ccc:	e0bffc17 	ldw	r2,-16(fp)
  802cd0:	10c029c5 	stb	r3,167(r2)
  if (d->_g67) {
  802cd4:	e0bffc17 	ldw	r2,-16(fp)
  802cd8:	108029c3 	ldbu	r2,167(r2)
  802cdc:	10803fcc 	andi	r2,r2,255
  802ce0:	1080201c 	xori	r2,r2,128
  802ce4:	10bfe004 	addi	r2,r2,-128
  802ce8:	10000326 	beq	r2,zero,802cf8 <logic+0x255c>
    d->_heart2_local__Atrig9 = 1;
  802cec:	e0bffc17 	ldw	r2,-16(fp)
  802cf0:	00c00044 	movi	r3,1
  802cf4:	10c01c85 	stb	r3,114(r2)
  }
  d->_cg104 = d->_heart2_local__Atrig8 || d->_heart2_local__Atrig9;
  802cf8:	e0bffc17 	ldw	r2,-16(fp)
  802cfc:	10801c43 	ldbu	r2,113(r2)
  802d00:	10803fcc 	andi	r2,r2,255
  802d04:	1080201c 	xori	r2,r2,128
  802d08:	10bfe004 	addi	r2,r2,-128
  802d0c:	1000061e 	bne	r2,zero,802d28 <logic+0x258c>
  802d10:	e0bffc17 	ldw	r2,-16(fp)
  802d14:	10801c83 	ldbu	r2,114(r2)
  802d18:	10803fcc 	andi	r2,r2,255
  802d1c:	1080201c 	xori	r2,r2,128
  802d20:	10bfe004 	addi	r2,r2,-128
  802d24:	10000226 	beq	r2,zero,802d30 <logic+0x2594>
  802d28:	00800044 	movi	r2,1
  802d2c:	00000106 	br	802d34 <logic+0x2598>
  802d30:	0005883a 	mov	r2,zero
  802d34:	1007883a 	mov	r3,r2
  802d38:	e0bffc17 	ldw	r2,-16(fp)
  802d3c:	10c04f85 	stb	r3,318(r2)
  d->_g64 = d->_g55 && d->_cg104;
  802d40:	e0bffc17 	ldw	r2,-16(fp)
  802d44:	108027c3 	ldbu	r2,159(r2)
  802d48:	10803fcc 	andi	r2,r2,255
  802d4c:	1080201c 	xori	r2,r2,128
  802d50:	10bfe004 	addi	r2,r2,-128
  802d54:	10000826 	beq	r2,zero,802d78 <logic+0x25dc>
  802d58:	e0bffc17 	ldw	r2,-16(fp)
  802d5c:	10804f83 	ldbu	r2,318(r2)
  802d60:	10803fcc 	andi	r2,r2,255
  802d64:	1080201c 	xori	r2,r2,128
  802d68:	10bfe004 	addi	r2,r2,-128
  802d6c:	10000226 	beq	r2,zero,802d78 <logic+0x25dc>
  802d70:	00800044 	movi	r2,1
  802d74:	00000106 	br	802d7c <logic+0x25e0>
  802d78:	0005883a 	mov	r2,zero
  802d7c:	1007883a 	mov	r3,r2
  802d80:	e0bffc17 	ldw	r2,-16(fp)
  802d84:	10c02985 	stb	r3,166(r2)
  d->_g71 = !d->_g40;
  802d88:	e0bffc17 	ldw	r2,-16(fp)
  802d8c:	10802543 	ldbu	r2,149(r2)
  802d90:	10803fcc 	andi	r2,r2,255
  802d94:	1080201c 	xori	r2,r2,128
  802d98:	10bfe004 	addi	r2,r2,-128
  802d9c:	1005003a 	cmpeq	r2,r2,zero
  802da0:	1007883a 	mov	r3,r2
  802da4:	e0bffc17 	ldw	r2,-16(fp)
  802da8:	10c02a45 	stb	r3,169(r2)
  d->_g108 = d->_g61 || d->_g67;
  802dac:	e0bffc17 	ldw	r2,-16(fp)
  802db0:	108028c3 	ldbu	r2,163(r2)
  802db4:	10803fcc 	andi	r2,r2,255
  802db8:	1080201c 	xori	r2,r2,128
  802dbc:	10bfe004 	addi	r2,r2,-128
  802dc0:	1000061e 	bne	r2,zero,802ddc <logic+0x2640>
  802dc4:	e0bffc17 	ldw	r2,-16(fp)
  802dc8:	108029c3 	ldbu	r2,167(r2)
  802dcc:	10803fcc 	andi	r2,r2,255
  802dd0:	1080201c 	xori	r2,r2,128
  802dd4:	10bfe004 	addi	r2,r2,-128
  802dd8:	10000226 	beq	r2,zero,802de4 <logic+0x2648>
  802ddc:	00800044 	movi	r2,1
  802de0:	00000106 	br	802de8 <logic+0x264c>
  802de4:	0005883a 	mov	r2,zero
  802de8:	1007883a 	mov	r3,r2
  802dec:	e0bffc17 	ldw	r2,-16(fp)
  802df0:	10c03045 	stb	r3,193(r2)
  d->_g112 = (d->_g52 || d->_g64) && (d->_g71 || d->_g108) && (d->_g64 || d->_g108);
  802df4:	e0bffc17 	ldw	r2,-16(fp)
  802df8:	10802743 	ldbu	r2,157(r2)
  802dfc:	10803fcc 	andi	r2,r2,255
  802e00:	1080201c 	xori	r2,r2,128
  802e04:	10bfe004 	addi	r2,r2,-128
  802e08:	1000061e 	bne	r2,zero,802e24 <logic+0x2688>
  802e0c:	e0bffc17 	ldw	r2,-16(fp)
  802e10:	10802983 	ldbu	r2,166(r2)
  802e14:	10803fcc 	andi	r2,r2,255
  802e18:	1080201c 	xori	r2,r2,128
  802e1c:	10bfe004 	addi	r2,r2,-128
  802e20:	10001a26 	beq	r2,zero,802e8c <logic+0x26f0>
  802e24:	e0bffc17 	ldw	r2,-16(fp)
  802e28:	10802a43 	ldbu	r2,169(r2)
  802e2c:	10803fcc 	andi	r2,r2,255
  802e30:	1080201c 	xori	r2,r2,128
  802e34:	10bfe004 	addi	r2,r2,-128
  802e38:	1000061e 	bne	r2,zero,802e54 <logic+0x26b8>
  802e3c:	e0bffc17 	ldw	r2,-16(fp)
  802e40:	10803043 	ldbu	r2,193(r2)
  802e44:	10803fcc 	andi	r2,r2,255
  802e48:	1080201c 	xori	r2,r2,128
  802e4c:	10bfe004 	addi	r2,r2,-128
  802e50:	10000e26 	beq	r2,zero,802e8c <logic+0x26f0>
  802e54:	e0bffc17 	ldw	r2,-16(fp)
  802e58:	10802983 	ldbu	r2,166(r2)
  802e5c:	10803fcc 	andi	r2,r2,255
  802e60:	1080201c 	xori	r2,r2,128
  802e64:	10bfe004 	addi	r2,r2,-128
  802e68:	1000061e 	bne	r2,zero,802e84 <logic+0x26e8>
  802e6c:	e0bffc17 	ldw	r2,-16(fp)
  802e70:	10803043 	ldbu	r2,193(r2)
  802e74:	10803fcc 	andi	r2,r2,255
  802e78:	1080201c 	xori	r2,r2,128
  802e7c:	10bfe004 	addi	r2,r2,-128
  802e80:	10000226 	beq	r2,zero,802e8c <logic+0x26f0>
  802e84:	00800044 	movi	r2,1
  802e88:	00000106 	br	802e90 <logic+0x26f4>
  802e8c:	0005883a 	mov	r2,zero
  802e90:	1007883a 	mov	r3,r2
  802e94:	e0bffc17 	ldw	r2,-16(fp)
  802e98:	10c03145 	stb	r3,197(r2)
  d->_cg113 = d->_heart2_local__Atrig8;
  802e9c:	e0bffc17 	ldw	r2,-16(fp)
  802ea0:	10c01c43 	ldbu	r3,113(r2)
  802ea4:	e0bffc17 	ldw	r2,-16(fp)
  802ea8:	10c05045 	stb	r3,321(r2)
  d->_g109 = d->_g112 && d->_cg113;
  802eac:	e0bffc17 	ldw	r2,-16(fp)
  802eb0:	10803143 	ldbu	r2,197(r2)
  802eb4:	10803fcc 	andi	r2,r2,255
  802eb8:	1080201c 	xori	r2,r2,128
  802ebc:	10bfe004 	addi	r2,r2,-128
  802ec0:	10000826 	beq	r2,zero,802ee4 <logic+0x2748>
  802ec4:	e0bffc17 	ldw	r2,-16(fp)
  802ec8:	10805043 	ldbu	r2,321(r2)
  802ecc:	10803fcc 	andi	r2,r2,255
  802ed0:	1080201c 	xori	r2,r2,128
  802ed4:	10bfe004 	addi	r2,r2,-128
  802ed8:	10000226 	beq	r2,zero,802ee4 <logic+0x2748>
  802edc:	00800044 	movi	r2,1
  802ee0:	00000106 	br	802ee8 <logic+0x274c>
  802ee4:	0005883a 	mov	r2,zero
  802ee8:	1007883a 	mov	r3,r2
  802eec:	e0bffc17 	ldw	r2,-16(fp)
  802ef0:	10c03085 	stb	r3,194(r2)
  if (d->_g109) {
  802ef4:	e0bffc17 	ldw	r2,-16(fp)
  802ef8:	10803083 	ldbu	r2,194(r2)
  802efc:	10803fcc 	andi	r2,r2,255
  802f00:	1080201c 	xori	r2,r2,128
  802f04:	10bfe004 	addi	r2,r2,-128
  802f08:	10000326 	beq	r2,zero,802f18 <logic+0x277c>
    d->_region2_null_VRP = 0;
  802f0c:	e0bffc17 	ldw	r2,-16(fp)
  802f10:	10000b15 	stw	zero,44(r2)
  802f14:	10000c15 	stw	zero,48(r2)
  }
  d->_g105_e1 = d->_pg88;
  802f18:	e0bffc17 	ldw	r2,-16(fp)
  802f1c:	10c06783 	ldbu	r3,414(r2)
  802f20:	e0bffc17 	ldw	r2,-16(fp)
  802f24:	10c05f45 	stb	r3,381(r2)
  if (d->_g105_e1) {
  802f28:	e0bffc17 	ldw	r2,-16(fp)
  802f2c:	10805f43 	ldbu	r2,381(r2)
  802f30:	10803fcc 	andi	r2,r2,255
  802f34:	1080201c 	xori	r2,r2,128
  802f38:	10bfe004 	addi	r2,r2,-128
  802f3c:	10001226 	beq	r2,zero,802f88 <logic+0x27ec>
    d->_region2_null_VRP += d->deltaT;
  802f40:	e13ffc17 	ldw	r4,-16(fp)
  802f44:	20800b17 	ldw	r2,44(r4)
  802f48:	20c00c17 	ldw	r3,48(r4)
  802f4c:	e1bffc17 	ldw	r6,-16(fp)
  802f50:	31001317 	ldw	r4,76(r6)
  802f54:	31401417 	ldw	r5,80(r6)
  802f58:	200d883a 	mov	r6,r4
  802f5c:	280f883a 	mov	r7,r5
  802f60:	1009883a 	mov	r4,r2
  802f64:	180b883a 	mov	r5,r3
  802f68:	08078280 	call	807828 <__adddf3>
  802f6c:	1009883a 	mov	r4,r2
  802f70:	180b883a 	mov	r5,r3
  802f74:	2005883a 	mov	r2,r4
  802f78:	2807883a 	mov	r3,r5
  802f7c:	e13ffc17 	ldw	r4,-16(fp)
  802f80:	20800b15 	stw	r2,44(r4)
  802f84:	20c00c15 	stw	r3,48(r4)
  }
  d->_g110 = !d->_g105_e1;
  802f88:	e0bffc17 	ldw	r2,-16(fp)
  802f8c:	10805f43 	ldbu	r2,381(r2)
  802f90:	10803fcc 	andi	r2,r2,255
  802f94:	1080201c 	xori	r2,r2,128
  802f98:	10bfe004 	addi	r2,r2,-128
  802f9c:	1005003a 	cmpeq	r2,r2,zero
  802fa0:	1007883a 	mov	r3,r2
  802fa4:	e0bffc17 	ldw	r2,-16(fp)
  802fa8:	10c030c5 	stb	r3,195(r2)
  d->_g105 = d->_pg114;
  802fac:	e0bffc17 	ldw	r2,-16(fp)
  802fb0:	10c067c3 	ldbu	r3,415(r2)
  802fb4:	e0bffc17 	ldw	r2,-16(fp)
  802fb8:	10c03005 	stb	r3,192(r2)
  d->_cg95 = d->_region2_null_VRP >= d->VRP_time;
  802fbc:	e0bffc17 	ldw	r2,-16(fp)
  802fc0:	14000b17 	ldw	r16,44(r2)
  802fc4:	14400c17 	ldw	r17,48(r2)
  802fc8:	e0bffc17 	ldw	r2,-16(fp)
  802fcc:	10800017 	ldw	r2,0(r2)
  802fd0:	1009883a 	mov	r4,r2
  802fd4:	0808ba00 	call	808ba0 <__floatsidf>
  802fd8:	1009883a 	mov	r4,r2
  802fdc:	180b883a 	mov	r5,r3
  802fe0:	04800044 	movi	r18,1
  802fe4:	200d883a 	mov	r6,r4
  802fe8:	280f883a 	mov	r7,r5
  802fec:	8009883a 	mov	r4,r16
  802ff0:	880b883a 	mov	r5,r17
  802ff4:	08080d40 	call	8080d4 <__gedf2>
  802ff8:	1000010e 	bge	r2,zero,803000 <logic+0x2864>
  802ffc:	0025883a 	mov	r18,zero
  803000:	9007883a 	mov	r3,r18
  803004:	e0bffc17 	ldw	r2,-16(fp)
  803008:	10c04ec5 	stb	r3,315(r2)
  d->_g110_e2 = d->_g105 && d->_cg95;
  80300c:	e0bffc17 	ldw	r2,-16(fp)
  803010:	10803003 	ldbu	r2,192(r2)
  803014:	10803fcc 	andi	r2,r2,255
  803018:	1080201c 	xori	r2,r2,128
  80301c:	10bfe004 	addi	r2,r2,-128
  803020:	10000826 	beq	r2,zero,803044 <logic+0x28a8>
  803024:	e0bffc17 	ldw	r2,-16(fp)
  803028:	10804ec3 	ldbu	r2,315(r2)
  80302c:	10803fcc 	andi	r2,r2,255
  803030:	1080201c 	xori	r2,r2,128
  803034:	10bfe004 	addi	r2,r2,-128
  803038:	10000226 	beq	r2,zero,803044 <logic+0x28a8>
  80303c:	00800044 	movi	r2,1
  803040:	00000106 	br	803048 <logic+0x28ac>
  803044:	0005883a 	mov	r2,zero
  803048:	1007883a 	mov	r3,r2
  80304c:	e0bffc17 	ldw	r2,-16(fp)
  803050:	10c05f85 	stb	r3,382(r2)
  if (d->_g110_e2) {
  803054:	e0bffc17 	ldw	r2,-16(fp)
  803058:	10805f83 	ldbu	r2,382(r2)
  80305c:	10803fcc 	andi	r2,r2,255
  803060:	1080201c 	xori	r2,r2,128
  803064:	10bfe004 	addi	r2,r2,-128
  803068:	10000326 	beq	r2,zero,803078 <logic+0x28dc>
    d->_heart2_local__Atrig6 = 1;
  80306c:	e0bffc17 	ldw	r2,-16(fp)
  803070:	00c00044 	movi	r3,1
  803074:	10c01bc5 	stb	r3,111(r2)
  }
  d->_g98 = d->_g105 && !d->_cg95;
  803078:	e0bffc17 	ldw	r2,-16(fp)
  80307c:	10803003 	ldbu	r2,192(r2)
  803080:	10803fcc 	andi	r2,r2,255
  803084:	1080201c 	xori	r2,r2,128
  803088:	10bfe004 	addi	r2,r2,-128
  80308c:	10000826 	beq	r2,zero,8030b0 <logic+0x2914>
  803090:	e0bffc17 	ldw	r2,-16(fp)
  803094:	10804ec3 	ldbu	r2,315(r2)
  803098:	10803fcc 	andi	r2,r2,255
  80309c:	1080201c 	xori	r2,r2,128
  8030a0:	10bfe004 	addi	r2,r2,-128
  8030a4:	1000021e 	bne	r2,zero,8030b0 <logic+0x2914>
  8030a8:	00800044 	movi	r2,1
  8030ac:	00000106 	br	8030b4 <logic+0x2918>
  8030b0:	0005883a 	mov	r2,zero
  8030b4:	1007883a 	mov	r3,r2
  8030b8:	e0bffc17 	ldw	r2,-16(fp)
  8030bc:	10c02ec5 	stb	r3,187(r2)
  d->_g99 = d->_g98 && d->VS;
  8030c0:	e0bffc17 	ldw	r2,-16(fp)
  8030c4:	10802ec3 	ldbu	r2,187(r2)
  8030c8:	10803fcc 	andi	r2,r2,255
  8030cc:	1080201c 	xori	r2,r2,128
  8030d0:	10bfe004 	addi	r2,r2,-128
  8030d4:	10000826 	beq	r2,zero,8030f8 <logic+0x295c>
  8030d8:	e0bffc17 	ldw	r2,-16(fp)
  8030dc:	10801743 	ldbu	r2,93(r2)
  8030e0:	10803fcc 	andi	r2,r2,255
  8030e4:	1080201c 	xori	r2,r2,128
  8030e8:	10bfe004 	addi	r2,r2,-128
  8030ec:	10000226 	beq	r2,zero,8030f8 <logic+0x295c>
  8030f0:	00800044 	movi	r2,1
  8030f4:	00000106 	br	8030fc <logic+0x2960>
  8030f8:	0005883a 	mov	r2,zero
  8030fc:	1007883a 	mov	r3,r2
  803100:	e0bffc17 	ldw	r2,-16(fp)
  803104:	10c02f05 	stb	r3,188(r2)
  if (d->_g99) {
  803108:	e0bffc17 	ldw	r2,-16(fp)
  80310c:	10802f03 	ldbu	r2,188(r2)
  803110:	10803fcc 	andi	r2,r2,255
  803114:	1080201c 	xori	r2,r2,128
  803118:	10bfe004 	addi	r2,r2,-128
  80311c:	10000326 	beq	r2,zero,80312c <logic+0x2990>
    d->_heart2_local__Atrig7 = 1;
  803120:	e0bffc17 	ldw	r2,-16(fp)
  803124:	00c00044 	movi	r3,1
  803128:	10c01c05 	stb	r3,112(r2)
  }
  d->_cg80 = d->_heart2_local__Atrig6 || d->_heart2_local__Atrig7;
  80312c:	e0bffc17 	ldw	r2,-16(fp)
  803130:	10801bc3 	ldbu	r2,111(r2)
  803134:	10803fcc 	andi	r2,r2,255
  803138:	1080201c 	xori	r2,r2,128
  80313c:	10bfe004 	addi	r2,r2,-128
  803140:	1000061e 	bne	r2,zero,80315c <logic+0x29c0>
  803144:	e0bffc17 	ldw	r2,-16(fp)
  803148:	10801c03 	ldbu	r2,112(r2)
  80314c:	10803fcc 	andi	r2,r2,255
  803150:	1080201c 	xori	r2,r2,128
  803154:	10bfe004 	addi	r2,r2,-128
  803158:	10000226 	beq	r2,zero,803164 <logic+0x29c8>
  80315c:	00800044 	movi	r2,1
  803160:	00000106 	br	803168 <logic+0x29cc>
  803164:	0005883a 	mov	r2,zero
  803168:	1007883a 	mov	r3,r2
  80316c:	e0bffc17 	ldw	r2,-16(fp)
  803170:	10c04cc5 	stb	r3,307(r2)
  d->_g81 = d->_g105_e1 && d->_cg80;
  803174:	e0bffc17 	ldw	r2,-16(fp)
  803178:	10805f43 	ldbu	r2,381(r2)
  80317c:	10803fcc 	andi	r2,r2,255
  803180:	1080201c 	xori	r2,r2,128
  803184:	10bfe004 	addi	r2,r2,-128
  803188:	10000826 	beq	r2,zero,8031ac <logic+0x2a10>
  80318c:	e0bffc17 	ldw	r2,-16(fp)
  803190:	10804cc3 	ldbu	r2,307(r2)
  803194:	10803fcc 	andi	r2,r2,255
  803198:	1080201c 	xori	r2,r2,128
  80319c:	10bfe004 	addi	r2,r2,-128
  8031a0:	10000226 	beq	r2,zero,8031ac <logic+0x2a10>
  8031a4:	00800044 	movi	r2,1
  8031a8:	00000106 	br	8031b0 <logic+0x2a14>
  8031ac:	0005883a 	mov	r2,zero
  8031b0:	1007883a 	mov	r3,r2
  8031b4:	e0bffc17 	ldw	r2,-16(fp)
  8031b8:	10c02bc5 	stb	r3,175(r2)
  d->_g91 = d->_pg116;
  8031bc:	e0bffc17 	ldw	r2,-16(fp)
  8031c0:	10c06803 	ldbu	r3,416(r2)
  8031c4:	e0bffc17 	ldw	r2,-16(fp)
  8031c8:	10c02d85 	stb	r3,182(r2)
  d->_g85 = d->_pg97_e3;
  8031cc:	e0bffc17 	ldw	r2,-16(fp)
  8031d0:	10c06843 	ldbu	r3,417(r2)
  8031d4:	e0bffc17 	ldw	r2,-16(fp)
  8031d8:	10c02c45 	stb	r3,177(r2)
  d->_g88_e2 = !(d->_g91 || d->_g85);
  8031dc:	e0bffc17 	ldw	r2,-16(fp)
  8031e0:	10802d83 	ldbu	r2,182(r2)
  8031e4:	10803fcc 	andi	r2,r2,255
  8031e8:	1080201c 	xori	r2,r2,128
  8031ec:	10bfe004 	addi	r2,r2,-128
  8031f0:	1000081e 	bne	r2,zero,803214 <logic+0x2a78>
  8031f4:	e0bffc17 	ldw	r2,-16(fp)
  8031f8:	10802c43 	ldbu	r2,177(r2)
  8031fc:	10803fcc 	andi	r2,r2,255
  803200:	1080201c 	xori	r2,r2,128
  803204:	10bfe004 	addi	r2,r2,-128
  803208:	1000021e 	bne	r2,zero,803214 <logic+0x2a78>
  80320c:	00800044 	movi	r2,1
  803210:	00000106 	br	803218 <logic+0x2a7c>
  803214:	0005883a 	mov	r2,zero
  803218:	1007883a 	mov	r3,r2
  80321c:	e0bffc17 	ldw	r2,-16(fp)
  803220:	10c05ec5 	stb	r3,379(r2)
  d->_g91 = d->_g85 || d->_g91;
  803224:	e0bffc17 	ldw	r2,-16(fp)
  803228:	10802c43 	ldbu	r2,177(r2)
  80322c:	10803fcc 	andi	r2,r2,255
  803230:	1080201c 	xori	r2,r2,128
  803234:	10bfe004 	addi	r2,r2,-128
  803238:	1000061e 	bne	r2,zero,803254 <logic+0x2ab8>
  80323c:	e0bffc17 	ldw	r2,-16(fp)
  803240:	10802d83 	ldbu	r2,182(r2)
  803244:	10803fcc 	andi	r2,r2,255
  803248:	1080201c 	xori	r2,r2,128
  80324c:	10bfe004 	addi	r2,r2,-128
  803250:	10000226 	beq	r2,zero,80325c <logic+0x2ac0>
  803254:	00800044 	movi	r2,1
  803258:	00000106 	br	803260 <logic+0x2ac4>
  80325c:	0005883a 	mov	r2,zero
  803260:	1007883a 	mov	r3,r2
  803264:	e0bffc17 	ldw	r2,-16(fp)
  803268:	10c02d85 	stb	r3,182(r2)
  d->_cg86 = d->_region2_null_VRP < d->VRP_time;
  80326c:	e0bffc17 	ldw	r2,-16(fp)
  803270:	14000b17 	ldw	r16,44(r2)
  803274:	14400c17 	ldw	r17,48(r2)
  803278:	e0bffc17 	ldw	r2,-16(fp)
  80327c:	10800017 	ldw	r2,0(r2)
  803280:	1009883a 	mov	r4,r2
  803284:	0808ba00 	call	808ba0 <__floatsidf>
  803288:	1009883a 	mov	r4,r2
  80328c:	180b883a 	mov	r5,r3
  803290:	04800044 	movi	r18,1
  803294:	200d883a 	mov	r6,r4
  803298:	280f883a 	mov	r7,r5
  80329c:	8009883a 	mov	r4,r16
  8032a0:	880b883a 	mov	r5,r17
  8032a4:	08081b00 	call	8081b0 <__ledf2>
  8032a8:	10000116 	blt	r2,zero,8032b0 <logic+0x2b14>
  8032ac:	0025883a 	mov	r18,zero
  8032b0:	9007883a 	mov	r3,r18
  8032b4:	e0bffc17 	ldw	r2,-16(fp)
  8032b8:	10c04dc5 	stb	r3,311(r2)
  d->_g85 = d->_g91 && d->_cg86;
  8032bc:	e0bffc17 	ldw	r2,-16(fp)
  8032c0:	10802d83 	ldbu	r2,182(r2)
  8032c4:	10803fcc 	andi	r2,r2,255
  8032c8:	1080201c 	xori	r2,r2,128
  8032cc:	10bfe004 	addi	r2,r2,-128
  8032d0:	10000826 	beq	r2,zero,8032f4 <logic+0x2b58>
  8032d4:	e0bffc17 	ldw	r2,-16(fp)
  8032d8:	10804dc3 	ldbu	r2,311(r2)
  8032dc:	10803fcc 	andi	r2,r2,255
  8032e0:	1080201c 	xori	r2,r2,128
  8032e4:	10bfe004 	addi	r2,r2,-128
  8032e8:	10000226 	beq	r2,zero,8032f4 <logic+0x2b58>
  8032ec:	00800044 	movi	r2,1
  8032f0:	00000106 	br	8032f8 <logic+0x2b5c>
  8032f4:	0005883a 	mov	r2,zero
  8032f8:	1007883a 	mov	r3,r2
  8032fc:	e0bffc17 	ldw	r2,-16(fp)
  803300:	10c02c45 	stb	r3,177(r2)
  if (d->_g85) {
  803304:	e0bffc17 	ldw	r2,-16(fp)
  803308:	10802c43 	ldbu	r2,177(r2)
  80330c:	10803fcc 	andi	r2,r2,255
  803310:	1080201c 	xori	r2,r2,128
  803314:	10bfe004 	addi	r2,r2,-128
  803318:	10003426 	beq	r2,zero,8033ec <logic+0x2c50>
    d->sleepT = (d->sleepT < (d->VRP_time - d->_region2_null_VRP)) ? d->sleepT : (d->VRP_time - d->_region2_null_VRP);
  80331c:	e0bffc17 	ldw	r2,-16(fp)
  803320:	14001517 	ldw	r16,84(r2)
  803324:	14401617 	ldw	r17,88(r2)
  803328:	e0bffc17 	ldw	r2,-16(fp)
  80332c:	10800017 	ldw	r2,0(r2)
  803330:	1009883a 	mov	r4,r2
  803334:	0808ba00 	call	808ba0 <__floatsidf>
  803338:	1011883a 	mov	r8,r2
  80333c:	1813883a 	mov	r9,r3
  803340:	e13ffc17 	ldw	r4,-16(fp)
  803344:	20800b17 	ldw	r2,44(r4)
  803348:	20c00c17 	ldw	r3,48(r4)
  80334c:	100d883a 	mov	r6,r2
  803350:	180f883a 	mov	r7,r3
  803354:	4009883a 	mov	r4,r8
  803358:	480b883a 	mov	r5,r9
  80335c:	08082a40 	call	8082a4 <__subdf3>
  803360:	1009883a 	mov	r4,r2
  803364:	180b883a 	mov	r5,r3
  803368:	2005883a 	mov	r2,r4
  80336c:	2807883a 	mov	r3,r5
  803370:	100d883a 	mov	r6,r2
  803374:	180f883a 	mov	r7,r3
  803378:	8009883a 	mov	r4,r16
  80337c:	880b883a 	mov	r5,r17
  803380:	08081b00 	call	8081b0 <__ledf2>
  803384:	1000040e 	bge	r2,zero,803398 <logic+0x2bfc>
  803388:	e13ffc17 	ldw	r4,-16(fp)
  80338c:	20801517 	ldw	r2,84(r4)
  803390:	20c01617 	ldw	r3,88(r4)
  803394:	00001206 	br	8033e0 <logic+0x2c44>
  803398:	e0bffc17 	ldw	r2,-16(fp)
  80339c:	10800017 	ldw	r2,0(r2)
  8033a0:	1009883a 	mov	r4,r2
  8033a4:	0808ba00 	call	808ba0 <__floatsidf>
  8033a8:	1011883a 	mov	r8,r2
  8033ac:	1813883a 	mov	r9,r3
  8033b0:	e13ffc17 	ldw	r4,-16(fp)
  8033b4:	20800b17 	ldw	r2,44(r4)
  8033b8:	20c00c17 	ldw	r3,48(r4)
  8033bc:	100d883a 	mov	r6,r2
  8033c0:	180f883a 	mov	r7,r3
  8033c4:	4009883a 	mov	r4,r8
  8033c8:	480b883a 	mov	r5,r9
  8033cc:	08082a40 	call	8082a4 <__subdf3>
  8033d0:	1009883a 	mov	r4,r2
  8033d4:	180b883a 	mov	r5,r3
  8033d8:	2005883a 	mov	r2,r4
  8033dc:	2807883a 	mov	r3,r5
  8033e0:	e13ffc17 	ldw	r4,-16(fp)
  8033e4:	20801515 	stw	r2,84(r4)
  8033e8:	20c01615 	stw	r3,88(r4)
  }
  d->_cg87 = d->_heart2_local__Atrig6 || d->_heart2_local__Atrig7;
  8033ec:	e0bffc17 	ldw	r2,-16(fp)
  8033f0:	10801bc3 	ldbu	r2,111(r2)
  8033f4:	10803fcc 	andi	r2,r2,255
  8033f8:	1080201c 	xori	r2,r2,128
  8033fc:	10bfe004 	addi	r2,r2,-128
  803400:	1000061e 	bne	r2,zero,80341c <logic+0x2c80>
  803404:	e0bffc17 	ldw	r2,-16(fp)
  803408:	10801c03 	ldbu	r2,112(r2)
  80340c:	10803fcc 	andi	r2,r2,255
  803410:	1080201c 	xori	r2,r2,128
  803414:	10bfe004 	addi	r2,r2,-128
  803418:	10000226 	beq	r2,zero,803424 <logic+0x2c88>
  80341c:	00800044 	movi	r2,1
  803420:	00000106 	br	803428 <logic+0x2c8c>
  803424:	0005883a 	mov	r2,zero
  803428:	1007883a 	mov	r3,r2
  80342c:	e0bffc17 	ldw	r2,-16(fp)
  803430:	10c04d85 	stb	r3,310(r2)
  d->_g86 = d->_g91 && !d->_cg86;
  803434:	e0bffc17 	ldw	r2,-16(fp)
  803438:	10802d83 	ldbu	r2,182(r2)
  80343c:	10803fcc 	andi	r2,r2,255
  803440:	1080201c 	xori	r2,r2,128
  803444:	10bfe004 	addi	r2,r2,-128
  803448:	10000826 	beq	r2,zero,80346c <logic+0x2cd0>
  80344c:	e0bffc17 	ldw	r2,-16(fp)
  803450:	10804dc3 	ldbu	r2,311(r2)
  803454:	10803fcc 	andi	r2,r2,255
  803458:	1080201c 	xori	r2,r2,128
  80345c:	10bfe004 	addi	r2,r2,-128
  803460:	1000021e 	bne	r2,zero,80346c <logic+0x2cd0>
  803464:	00800044 	movi	r2,1
  803468:	00000106 	br	803470 <logic+0x2cd4>
  80346c:	0005883a 	mov	r2,zero
  803470:	1007883a 	mov	r3,r2
  803474:	e0bffc17 	ldw	r2,-16(fp)
  803478:	10c02c85 	stb	r3,178(r2)
  d->_cg89 = d->_heart2_local__Atrig6 || d->_heart2_local__Atrig7;
  80347c:	e0bffc17 	ldw	r2,-16(fp)
  803480:	10801bc3 	ldbu	r2,111(r2)
  803484:	10803fcc 	andi	r2,r2,255
  803488:	1080201c 	xori	r2,r2,128
  80348c:	10bfe004 	addi	r2,r2,-128
  803490:	1000061e 	bne	r2,zero,8034ac <logic+0x2d10>
  803494:	e0bffc17 	ldw	r2,-16(fp)
  803498:	10801c03 	ldbu	r2,112(r2)
  80349c:	10803fcc 	andi	r2,r2,255
  8034a0:	1080201c 	xori	r2,r2,128
  8034a4:	10bfe004 	addi	r2,r2,-128
  8034a8:	10000226 	beq	r2,zero,8034b4 <logic+0x2d18>
  8034ac:	00800044 	movi	r2,1
  8034b0:	00000106 	br	8034b8 <logic+0x2d1c>
  8034b4:	0005883a 	mov	r2,zero
  8034b8:	1007883a 	mov	r3,r2
  8034bc:	e0bffc17 	ldw	r2,-16(fp)
  8034c0:	10c04e05 	stb	r3,312(r2)
  d->_g88 = d->_g85 && d->_cg87 || d->_g86 && d->_cg89;
  8034c4:	e0bffc17 	ldw	r2,-16(fp)
  8034c8:	10802c43 	ldbu	r2,177(r2)
  8034cc:	10803fcc 	andi	r2,r2,255
  8034d0:	1080201c 	xori	r2,r2,128
  8034d4:	10bfe004 	addi	r2,r2,-128
  8034d8:	10000626 	beq	r2,zero,8034f4 <logic+0x2d58>
  8034dc:	e0bffc17 	ldw	r2,-16(fp)
  8034e0:	10804d83 	ldbu	r2,310(r2)
  8034e4:	10803fcc 	andi	r2,r2,255
  8034e8:	1080201c 	xori	r2,r2,128
  8034ec:	10bfe004 	addi	r2,r2,-128
  8034f0:	10000c1e 	bne	r2,zero,803524 <logic+0x2d88>
  8034f4:	e0bffc17 	ldw	r2,-16(fp)
  8034f8:	10802c83 	ldbu	r2,178(r2)
  8034fc:	10803fcc 	andi	r2,r2,255
  803500:	1080201c 	xori	r2,r2,128
  803504:	10bfe004 	addi	r2,r2,-128
  803508:	10000826 	beq	r2,zero,80352c <logic+0x2d90>
  80350c:	e0bffc17 	ldw	r2,-16(fp)
  803510:	10804e03 	ldbu	r2,312(r2)
  803514:	10803fcc 	andi	r2,r2,255
  803518:	1080201c 	xori	r2,r2,128
  80351c:	10bfe004 	addi	r2,r2,-128
  803520:	10000226 	beq	r2,zero,80352c <logic+0x2d90>
  803524:	00800044 	movi	r2,1
  803528:	00000106 	br	803530 <logic+0x2d94>
  80352c:	0005883a 	mov	r2,zero
  803530:	1007883a 	mov	r3,r2
  803534:	e0bffc17 	ldw	r2,-16(fp)
  803538:	10c02d05 	stb	r3,180(r2)
  d->_g95 = !d->_g105;
  80353c:	e0bffc17 	ldw	r2,-16(fp)
  803540:	10803003 	ldbu	r2,192(r2)
  803544:	10803fcc 	andi	r2,r2,255
  803548:	1080201c 	xori	r2,r2,128
  80354c:	10bfe004 	addi	r2,r2,-128
  803550:	1005003a 	cmpeq	r2,r2,zero
  803554:	1007883a 	mov	r3,r2
  803558:	e0bffc17 	ldw	r2,-16(fp)
  80355c:	10c02e05 	stb	r3,184(r2)
  d->_g99 = d->_g110_e2 || d->_g99;
  803560:	e0bffc17 	ldw	r2,-16(fp)
  803564:	10805f83 	ldbu	r2,382(r2)
  803568:	10803fcc 	andi	r2,r2,255
  80356c:	1080201c 	xori	r2,r2,128
  803570:	10bfe004 	addi	r2,r2,-128
  803574:	1000061e 	bne	r2,zero,803590 <logic+0x2df4>
  803578:	e0bffc17 	ldw	r2,-16(fp)
  80357c:	10802f03 	ldbu	r2,188(r2)
  803580:	10803fcc 	andi	r2,r2,255
  803584:	1080201c 	xori	r2,r2,128
  803588:	10bfe004 	addi	r2,r2,-128
  80358c:	10000226 	beq	r2,zero,803598 <logic+0x2dfc>
  803590:	00800044 	movi	r2,1
  803594:	00000106 	br	80359c <logic+0x2e00>
  803598:	0005883a 	mov	r2,zero
  80359c:	1007883a 	mov	r3,r2
  8035a0:	e0bffc17 	ldw	r2,-16(fp)
  8035a4:	10c02f05 	stb	r3,188(r2)
  d->_g96 = (d->_g110 || d->_g81) && (d->_g88_e2 || d->_g88) && (d->_g95 || d->_g99) && (d->_g81 || d->_g88 || d->_g99);
  8035a8:	e0bffc17 	ldw	r2,-16(fp)
  8035ac:	108030c3 	ldbu	r2,195(r2)
  8035b0:	10803fcc 	andi	r2,r2,255
  8035b4:	1080201c 	xori	r2,r2,128
  8035b8:	10bfe004 	addi	r2,r2,-128
  8035bc:	1000061e 	bne	r2,zero,8035d8 <logic+0x2e3c>
  8035c0:	e0bffc17 	ldw	r2,-16(fp)
  8035c4:	10802bc3 	ldbu	r2,175(r2)
  8035c8:	10803fcc 	andi	r2,r2,255
  8035cc:	1080201c 	xori	r2,r2,128
  8035d0:	10bfe004 	addi	r2,r2,-128
  8035d4:	10002c26 	beq	r2,zero,803688 <logic+0x2eec>
  8035d8:	e0bffc17 	ldw	r2,-16(fp)
  8035dc:	10805ec3 	ldbu	r2,379(r2)
  8035e0:	10803fcc 	andi	r2,r2,255
  8035e4:	1080201c 	xori	r2,r2,128
  8035e8:	10bfe004 	addi	r2,r2,-128
  8035ec:	1000061e 	bne	r2,zero,803608 <logic+0x2e6c>
  8035f0:	e0bffc17 	ldw	r2,-16(fp)
  8035f4:	10802d03 	ldbu	r2,180(r2)
  8035f8:	10803fcc 	andi	r2,r2,255
  8035fc:	1080201c 	xori	r2,r2,128
  803600:	10bfe004 	addi	r2,r2,-128
  803604:	10002026 	beq	r2,zero,803688 <logic+0x2eec>
  803608:	e0bffc17 	ldw	r2,-16(fp)
  80360c:	10802e03 	ldbu	r2,184(r2)
  803610:	10803fcc 	andi	r2,r2,255
  803614:	1080201c 	xori	r2,r2,128
  803618:	10bfe004 	addi	r2,r2,-128
  80361c:	1000061e 	bne	r2,zero,803638 <logic+0x2e9c>
  803620:	e0bffc17 	ldw	r2,-16(fp)
  803624:	10802f03 	ldbu	r2,188(r2)
  803628:	10803fcc 	andi	r2,r2,255
  80362c:	1080201c 	xori	r2,r2,128
  803630:	10bfe004 	addi	r2,r2,-128
  803634:	10001426 	beq	r2,zero,803688 <logic+0x2eec>
  803638:	e0bffc17 	ldw	r2,-16(fp)
  80363c:	10802bc3 	ldbu	r2,175(r2)
  803640:	10803fcc 	andi	r2,r2,255
  803644:	1080201c 	xori	r2,r2,128
  803648:	10bfe004 	addi	r2,r2,-128
  80364c:	10000c1e 	bne	r2,zero,803680 <logic+0x2ee4>
  803650:	e0bffc17 	ldw	r2,-16(fp)
  803654:	10802d03 	ldbu	r2,180(r2)
  803658:	10803fcc 	andi	r2,r2,255
  80365c:	1080201c 	xori	r2,r2,128
  803660:	10bfe004 	addi	r2,r2,-128
  803664:	1000061e 	bne	r2,zero,803680 <logic+0x2ee4>
  803668:	e0bffc17 	ldw	r2,-16(fp)
  80366c:	10802f03 	ldbu	r2,188(r2)
  803670:	10803fcc 	andi	r2,r2,255
  803674:	1080201c 	xori	r2,r2,128
  803678:	10bfe004 	addi	r2,r2,-128
  80367c:	10000226 	beq	r2,zero,803688 <logic+0x2eec>
  803680:	00800044 	movi	r2,1
  803684:	00000106 	br	80368c <logic+0x2ef0>
  803688:	0005883a 	mov	r2,zero
  80368c:	1007883a 	mov	r3,r2
  803690:	e0bffc17 	ldw	r2,-16(fp)
  803694:	10c02e45 	stb	r3,185(r2)
  d->_cg100 = d->_heart2_local__Atrig6;
  803698:	e0bffc17 	ldw	r2,-16(fp)
  80369c:	10c01bc3 	ldbu	r3,111(r2)
  8036a0:	e0bffc17 	ldw	r2,-16(fp)
  8036a4:	10c04f05 	stb	r3,316(r2)
  d->_g81_e1 = d->_g96 && !d->_cg100;
  8036a8:	e0bffc17 	ldw	r2,-16(fp)
  8036ac:	10802e43 	ldbu	r2,185(r2)
  8036b0:	10803fcc 	andi	r2,r2,255
  8036b4:	1080201c 	xori	r2,r2,128
  8036b8:	10bfe004 	addi	r2,r2,-128
  8036bc:	10000826 	beq	r2,zero,8036e0 <logic+0x2f44>
  8036c0:	e0bffc17 	ldw	r2,-16(fp)
  8036c4:	10804f03 	ldbu	r2,316(r2)
  8036c8:	10803fcc 	andi	r2,r2,255
  8036cc:	1080201c 	xori	r2,r2,128
  8036d0:	10bfe004 	addi	r2,r2,-128
  8036d4:	1000021e 	bne	r2,zero,8036e0 <logic+0x2f44>
  8036d8:	00800044 	movi	r2,1
  8036dc:	00000106 	br	8036e4 <logic+0x2f48>
  8036e0:	0005883a 	mov	r2,zero
  8036e4:	1007883a 	mov	r3,r2
  8036e8:	e0bffc17 	ldw	r2,-16(fp)
  8036ec:	10c05e85 	stb	r3,378(r2)
  if (d->_g81_e1) {
  8036f0:	e0bffc17 	ldw	r2,-16(fp)
  8036f4:	10805e83 	ldbu	r2,378(r2)
  8036f8:	10803fcc 	andi	r2,r2,255
  8036fc:	1080201c 	xori	r2,r2,128
  803700:	10bfe004 	addi	r2,r2,-128
  803704:	10000626 	beq	r2,zero,803720 <logic+0x2f84>
    d->VR |= 1;
  803708:	e0bffc17 	ldw	r2,-16(fp)
  80370c:	10801803 	ldbu	r2,96(r2)
  803710:	10800054 	ori	r2,r2,1
  803714:	1007883a 	mov	r3,r2
  803718:	e0bffc17 	ldw	r2,-16(fp)
  80371c:	10c01805 	stb	r3,96(r2)
  }
  d->_g97 = d->_GO || d->_g109 || d->_g81_e1;
  803720:	e0bffc17 	ldw	r2,-16(fp)
  803724:	10804543 	ldbu	r2,277(r2)
  803728:	10803fcc 	andi	r2,r2,255
  80372c:	1080201c 	xori	r2,r2,128
  803730:	10bfe004 	addi	r2,r2,-128
  803734:	10000c1e 	bne	r2,zero,803768 <logic+0x2fcc>
  803738:	e0bffc17 	ldw	r2,-16(fp)
  80373c:	10803083 	ldbu	r2,194(r2)
  803740:	10803fcc 	andi	r2,r2,255
  803744:	1080201c 	xori	r2,r2,128
  803748:	10bfe004 	addi	r2,r2,-128
  80374c:	1000061e 	bne	r2,zero,803768 <logic+0x2fcc>
  803750:	e0bffc17 	ldw	r2,-16(fp)
  803754:	10805e83 	ldbu	r2,378(r2)
  803758:	10803fcc 	andi	r2,r2,255
  80375c:	1080201c 	xori	r2,r2,128
  803760:	10bfe004 	addi	r2,r2,-128
  803764:	10000226 	beq	r2,zero,803770 <logic+0x2fd4>
  803768:	00800044 	movi	r2,1
  80376c:	00000106 	br	803774 <logic+0x2fd8>
  803770:	0005883a 	mov	r2,zero
  803774:	1007883a 	mov	r3,r2
  803778:	e0bffc17 	ldw	r2,-16(fp)
  80377c:	10c02e85 	stb	r3,186(r2)
  if (d->_g97) {
  803780:	e0bffc17 	ldw	r2,-16(fp)
  803784:	10802e83 	ldbu	r2,186(r2)
  803788:	10803fcc 	andi	r2,r2,255
  80378c:	1080201c 	xori	r2,r2,128
  803790:	10bfe004 	addi	r2,r2,-128
  803794:	10000426 	beq	r2,zero,8037a8 <logic+0x300c>
    d->_heart2_local__Atrig6 = 0;
  803798:	e0bffc17 	ldw	r2,-16(fp)
  80379c:	10001bc5 	stb	zero,111(r2)
    d->_heart2_local__Atrig7 = 0;
  8037a0:	e0bffc17 	ldw	r2,-16(fp)
  8037a4:	10001c05 	stb	zero,112(r2)
  }
  d->_cg78 = d->_heart2_local__Atrig6 || d->_heart2_local__Atrig7;
  8037a8:	e0bffc17 	ldw	r2,-16(fp)
  8037ac:	10801bc3 	ldbu	r2,111(r2)
  8037b0:	10803fcc 	andi	r2,r2,255
  8037b4:	1080201c 	xori	r2,r2,128
  8037b8:	10bfe004 	addi	r2,r2,-128
  8037bc:	1000061e 	bne	r2,zero,8037d8 <logic+0x303c>
  8037c0:	e0bffc17 	ldw	r2,-16(fp)
  8037c4:	10801c03 	ldbu	r2,112(r2)
  8037c8:	10803fcc 	andi	r2,r2,255
  8037cc:	1080201c 	xori	r2,r2,128
  8037d0:	10bfe004 	addi	r2,r2,-128
  8037d4:	10000226 	beq	r2,zero,8037e0 <logic+0x3044>
  8037d8:	00800044 	movi	r2,1
  8037dc:	00000106 	br	8037e4 <logic+0x3048>
  8037e0:	0005883a 	mov	r2,zero
  8037e4:	1007883a 	mov	r3,r2
  8037e8:	e0bffc17 	ldw	r2,-16(fp)
  8037ec:	10c04c85 	stb	r3,306(r2)
  d->_g88 = d->_g97 && !d->_cg78 || d->_g105_e1 && !d->_cg80;
  8037f0:	e0bffc17 	ldw	r2,-16(fp)
  8037f4:	10802e83 	ldbu	r2,186(r2)
  8037f8:	10803fcc 	andi	r2,r2,255
  8037fc:	1080201c 	xori	r2,r2,128
  803800:	10bfe004 	addi	r2,r2,-128
  803804:	10000626 	beq	r2,zero,803820 <logic+0x3084>
  803808:	e0bffc17 	ldw	r2,-16(fp)
  80380c:	10804c83 	ldbu	r2,306(r2)
  803810:	10803fcc 	andi	r2,r2,255
  803814:	1080201c 	xori	r2,r2,128
  803818:	10bfe004 	addi	r2,r2,-128
  80381c:	10000c26 	beq	r2,zero,803850 <logic+0x30b4>
  803820:	e0bffc17 	ldw	r2,-16(fp)
  803824:	10805f43 	ldbu	r2,381(r2)
  803828:	10803fcc 	andi	r2,r2,255
  80382c:	1080201c 	xori	r2,r2,128
  803830:	10bfe004 	addi	r2,r2,-128
  803834:	10000826 	beq	r2,zero,803858 <logic+0x30bc>
  803838:	e0bffc17 	ldw	r2,-16(fp)
  80383c:	10804cc3 	ldbu	r2,307(r2)
  803840:	10803fcc 	andi	r2,r2,255
  803844:	1080201c 	xori	r2,r2,128
  803848:	10bfe004 	addi	r2,r2,-128
  80384c:	1000021e 	bne	r2,zero,803858 <logic+0x30bc>
  803850:	00800044 	movi	r2,1
  803854:	00000106 	br	80385c <logic+0x30c0>
  803858:	0005883a 	mov	r2,zero
  80385c:	1007883a 	mov	r3,r2
  803860:	e0bffc17 	ldw	r2,-16(fp)
  803864:	10c02d05 	stb	r3,180(r2)
  d->_cg82 = d->_region2_null_VRP < d->VRP_time;
  803868:	e0bffc17 	ldw	r2,-16(fp)
  80386c:	14000b17 	ldw	r16,44(r2)
  803870:	14400c17 	ldw	r17,48(r2)
  803874:	e0bffc17 	ldw	r2,-16(fp)
  803878:	10800017 	ldw	r2,0(r2)
  80387c:	1009883a 	mov	r4,r2
  803880:	0808ba00 	call	808ba0 <__floatsidf>
  803884:	1009883a 	mov	r4,r2
  803888:	180b883a 	mov	r5,r3
  80388c:	04800044 	movi	r18,1
  803890:	200d883a 	mov	r6,r4
  803894:	280f883a 	mov	r7,r5
  803898:	8009883a 	mov	r4,r16
  80389c:	880b883a 	mov	r5,r17
  8038a0:	08081b00 	call	8081b0 <__ledf2>
  8038a4:	10000116 	blt	r2,zero,8038ac <logic+0x3110>
  8038a8:	0025883a 	mov	r18,zero
  8038ac:	9007883a 	mov	r3,r18
  8038b0:	e0bffc17 	ldw	r2,-16(fp)
  8038b4:	10c04d05 	stb	r3,308(r2)
  d->_g81 = d->_g97 && d->_cg82;
  8038b8:	e0bffc17 	ldw	r2,-16(fp)
  8038bc:	10802e83 	ldbu	r2,186(r2)
  8038c0:	10803fcc 	andi	r2,r2,255
  8038c4:	1080201c 	xori	r2,r2,128
  8038c8:	10bfe004 	addi	r2,r2,-128
  8038cc:	10000826 	beq	r2,zero,8038f0 <logic+0x3154>
  8038d0:	e0bffc17 	ldw	r2,-16(fp)
  8038d4:	10804d03 	ldbu	r2,308(r2)
  8038d8:	10803fcc 	andi	r2,r2,255
  8038dc:	1080201c 	xori	r2,r2,128
  8038e0:	10bfe004 	addi	r2,r2,-128
  8038e4:	10000226 	beq	r2,zero,8038f0 <logic+0x3154>
  8038e8:	00800044 	movi	r2,1
  8038ec:	00000106 	br	8038f4 <logic+0x3158>
  8038f0:	0005883a 	mov	r2,zero
  8038f4:	1007883a 	mov	r3,r2
  8038f8:	e0bffc17 	ldw	r2,-16(fp)
  8038fc:	10c02bc5 	stb	r3,175(r2)
  if (d->_g81) {
  803900:	e0bffc17 	ldw	r2,-16(fp)
  803904:	10802bc3 	ldbu	r2,175(r2)
  803908:	10803fcc 	andi	r2,r2,255
  80390c:	1080201c 	xori	r2,r2,128
  803910:	10bfe004 	addi	r2,r2,-128
  803914:	10003426 	beq	r2,zero,8039e8 <logic+0x324c>
    d->sleepT = (d->sleepT < (d->VRP_time - d->_region2_null_VRP)) ? d->sleepT : (d->VRP_time - d->_region2_null_VRP);
  803918:	e0bffc17 	ldw	r2,-16(fp)
  80391c:	14001517 	ldw	r16,84(r2)
  803920:	14401617 	ldw	r17,88(r2)
  803924:	e0bffc17 	ldw	r2,-16(fp)
  803928:	10800017 	ldw	r2,0(r2)
  80392c:	1009883a 	mov	r4,r2
  803930:	0808ba00 	call	808ba0 <__floatsidf>
  803934:	1011883a 	mov	r8,r2
  803938:	1813883a 	mov	r9,r3
  80393c:	e13ffc17 	ldw	r4,-16(fp)
  803940:	20800b17 	ldw	r2,44(r4)
  803944:	20c00c17 	ldw	r3,48(r4)
  803948:	100d883a 	mov	r6,r2
  80394c:	180f883a 	mov	r7,r3
  803950:	4009883a 	mov	r4,r8
  803954:	480b883a 	mov	r5,r9
  803958:	08082a40 	call	8082a4 <__subdf3>
  80395c:	1009883a 	mov	r4,r2
  803960:	180b883a 	mov	r5,r3
  803964:	2005883a 	mov	r2,r4
  803968:	2807883a 	mov	r3,r5
  80396c:	100d883a 	mov	r6,r2
  803970:	180f883a 	mov	r7,r3
  803974:	8009883a 	mov	r4,r16
  803978:	880b883a 	mov	r5,r17
  80397c:	08081b00 	call	8081b0 <__ledf2>
  803980:	1000040e 	bge	r2,zero,803994 <logic+0x31f8>
  803984:	e13ffc17 	ldw	r4,-16(fp)
  803988:	20801517 	ldw	r2,84(r4)
  80398c:	20c01617 	ldw	r3,88(r4)
  803990:	00001206 	br	8039dc <logic+0x3240>
  803994:	e0bffc17 	ldw	r2,-16(fp)
  803998:	10800017 	ldw	r2,0(r2)
  80399c:	1009883a 	mov	r4,r2
  8039a0:	0808ba00 	call	808ba0 <__floatsidf>
  8039a4:	1011883a 	mov	r8,r2
  8039a8:	1813883a 	mov	r9,r3
  8039ac:	e13ffc17 	ldw	r4,-16(fp)
  8039b0:	20800b17 	ldw	r2,44(r4)
  8039b4:	20c00c17 	ldw	r3,48(r4)
  8039b8:	100d883a 	mov	r6,r2
  8039bc:	180f883a 	mov	r7,r3
  8039c0:	4009883a 	mov	r4,r8
  8039c4:	480b883a 	mov	r5,r9
  8039c8:	08082a40 	call	8082a4 <__subdf3>
  8039cc:	1009883a 	mov	r4,r2
  8039d0:	180b883a 	mov	r5,r3
  8039d4:	2005883a 	mov	r2,r4
  8039d8:	2807883a 	mov	r3,r5
  8039dc:	e13ffc17 	ldw	r4,-16(fp)
  8039e0:	20801515 	stw	r2,84(r4)
  8039e4:	20c01615 	stw	r3,88(r4)
  }
  d->_cg83 = d->_heart2_local__Atrig6 || d->_heart2_local__Atrig7;
  8039e8:	e0bffc17 	ldw	r2,-16(fp)
  8039ec:	10801bc3 	ldbu	r2,111(r2)
  8039f0:	10803fcc 	andi	r2,r2,255
  8039f4:	1080201c 	xori	r2,r2,128
  8039f8:	10bfe004 	addi	r2,r2,-128
  8039fc:	1000061e 	bne	r2,zero,803a18 <logic+0x327c>
  803a00:	e0bffc17 	ldw	r2,-16(fp)
  803a04:	10801c03 	ldbu	r2,112(r2)
  803a08:	10803fcc 	andi	r2,r2,255
  803a0c:	1080201c 	xori	r2,r2,128
  803a10:	10bfe004 	addi	r2,r2,-128
  803a14:	10000226 	beq	r2,zero,803a20 <logic+0x3284>
  803a18:	00800044 	movi	r2,1
  803a1c:	00000106 	br	803a24 <logic+0x3288>
  803a20:	0005883a 	mov	r2,zero
  803a24:	1007883a 	mov	r3,r2
  803a28:	e0bffc17 	ldw	r2,-16(fp)
  803a2c:	10c04d45 	stb	r3,309(r2)
  d->_g97_e3 = d->_g81 && !d->_cg83 || d->_g85 && !d->_cg87;
  803a30:	e0bffc17 	ldw	r2,-16(fp)
  803a34:	10802bc3 	ldbu	r2,175(r2)
  803a38:	10803fcc 	andi	r2,r2,255
  803a3c:	1080201c 	xori	r2,r2,128
  803a40:	10bfe004 	addi	r2,r2,-128
  803a44:	10000626 	beq	r2,zero,803a60 <logic+0x32c4>
  803a48:	e0bffc17 	ldw	r2,-16(fp)
  803a4c:	10804d43 	ldbu	r2,309(r2)
  803a50:	10803fcc 	andi	r2,r2,255
  803a54:	1080201c 	xori	r2,r2,128
  803a58:	10bfe004 	addi	r2,r2,-128
  803a5c:	10000c26 	beq	r2,zero,803a90 <logic+0x32f4>
  803a60:	e0bffc17 	ldw	r2,-16(fp)
  803a64:	10802c43 	ldbu	r2,177(r2)
  803a68:	10803fcc 	andi	r2,r2,255
  803a6c:	1080201c 	xori	r2,r2,128
  803a70:	10bfe004 	addi	r2,r2,-128
  803a74:	10000826 	beq	r2,zero,803a98 <logic+0x32fc>
  803a78:	e0bffc17 	ldw	r2,-16(fp)
  803a7c:	10804d83 	ldbu	r2,310(r2)
  803a80:	10803fcc 	andi	r2,r2,255
  803a84:	1080201c 	xori	r2,r2,128
  803a88:	10bfe004 	addi	r2,r2,-128
  803a8c:	1000021e 	bne	r2,zero,803a98 <logic+0x32fc>
  803a90:	00800044 	movi	r2,1
  803a94:	00000106 	br	803a9c <logic+0x3300>
  803a98:	0005883a 	mov	r2,zero
  803a9c:	1007883a 	mov	r3,r2
  803aa0:	e0bffc17 	ldw	r2,-16(fp)
  803aa4:	10c05f05 	stb	r3,380(r2)
  d->_g88_e2 = d->_g97 && !d->_cg82;
  803aa8:	e0bffc17 	ldw	r2,-16(fp)
  803aac:	10802e83 	ldbu	r2,186(r2)
  803ab0:	10803fcc 	andi	r2,r2,255
  803ab4:	1080201c 	xori	r2,r2,128
  803ab8:	10bfe004 	addi	r2,r2,-128
  803abc:	10000826 	beq	r2,zero,803ae0 <logic+0x3344>
  803ac0:	e0bffc17 	ldw	r2,-16(fp)
  803ac4:	10804d03 	ldbu	r2,308(r2)
  803ac8:	10803fcc 	andi	r2,r2,255
  803acc:	1080201c 	xori	r2,r2,128
  803ad0:	10bfe004 	addi	r2,r2,-128
  803ad4:	1000021e 	bne	r2,zero,803ae0 <logic+0x3344>
  803ad8:	00800044 	movi	r2,1
  803adc:	00000106 	br	803ae4 <logic+0x3348>
  803ae0:	0005883a 	mov	r2,zero
  803ae4:	1007883a 	mov	r3,r2
  803ae8:	e0bffc17 	ldw	r2,-16(fp)
  803aec:	10c05ec5 	stb	r3,379(r2)
  d->_cg92 = d->_heart2_local__Atrig6 || d->_heart2_local__Atrig7;
  803af0:	e0bffc17 	ldw	r2,-16(fp)
  803af4:	10801bc3 	ldbu	r2,111(r2)
  803af8:	10803fcc 	andi	r2,r2,255
  803afc:	1080201c 	xori	r2,r2,128
  803b00:	10bfe004 	addi	r2,r2,-128
  803b04:	1000061e 	bne	r2,zero,803b20 <logic+0x3384>
  803b08:	e0bffc17 	ldw	r2,-16(fp)
  803b0c:	10801c03 	ldbu	r2,112(r2)
  803b10:	10803fcc 	andi	r2,r2,255
  803b14:	1080201c 	xori	r2,r2,128
  803b18:	10bfe004 	addi	r2,r2,-128
  803b1c:	10000226 	beq	r2,zero,803b28 <logic+0x338c>
  803b20:	00800044 	movi	r2,1
  803b24:	00000106 	br	803b2c <logic+0x3390>
  803b28:	0005883a 	mov	r2,zero
  803b2c:	1007883a 	mov	r3,r2
  803b30:	e0bffc17 	ldw	r2,-16(fp)
  803b34:	10c04e45 	stb	r3,313(r2)
  d->_g116 = d->_g86 && !d->_cg89 || d->_g88_e2 && !d->_cg92;
  803b38:	e0bffc17 	ldw	r2,-16(fp)
  803b3c:	10802c83 	ldbu	r2,178(r2)
  803b40:	10803fcc 	andi	r2,r2,255
  803b44:	1080201c 	xori	r2,r2,128
  803b48:	10bfe004 	addi	r2,r2,-128
  803b4c:	10000626 	beq	r2,zero,803b68 <logic+0x33cc>
  803b50:	e0bffc17 	ldw	r2,-16(fp)
  803b54:	10804e03 	ldbu	r2,312(r2)
  803b58:	10803fcc 	andi	r2,r2,255
  803b5c:	1080201c 	xori	r2,r2,128
  803b60:	10bfe004 	addi	r2,r2,-128
  803b64:	10000c26 	beq	r2,zero,803b98 <logic+0x33fc>
  803b68:	e0bffc17 	ldw	r2,-16(fp)
  803b6c:	10805ec3 	ldbu	r2,379(r2)
  803b70:	10803fcc 	andi	r2,r2,255
  803b74:	1080201c 	xori	r2,r2,128
  803b78:	10bfe004 	addi	r2,r2,-128
  803b7c:	10000826 	beq	r2,zero,803ba0 <logic+0x3404>
  803b80:	e0bffc17 	ldw	r2,-16(fp)
  803b84:	10804e43 	ldbu	r2,313(r2)
  803b88:	10803fcc 	andi	r2,r2,255
  803b8c:	1080201c 	xori	r2,r2,128
  803b90:	10bfe004 	addi	r2,r2,-128
  803b94:	1000021e 	bne	r2,zero,803ba0 <logic+0x3404>
  803b98:	00800044 	movi	r2,1
  803b9c:	00000106 	br	803ba4 <logic+0x3408>
  803ba0:	0005883a 	mov	r2,zero
  803ba4:	1007883a 	mov	r3,r2
  803ba8:	e0bffc17 	ldw	r2,-16(fp)
  803bac:	10c03245 	stb	r3,201(r2)
  d->_g114 = d->_g97 || d->_g98 && !d->VS;
  803bb0:	e0bffc17 	ldw	r2,-16(fp)
  803bb4:	10802e83 	ldbu	r2,186(r2)
  803bb8:	10803fcc 	andi	r2,r2,255
  803bbc:	1080201c 	xori	r2,r2,128
  803bc0:	10bfe004 	addi	r2,r2,-128
  803bc4:	10000c1e 	bne	r2,zero,803bf8 <logic+0x345c>
  803bc8:	e0bffc17 	ldw	r2,-16(fp)
  803bcc:	10802ec3 	ldbu	r2,187(r2)
  803bd0:	10803fcc 	andi	r2,r2,255
  803bd4:	1080201c 	xori	r2,r2,128
  803bd8:	10bfe004 	addi	r2,r2,-128
  803bdc:	10000826 	beq	r2,zero,803c00 <logic+0x3464>
  803be0:	e0bffc17 	ldw	r2,-16(fp)
  803be4:	10801743 	ldbu	r2,93(r2)
  803be8:	10803fcc 	andi	r2,r2,255
  803bec:	1080201c 	xori	r2,r2,128
  803bf0:	10bfe004 	addi	r2,r2,-128
  803bf4:	1000021e 	bne	r2,zero,803c00 <logic+0x3464>
  803bf8:	00800044 	movi	r2,1
  803bfc:	00000106 	br	803c04 <logic+0x3468>
  803c00:	0005883a 	mov	r2,zero
  803c04:	1007883a 	mov	r3,r2
  803c08:	e0bffc17 	ldw	r2,-16(fp)
  803c0c:	10c031c5 	stb	r3,199(r2)
  d->_g80 = d->_g112 && !d->_cg113;
  803c10:	e0bffc17 	ldw	r2,-16(fp)
  803c14:	10803143 	ldbu	r2,197(r2)
  803c18:	10803fcc 	andi	r2,r2,255
  803c1c:	1080201c 	xori	r2,r2,128
  803c20:	10bfe004 	addi	r2,r2,-128
  803c24:	10000826 	beq	r2,zero,803c48 <logic+0x34ac>
  803c28:	e0bffc17 	ldw	r2,-16(fp)
  803c2c:	10805043 	ldbu	r2,321(r2)
  803c30:	10803fcc 	andi	r2,r2,255
  803c34:	1080201c 	xori	r2,r2,128
  803c38:	10bfe004 	addi	r2,r2,-128
  803c3c:	1000021e 	bne	r2,zero,803c48 <logic+0x34ac>
  803c40:	00800044 	movi	r2,1
  803c44:	00000106 	br	803c4c <logic+0x34b0>
  803c48:	0005883a 	mov	r2,zero
  803c4c:	1007883a 	mov	r3,r2
  803c50:	e0bffc17 	ldw	r2,-16(fp)
  803c54:	10c02b85 	stb	r3,174(r2)
  if (d->_g80) {
  803c58:	e0bffc17 	ldw	r2,-16(fp)
  803c5c:	10802b83 	ldbu	r2,174(r2)
  803c60:	10803fcc 	andi	r2,r2,255
  803c64:	1080201c 	xori	r2,r2,128
  803c68:	10bfe004 	addi	r2,r2,-128
  803c6c:	10000626 	beq	r2,zero,803c88 <logic+0x34ec>
    d->VS_i |= 1;
  803c70:	e0bffc17 	ldw	r2,-16(fp)
  803c74:	10801903 	ldbu	r2,100(r2)
  803c78:	10800054 	ori	r2,r2,1
  803c7c:	1007883a 	mov	r3,r2
  803c80:	e0bffc17 	ldw	r2,-16(fp)
  803c84:	10c01905 	stb	r3,100(r2)
  }
  d->_g87 = d->_g96 && d->_cg100 || d->_g80;
  803c88:	e0bffc17 	ldw	r2,-16(fp)
  803c8c:	10802e43 	ldbu	r2,185(r2)
  803c90:	10803fcc 	andi	r2,r2,255
  803c94:	1080201c 	xori	r2,r2,128
  803c98:	10bfe004 	addi	r2,r2,-128
  803c9c:	10000626 	beq	r2,zero,803cb8 <logic+0x351c>
  803ca0:	e0bffc17 	ldw	r2,-16(fp)
  803ca4:	10804f03 	ldbu	r2,316(r2)
  803ca8:	10803fcc 	andi	r2,r2,255
  803cac:	1080201c 	xori	r2,r2,128
  803cb0:	10bfe004 	addi	r2,r2,-128
  803cb4:	1000061e 	bne	r2,zero,803cd0 <logic+0x3534>
  803cb8:	e0bffc17 	ldw	r2,-16(fp)
  803cbc:	10802b83 	ldbu	r2,174(r2)
  803cc0:	10803fcc 	andi	r2,r2,255
  803cc4:	1080201c 	xori	r2,r2,128
  803cc8:	10bfe004 	addi	r2,r2,-128
  803ccc:	10000226 	beq	r2,zero,803cd8 <logic+0x353c>
  803cd0:	00800044 	movi	r2,1
  803cd4:	00000106 	br	803cdc <logic+0x3540>
  803cd8:	0005883a 	mov	r2,zero
  803cdc:	1007883a 	mov	r3,r2
  803ce0:	e0bffc17 	ldw	r2,-16(fp)
  803ce4:	10c02cc5 	stb	r3,179(r2)
  if (d->_g87) {
  803ce8:	e0bffc17 	ldw	r2,-16(fp)
  803cec:	10802cc3 	ldbu	r2,179(r2)
  803cf0:	10803fcc 	andi	r2,r2,255
  803cf4:	1080201c 	xori	r2,r2,128
  803cf8:	10bfe004 	addi	r2,r2,-128
  803cfc:	10000426 	beq	r2,zero,803d10 <logic+0x3574>
    d->_heart2_local__Atrig8 = 0;
  803d00:	e0bffc17 	ldw	r2,-16(fp)
  803d04:	10001c45 	stb	zero,113(r2)
    d->_heart2_local__Atrig9 = 0;
  803d08:	e0bffc17 	ldw	r2,-16(fp)
  803d0c:	10001c85 	stb	zero,114(r2)
  }
  d->_cg102 = d->_heart2_local__Atrig8 || d->_heart2_local__Atrig9;
  803d10:	e0bffc17 	ldw	r2,-16(fp)
  803d14:	10801c43 	ldbu	r2,113(r2)
  803d18:	10803fcc 	andi	r2,r2,255
  803d1c:	1080201c 	xori	r2,r2,128
  803d20:	10bfe004 	addi	r2,r2,-128
  803d24:	1000061e 	bne	r2,zero,803d40 <logic+0x35a4>
  803d28:	e0bffc17 	ldw	r2,-16(fp)
  803d2c:	10801c83 	ldbu	r2,114(r2)
  803d30:	10803fcc 	andi	r2,r2,255
  803d34:	1080201c 	xori	r2,r2,128
  803d38:	10bfe004 	addi	r2,r2,-128
  803d3c:	10000226 	beq	r2,zero,803d48 <logic+0x35ac>
  803d40:	00800044 	movi	r2,1
  803d44:	00000106 	br	803d4c <logic+0x35b0>
  803d48:	0005883a 	mov	r2,zero
  803d4c:	1007883a 	mov	r3,r2
  803d50:	e0bffc17 	ldw	r2,-16(fp)
  803d54:	10c04f45 	stb	r3,317(r2)
  d->_g83 = d->_g87 && !d->_cg102 || d->_g55 && !d->_cg104;
  803d58:	e0bffc17 	ldw	r2,-16(fp)
  803d5c:	10802cc3 	ldbu	r2,179(r2)
  803d60:	10803fcc 	andi	r2,r2,255
  803d64:	1080201c 	xori	r2,r2,128
  803d68:	10bfe004 	addi	r2,r2,-128
  803d6c:	10000626 	beq	r2,zero,803d88 <logic+0x35ec>
  803d70:	e0bffc17 	ldw	r2,-16(fp)
  803d74:	10804f43 	ldbu	r2,317(r2)
  803d78:	10803fcc 	andi	r2,r2,255
  803d7c:	1080201c 	xori	r2,r2,128
  803d80:	10bfe004 	addi	r2,r2,-128
  803d84:	10000c26 	beq	r2,zero,803db8 <logic+0x361c>
  803d88:	e0bffc17 	ldw	r2,-16(fp)
  803d8c:	108027c3 	ldbu	r2,159(r2)
  803d90:	10803fcc 	andi	r2,r2,255
  803d94:	1080201c 	xori	r2,r2,128
  803d98:	10bfe004 	addi	r2,r2,-128
  803d9c:	10000826 	beq	r2,zero,803dc0 <logic+0x3624>
  803da0:	e0bffc17 	ldw	r2,-16(fp)
  803da4:	10804f83 	ldbu	r2,318(r2)
  803da8:	10803fcc 	andi	r2,r2,255
  803dac:	1080201c 	xori	r2,r2,128
  803db0:	10bfe004 	addi	r2,r2,-128
  803db4:	1000021e 	bne	r2,zero,803dc0 <logic+0x3624>
  803db8:	00800044 	movi	r2,1
  803dbc:	00000106 	br	803dc4 <logic+0x3628>
  803dc0:	0005883a 	mov	r2,zero
  803dc4:	1007883a 	mov	r3,r2
  803dc8:	e0bffc17 	ldw	r2,-16(fp)
  803dcc:	10c02c05 	stb	r3,176(r2)
  d->_g89 = d->_g87 || d->_g63 && !d->VS;
  803dd0:	e0bffc17 	ldw	r2,-16(fp)
  803dd4:	10802cc3 	ldbu	r2,179(r2)
  803dd8:	10803fcc 	andi	r2,r2,255
  803ddc:	1080201c 	xori	r2,r2,128
  803de0:	10bfe004 	addi	r2,r2,-128
  803de4:	10000c1e 	bne	r2,zero,803e18 <logic+0x367c>
  803de8:	e0bffc17 	ldw	r2,-16(fp)
  803dec:	10802943 	ldbu	r2,165(r2)
  803df0:	10803fcc 	andi	r2,r2,255
  803df4:	1080201c 	xori	r2,r2,128
  803df8:	10bfe004 	addi	r2,r2,-128
  803dfc:	10000826 	beq	r2,zero,803e20 <logic+0x3684>
  803e00:	e0bffc17 	ldw	r2,-16(fp)
  803e04:	10801743 	ldbu	r2,93(r2)
  803e08:	10803fcc 	andi	r2,r2,255
  803e0c:	1080201c 	xori	r2,r2,128
  803e10:	10bfe004 	addi	r2,r2,-128
  803e14:	1000021e 	bne	r2,zero,803e20 <logic+0x3684>
  803e18:	00800044 	movi	r2,1
  803e1c:	00000106 	br	803e24 <logic+0x3688>
  803e20:	0005883a 	mov	r2,zero
  803e24:	1007883a 	mov	r3,r2
  803e28:	e0bffc17 	ldw	r2,-16(fp)
  803e2c:	10c02d45 	stb	r3,181(r2)
  d->_g92 = d->_pg129;
  803e30:	e0bffc17 	ldw	r2,-16(fp)
  803e34:	10c06883 	ldbu	r3,418(r2)
  803e38:	e0bffc17 	ldw	r2,-16(fp)
  803e3c:	10c02dc5 	stb	r3,183(r2)
  if (d->_g92) {
  803e40:	e0bffc17 	ldw	r2,-16(fp)
  803e44:	10802dc3 	ldbu	r2,183(r2)
  803e48:	10803fcc 	andi	r2,r2,255
  803e4c:	1080201c 	xori	r2,r2,128
  803e50:	10bfe004 	addi	r2,r2,-128
  803e54:	10001226 	beq	r2,zero,803ea0 <logic+0x3704>
    d->_region3_null_PVARP += d->deltaT;
  803e58:	e13ffc17 	ldw	r4,-16(fp)
  803e5c:	20800d17 	ldw	r2,52(r4)
  803e60:	20c00e17 	ldw	r3,56(r4)
  803e64:	e1bffc17 	ldw	r6,-16(fp)
  803e68:	31001317 	ldw	r4,76(r6)
  803e6c:	31401417 	ldw	r5,80(r6)
  803e70:	200d883a 	mov	r6,r4
  803e74:	280f883a 	mov	r7,r5
  803e78:	1009883a 	mov	r4,r2
  803e7c:	180b883a 	mov	r5,r3
  803e80:	08078280 	call	807828 <__adddf3>
  803e84:	1009883a 	mov	r4,r2
  803e88:	180b883a 	mov	r5,r3
  803e8c:	2005883a 	mov	r2,r4
  803e90:	2807883a 	mov	r3,r5
  803e94:	e13ffc17 	ldw	r4,-16(fp)
  803e98:	20800d15 	stw	r2,52(r4)
  803e9c:	20c00e15 	stw	r3,56(r4)
  }
  d->_g77 = !d->_g92;
  803ea0:	e0bffc17 	ldw	r2,-16(fp)
  803ea4:	10802dc3 	ldbu	r2,183(r2)
  803ea8:	10803fcc 	andi	r2,r2,255
  803eac:	1080201c 	xori	r2,r2,128
  803eb0:	10bfe004 	addi	r2,r2,-128
  803eb4:	1005003a 	cmpeq	r2,r2,zero
  803eb8:	1007883a 	mov	r3,r2
  803ebc:	e0bffc17 	ldw	r2,-16(fp)
  803ec0:	10c02b45 	stb	r3,173(r2)
  d->_g98 = d->_pg134;
  803ec4:	e0bffc17 	ldw	r2,-16(fp)
  803ec8:	10c068c3 	ldbu	r3,419(r2)
  803ecc:	e0bffc17 	ldw	r2,-16(fp)
  803ed0:	10c02ec5 	stb	r3,187(r2)
  d->_cg150 = d->v;
  803ed4:	e0bffc17 	ldw	r2,-16(fp)
  803ed8:	10c018c3 	ldbu	r3,99(r2)
  803edc:	e0bffc17 	ldw	r2,-16(fp)
  803ee0:	10c05405 	stb	r3,336(r2)
  d->_g113 = d->_g98 && d->_cg150;
  803ee4:	e0bffc17 	ldw	r2,-16(fp)
  803ee8:	10802ec3 	ldbu	r2,187(r2)
  803eec:	10803fcc 	andi	r2,r2,255
  803ef0:	1080201c 	xori	r2,r2,128
  803ef4:	10bfe004 	addi	r2,r2,-128
  803ef8:	10000826 	beq	r2,zero,803f1c <logic+0x3780>
  803efc:	e0bffc17 	ldw	r2,-16(fp)
  803f00:	10805403 	ldbu	r2,336(r2)
  803f04:	10803fcc 	andi	r2,r2,255
  803f08:	1080201c 	xori	r2,r2,128
  803f0c:	10bfe004 	addi	r2,r2,-128
  803f10:	10000226 	beq	r2,zero,803f1c <logic+0x3780>
  803f14:	00800044 	movi	r2,1
  803f18:	00000106 	br	803f20 <logic+0x3784>
  803f1c:	0005883a 	mov	r2,zero
  803f20:	1007883a 	mov	r3,r2
  803f24:	e0bffc17 	ldw	r2,-16(fp)
  803f28:	10c03185 	stb	r3,198(r2)
  if (d->_g113) {
  803f2c:	e0bffc17 	ldw	r2,-16(fp)
  803f30:	10803183 	ldbu	r2,198(r2)
  803f34:	10803fcc 	andi	r2,r2,255
  803f38:	1080201c 	xori	r2,r2,128
  803f3c:	10bfe004 	addi	r2,r2,-128
  803f40:	10000326 	beq	r2,zero,803f50 <logic+0x37b4>
    d->_heart2_local__Atrig12 = 1;
  803f44:	e0bffc17 	ldw	r2,-16(fp)
  803f48:	00c00044 	movi	r3,1
  803f4c:	10c01d45 	stb	r3,117(r2)
  }
  d->_g115 = d->_g98 && !d->_cg150;
  803f50:	e0bffc17 	ldw	r2,-16(fp)
  803f54:	10802ec3 	ldbu	r2,187(r2)
  803f58:	10803fcc 	andi	r2,r2,255
  803f5c:	1080201c 	xori	r2,r2,128
  803f60:	10bfe004 	addi	r2,r2,-128
  803f64:	10000826 	beq	r2,zero,803f88 <logic+0x37ec>
  803f68:	e0bffc17 	ldw	r2,-16(fp)
  803f6c:	10805403 	ldbu	r2,336(r2)
  803f70:	10803fcc 	andi	r2,r2,255
  803f74:	1080201c 	xori	r2,r2,128
  803f78:	10bfe004 	addi	r2,r2,-128
  803f7c:	1000021e 	bne	r2,zero,803f88 <logic+0x37ec>
  803f80:	00800044 	movi	r2,1
  803f84:	00000106 	br	803f8c <logic+0x37f0>
  803f88:	0005883a 	mov	r2,zero
  803f8c:	1007883a 	mov	r3,r2
  803f90:	e0bffc17 	ldw	r2,-16(fp)
  803f94:	10c03205 	stb	r3,200(r2)
  d->_g100 = d->_g115 && d->AS;
  803f98:	e0bffc17 	ldw	r2,-16(fp)
  803f9c:	10803203 	ldbu	r2,200(r2)
  803fa0:	10803fcc 	andi	r2,r2,255
  803fa4:	1080201c 	xori	r2,r2,128
  803fa8:	10bfe004 	addi	r2,r2,-128
  803fac:	10000826 	beq	r2,zero,803fd0 <logic+0x3834>
  803fb0:	e0bffc17 	ldw	r2,-16(fp)
  803fb4:	10801703 	ldbu	r2,92(r2)
  803fb8:	10803fcc 	andi	r2,r2,255
  803fbc:	1080201c 	xori	r2,r2,128
  803fc0:	10bfe004 	addi	r2,r2,-128
  803fc4:	10000226 	beq	r2,zero,803fd0 <logic+0x3834>
  803fc8:	00800044 	movi	r2,1
  803fcc:	00000106 	br	803fd4 <logic+0x3838>
  803fd0:	0005883a 	mov	r2,zero
  803fd4:	1007883a 	mov	r3,r2
  803fd8:	e0bffc17 	ldw	r2,-16(fp)
  803fdc:	10c02f45 	stb	r3,189(r2)
  if (d->_g100) {
  803fe0:	e0bffc17 	ldw	r2,-16(fp)
  803fe4:	10802f43 	ldbu	r2,189(r2)
  803fe8:	10803fcc 	andi	r2,r2,255
  803fec:	1080201c 	xori	r2,r2,128
  803ff0:	10bfe004 	addi	r2,r2,-128
  803ff4:	10000326 	beq	r2,zero,804004 <logic+0x3868>
    d->_heart2_local__Atrig13 = 1;
  803ff8:	e0bffc17 	ldw	r2,-16(fp)
  803ffc:	00c00044 	movi	r3,1
  804000:	10c01d85 	stb	r3,118(r2)
  }
  d->_cg146 = d->_heart2_local__Atrig12 || d->_heart2_local__Atrig13;
  804004:	e0bffc17 	ldw	r2,-16(fp)
  804008:	10801d43 	ldbu	r2,117(r2)
  80400c:	10803fcc 	andi	r2,r2,255
  804010:	1080201c 	xori	r2,r2,128
  804014:	10bfe004 	addi	r2,r2,-128
  804018:	1000061e 	bne	r2,zero,804034 <logic+0x3898>
  80401c:	e0bffc17 	ldw	r2,-16(fp)
  804020:	10801d83 	ldbu	r2,118(r2)
  804024:	10803fcc 	andi	r2,r2,255
  804028:	1080201c 	xori	r2,r2,128
  80402c:	10bfe004 	addi	r2,r2,-128
  804030:	10000226 	beq	r2,zero,80403c <logic+0x38a0>
  804034:	00800044 	movi	r2,1
  804038:	00000106 	br	804040 <logic+0x38a4>
  80403c:	0005883a 	mov	r2,zero
  804040:	1007883a 	mov	r3,r2
  804044:	e0bffc17 	ldw	r2,-16(fp)
  804048:	10c05385 	stb	r3,334(r2)
  d->_g104 = d->_g92 && d->_cg146;
  80404c:	e0bffc17 	ldw	r2,-16(fp)
  804050:	10802dc3 	ldbu	r2,183(r2)
  804054:	10803fcc 	andi	r2,r2,255
  804058:	1080201c 	xori	r2,r2,128
  80405c:	10bfe004 	addi	r2,r2,-128
  804060:	10000826 	beq	r2,zero,804084 <logic+0x38e8>
  804064:	e0bffc17 	ldw	r2,-16(fp)
  804068:	10805383 	ldbu	r2,334(r2)
  80406c:	10803fcc 	andi	r2,r2,255
  804070:	1080201c 	xori	r2,r2,128
  804074:	10bfe004 	addi	r2,r2,-128
  804078:	10000226 	beq	r2,zero,804084 <logic+0x38e8>
  80407c:	00800044 	movi	r2,1
  804080:	00000106 	br	804088 <logic+0x38ec>
  804084:	0005883a 	mov	r2,zero
  804088:	1007883a 	mov	r3,r2
  80408c:	e0bffc17 	ldw	r2,-16(fp)
  804090:	10c02fc5 	stb	r3,191(r2)
  d->_g101 = !d->_g98;
  804094:	e0bffc17 	ldw	r2,-16(fp)
  804098:	10802ec3 	ldbu	r2,187(r2)
  80409c:	10803fcc 	andi	r2,r2,255
  8040a0:	1080201c 	xori	r2,r2,128
  8040a4:	10bfe004 	addi	r2,r2,-128
  8040a8:	1005003a 	cmpeq	r2,r2,zero
  8040ac:	1007883a 	mov	r3,r2
  8040b0:	e0bffc17 	ldw	r2,-16(fp)
  8040b4:	10c02f85 	stb	r3,190(r2)
  d->_g111 = d->_g113 || d->_g100;
  8040b8:	e0bffc17 	ldw	r2,-16(fp)
  8040bc:	10803183 	ldbu	r2,198(r2)
  8040c0:	10803fcc 	andi	r2,r2,255
  8040c4:	1080201c 	xori	r2,r2,128
  8040c8:	10bfe004 	addi	r2,r2,-128
  8040cc:	1000061e 	bne	r2,zero,8040e8 <logic+0x394c>
  8040d0:	e0bffc17 	ldw	r2,-16(fp)
  8040d4:	10802f43 	ldbu	r2,189(r2)
  8040d8:	10803fcc 	andi	r2,r2,255
  8040dc:	1080201c 	xori	r2,r2,128
  8040e0:	10bfe004 	addi	r2,r2,-128
  8040e4:	10000226 	beq	r2,zero,8040f0 <logic+0x3954>
  8040e8:	00800044 	movi	r2,1
  8040ec:	00000106 	br	8040f4 <logic+0x3958>
  8040f0:	0005883a 	mov	r2,zero
  8040f4:	1007883a 	mov	r3,r2
  8040f8:	e0bffc17 	ldw	r2,-16(fp)
  8040fc:	10c03105 	stb	r3,196(r2)
  d->_g150 = (d->_g77 || d->_g104) && (d->_g101 || d->_g111) && (d->_g104 || d->_g111);
  804100:	e0bffc17 	ldw	r2,-16(fp)
  804104:	10802b43 	ldbu	r2,173(r2)
  804108:	10803fcc 	andi	r2,r2,255
  80410c:	1080201c 	xori	r2,r2,128
  804110:	10bfe004 	addi	r2,r2,-128
  804114:	1000061e 	bne	r2,zero,804130 <logic+0x3994>
  804118:	e0bffc17 	ldw	r2,-16(fp)
  80411c:	10802fc3 	ldbu	r2,191(r2)
  804120:	10803fcc 	andi	r2,r2,255
  804124:	1080201c 	xori	r2,r2,128
  804128:	10bfe004 	addi	r2,r2,-128
  80412c:	10001a26 	beq	r2,zero,804198 <logic+0x39fc>
  804130:	e0bffc17 	ldw	r2,-16(fp)
  804134:	10802f83 	ldbu	r2,190(r2)
  804138:	10803fcc 	andi	r2,r2,255
  80413c:	1080201c 	xori	r2,r2,128
  804140:	10bfe004 	addi	r2,r2,-128
  804144:	1000061e 	bne	r2,zero,804160 <logic+0x39c4>
  804148:	e0bffc17 	ldw	r2,-16(fp)
  80414c:	10803103 	ldbu	r2,196(r2)
  804150:	10803fcc 	andi	r2,r2,255
  804154:	1080201c 	xori	r2,r2,128
  804158:	10bfe004 	addi	r2,r2,-128
  80415c:	10000e26 	beq	r2,zero,804198 <logic+0x39fc>
  804160:	e0bffc17 	ldw	r2,-16(fp)
  804164:	10802fc3 	ldbu	r2,191(r2)
  804168:	10803fcc 	andi	r2,r2,255
  80416c:	1080201c 	xori	r2,r2,128
  804170:	10bfe004 	addi	r2,r2,-128
  804174:	1000061e 	bne	r2,zero,804190 <logic+0x39f4>
  804178:	e0bffc17 	ldw	r2,-16(fp)
  80417c:	10803103 	ldbu	r2,196(r2)
  804180:	10803fcc 	andi	r2,r2,255
  804184:	1080201c 	xori	r2,r2,128
  804188:	10bfe004 	addi	r2,r2,-128
  80418c:	10000226 	beq	r2,zero,804198 <logic+0x39fc>
  804190:	00800044 	movi	r2,1
  804194:	00000106 	br	80419c <logic+0x3a00>
  804198:	0005883a 	mov	r2,zero
  80419c:	1007883a 	mov	r3,r2
  8041a0:	e0bffc17 	ldw	r2,-16(fp)
  8041a4:	10c03785 	stb	r3,222(r2)
  d->_cg155 = d->_heart2_local__Atrig12;
  8041a8:	e0bffc17 	ldw	r2,-16(fp)
  8041ac:	10c01d43 	ldbu	r3,117(r2)
  8041b0:	e0bffc17 	ldw	r2,-16(fp)
  8041b4:	10c05445 	stb	r3,337(r2)
  d->_g154 = d->_g150 && d->_cg155;
  8041b8:	e0bffc17 	ldw	r2,-16(fp)
  8041bc:	10803783 	ldbu	r2,222(r2)
  8041c0:	10803fcc 	andi	r2,r2,255
  8041c4:	1080201c 	xori	r2,r2,128
  8041c8:	10bfe004 	addi	r2,r2,-128
  8041cc:	10000826 	beq	r2,zero,8041f0 <logic+0x3a54>
  8041d0:	e0bffc17 	ldw	r2,-16(fp)
  8041d4:	10805443 	ldbu	r2,337(r2)
  8041d8:	10803fcc 	andi	r2,r2,255
  8041dc:	1080201c 	xori	r2,r2,128
  8041e0:	10bfe004 	addi	r2,r2,-128
  8041e4:	10000226 	beq	r2,zero,8041f0 <logic+0x3a54>
  8041e8:	00800044 	movi	r2,1
  8041ec:	00000106 	br	8041f4 <logic+0x3a58>
  8041f0:	0005883a 	mov	r2,zero
  8041f4:	1007883a 	mov	r3,r2
  8041f8:	e0bffc17 	ldw	r2,-16(fp)
  8041fc:	10c03885 	stb	r3,226(r2)
  if (d->_g154) {
  804200:	e0bffc17 	ldw	r2,-16(fp)
  804204:	10803883 	ldbu	r2,226(r2)
  804208:	10803fcc 	andi	r2,r2,255
  80420c:	1080201c 	xori	r2,r2,128
  804210:	10bfe004 	addi	r2,r2,-128
  804214:	10000326 	beq	r2,zero,804224 <logic+0x3a88>
    d->_region3_null_PVARP = 0;
  804218:	e0bffc17 	ldw	r2,-16(fp)
  80421c:	10000d15 	stw	zero,52(r2)
  804220:	10000e15 	stw	zero,56(r2)
  }
  d->_g151 = d->_pg130_e2;
  804224:	e0bffc17 	ldw	r2,-16(fp)
  804228:	10c06903 	ldbu	r3,420(r2)
  80422c:	e0bffc17 	ldw	r2,-16(fp)
  804230:	10c037c5 	stb	r3,223(r2)
  if (d->_g151) {
  804234:	e0bffc17 	ldw	r2,-16(fp)
  804238:	108037c3 	ldbu	r2,223(r2)
  80423c:	10803fcc 	andi	r2,r2,255
  804240:	1080201c 	xori	r2,r2,128
  804244:	10bfe004 	addi	r2,r2,-128
  804248:	10001226 	beq	r2,zero,804294 <logic+0x3af8>
    d->_region3_null_PVARP += d->deltaT;
  80424c:	e13ffc17 	ldw	r4,-16(fp)
  804250:	20800d17 	ldw	r2,52(r4)
  804254:	20c00e17 	ldw	r3,56(r4)
  804258:	e1bffc17 	ldw	r6,-16(fp)
  80425c:	31001317 	ldw	r4,76(r6)
  804260:	31401417 	ldw	r5,80(r6)
  804264:	200d883a 	mov	r6,r4
  804268:	280f883a 	mov	r7,r5
  80426c:	1009883a 	mov	r4,r2
  804270:	180b883a 	mov	r5,r3
  804274:	08078280 	call	807828 <__adddf3>
  804278:	1009883a 	mov	r4,r2
  80427c:	180b883a 	mov	r5,r3
  804280:	2005883a 	mov	r2,r4
  804284:	2807883a 	mov	r3,r5
  804288:	e13ffc17 	ldw	r4,-16(fp)
  80428c:	20800d15 	stw	r2,52(r4)
  804290:	20c00e15 	stw	r3,56(r4)
  }
  d->_g147_e1 = !d->_g151;
  804294:	e0bffc17 	ldw	r2,-16(fp)
  804298:	108037c3 	ldbu	r2,223(r2)
  80429c:	10803fcc 	andi	r2,r2,255
  8042a0:	1080201c 	xori	r2,r2,128
  8042a4:	10bfe004 	addi	r2,r2,-128
  8042a8:	1005003a 	cmpeq	r2,r2,zero
  8042ac:	1007883a 	mov	r3,r2
  8042b0:	e0bffc17 	ldw	r2,-16(fp)
  8042b4:	10c06085 	stb	r3,386(r2)
  d->_g152 = d->_pg158;
  8042b8:	e0bffc17 	ldw	r2,-16(fp)
  8042bc:	10c06943 	ldbu	r3,421(r2)
  8042c0:	e0bffc17 	ldw	r2,-16(fp)
  8042c4:	10c03805 	stb	r3,224(r2)
  d->_cg137 = d->_region3_null_PVARP >= d->PVARP_time;
  8042c8:	e0bffc17 	ldw	r2,-16(fp)
  8042cc:	14000d17 	ldw	r16,52(r2)
  8042d0:	14400e17 	ldw	r17,56(r2)
  8042d4:	e0bffc17 	ldw	r2,-16(fp)
  8042d8:	10800117 	ldw	r2,4(r2)
  8042dc:	1009883a 	mov	r4,r2
  8042e0:	0808ba00 	call	808ba0 <__floatsidf>
  8042e4:	1009883a 	mov	r4,r2
  8042e8:	180b883a 	mov	r5,r3
  8042ec:	04800044 	movi	r18,1
  8042f0:	200d883a 	mov	r6,r4
  8042f4:	280f883a 	mov	r7,r5
  8042f8:	8009883a 	mov	r4,r16
  8042fc:	880b883a 	mov	r5,r17
  804300:	08080d40 	call	8080d4 <__gedf2>
  804304:	1000010e 	bge	r2,zero,80430c <logic+0x3b70>
  804308:	0025883a 	mov	r18,zero
  80430c:	9007883a 	mov	r3,r18
  804310:	e0bffc17 	ldw	r2,-16(fp)
  804314:	10c052c5 	stb	r3,331(r2)
  d->_g147 = d->_g152 && d->_cg137;
  804318:	e0bffc17 	ldw	r2,-16(fp)
  80431c:	10803803 	ldbu	r2,224(r2)
  804320:	10803fcc 	andi	r2,r2,255
  804324:	1080201c 	xori	r2,r2,128
  804328:	10bfe004 	addi	r2,r2,-128
  80432c:	10000826 	beq	r2,zero,804350 <logic+0x3bb4>
  804330:	e0bffc17 	ldw	r2,-16(fp)
  804334:	108052c3 	ldbu	r2,331(r2)
  804338:	10803fcc 	andi	r2,r2,255
  80433c:	1080201c 	xori	r2,r2,128
  804340:	10bfe004 	addi	r2,r2,-128
  804344:	10000226 	beq	r2,zero,804350 <logic+0x3bb4>
  804348:	00800044 	movi	r2,1
  80434c:	00000106 	br	804354 <logic+0x3bb8>
  804350:	0005883a 	mov	r2,zero
  804354:	1007883a 	mov	r3,r2
  804358:	e0bffc17 	ldw	r2,-16(fp)
  80435c:	10c03745 	stb	r3,221(r2)
  if (d->_g147) {
  804360:	e0bffc17 	ldw	r2,-16(fp)
  804364:	10803743 	ldbu	r2,221(r2)
  804368:	10803fcc 	andi	r2,r2,255
  80436c:	1080201c 	xori	r2,r2,128
  804370:	10bfe004 	addi	r2,r2,-128
  804374:	10000326 	beq	r2,zero,804384 <logic+0x3be8>
    d->_heart2_local__Atrig10 = 1;
  804378:	e0bffc17 	ldw	r2,-16(fp)
  80437c:	00c00044 	movi	r3,1
  804380:	10c01cc5 	stb	r3,115(r2)
  }
  d->_g152_e2 = d->_g152 && !d->_cg137;
  804384:	e0bffc17 	ldw	r2,-16(fp)
  804388:	10803803 	ldbu	r2,224(r2)
  80438c:	10803fcc 	andi	r2,r2,255
  804390:	1080201c 	xori	r2,r2,128
  804394:	10bfe004 	addi	r2,r2,-128
  804398:	10000826 	beq	r2,zero,8043bc <logic+0x3c20>
  80439c:	e0bffc17 	ldw	r2,-16(fp)
  8043a0:	108052c3 	ldbu	r2,331(r2)
  8043a4:	10803fcc 	andi	r2,r2,255
  8043a8:	1080201c 	xori	r2,r2,128
  8043ac:	10bfe004 	addi	r2,r2,-128
  8043b0:	1000021e 	bne	r2,zero,8043bc <logic+0x3c20>
  8043b4:	00800044 	movi	r2,1
  8043b8:	00000106 	br	8043c0 <logic+0x3c24>
  8043bc:	0005883a 	mov	r2,zero
  8043c0:	1007883a 	mov	r3,r2
  8043c4:	e0bffc17 	ldw	r2,-16(fp)
  8043c8:	10c060c5 	stb	r3,387(r2)
  d->_g141 = d->_g152_e2 && d->AS;
  8043cc:	e0bffc17 	ldw	r2,-16(fp)
  8043d0:	108060c3 	ldbu	r2,387(r2)
  8043d4:	10803fcc 	andi	r2,r2,255
  8043d8:	1080201c 	xori	r2,r2,128
  8043dc:	10bfe004 	addi	r2,r2,-128
  8043e0:	10000826 	beq	r2,zero,804404 <logic+0x3c68>
  8043e4:	e0bffc17 	ldw	r2,-16(fp)
  8043e8:	10801703 	ldbu	r2,92(r2)
  8043ec:	10803fcc 	andi	r2,r2,255
  8043f0:	1080201c 	xori	r2,r2,128
  8043f4:	10bfe004 	addi	r2,r2,-128
  8043f8:	10000226 	beq	r2,zero,804404 <logic+0x3c68>
  8043fc:	00800044 	movi	r2,1
  804400:	00000106 	br	804408 <logic+0x3c6c>
  804404:	0005883a 	mov	r2,zero
  804408:	1007883a 	mov	r3,r2
  80440c:	e0bffc17 	ldw	r2,-16(fp)
  804410:	10c03645 	stb	r3,217(r2)
  if (d->_g141) {
  804414:	e0bffc17 	ldw	r2,-16(fp)
  804418:	10803643 	ldbu	r2,217(r2)
  80441c:	10803fcc 	andi	r2,r2,255
  804420:	1080201c 	xori	r2,r2,128
  804424:	10bfe004 	addi	r2,r2,-128
  804428:	10000326 	beq	r2,zero,804438 <logic+0x3c9c>
    d->_heart2_local__Atrig11 = 1;
  80442c:	e0bffc17 	ldw	r2,-16(fp)
  804430:	00c00044 	movi	r3,1
  804434:	10c01d05 	stb	r3,116(r2)
  }
  d->_cg122 = d->_heart2_local__Atrig10 || d->_heart2_local__Atrig11;
  804438:	e0bffc17 	ldw	r2,-16(fp)
  80443c:	10801cc3 	ldbu	r2,115(r2)
  804440:	10803fcc 	andi	r2,r2,255
  804444:	1080201c 	xori	r2,r2,128
  804448:	10bfe004 	addi	r2,r2,-128
  80444c:	1000061e 	bne	r2,zero,804468 <logic+0x3ccc>
  804450:	e0bffc17 	ldw	r2,-16(fp)
  804454:	10801d03 	ldbu	r2,116(r2)
  804458:	10803fcc 	andi	r2,r2,255
  80445c:	1080201c 	xori	r2,r2,128
  804460:	10bfe004 	addi	r2,r2,-128
  804464:	10000226 	beq	r2,zero,804470 <logic+0x3cd4>
  804468:	00800044 	movi	r2,1
  80446c:	00000106 	br	804474 <logic+0x3cd8>
  804470:	0005883a 	mov	r2,zero
  804474:	1007883a 	mov	r3,r2
  804478:	e0bffc17 	ldw	r2,-16(fp)
  80447c:	10c050c5 	stb	r3,323(r2)
  d->_g123 = d->_g151 && d->_cg122;
  804480:	e0bffc17 	ldw	r2,-16(fp)
  804484:	108037c3 	ldbu	r2,223(r2)
  804488:	10803fcc 	andi	r2,r2,255
  80448c:	1080201c 	xori	r2,r2,128
  804490:	10bfe004 	addi	r2,r2,-128
  804494:	10000826 	beq	r2,zero,8044b8 <logic+0x3d1c>
  804498:	e0bffc17 	ldw	r2,-16(fp)
  80449c:	108050c3 	ldbu	r2,323(r2)
  8044a0:	10803fcc 	andi	r2,r2,255
  8044a4:	1080201c 	xori	r2,r2,128
  8044a8:	10bfe004 	addi	r2,r2,-128
  8044ac:	10000226 	beq	r2,zero,8044b8 <logic+0x3d1c>
  8044b0:	00800044 	movi	r2,1
  8044b4:	00000106 	br	8044bc <logic+0x3d20>
  8044b8:	0005883a 	mov	r2,zero
  8044bc:	1007883a 	mov	r3,r2
  8044c0:	e0bffc17 	ldw	r2,-16(fp)
  8044c4:	10c03305 	stb	r3,204(r2)
  d->_g133 = d->_pg156;
  8044c8:	e0bffc17 	ldw	r2,-16(fp)
  8044cc:	10c06983 	ldbu	r3,422(r2)
  8044d0:	e0bffc17 	ldw	r2,-16(fp)
  8044d4:	10c034c5 	stb	r3,211(r2)
  d->_g127 = d->_pg139;
  8044d8:	e0bffc17 	ldw	r2,-16(fp)
  8044dc:	10c069c3 	ldbu	r3,423(r2)
  8044e0:	e0bffc17 	ldw	r2,-16(fp)
  8044e4:	10c03385 	stb	r3,206(r2)
  d->_g130_e2 = !(d->_g133 || d->_g127);
  8044e8:	e0bffc17 	ldw	r2,-16(fp)
  8044ec:	108034c3 	ldbu	r2,211(r2)
  8044f0:	10803fcc 	andi	r2,r2,255
  8044f4:	1080201c 	xori	r2,r2,128
  8044f8:	10bfe004 	addi	r2,r2,-128
  8044fc:	1000081e 	bne	r2,zero,804520 <logic+0x3d84>
  804500:	e0bffc17 	ldw	r2,-16(fp)
  804504:	10803383 	ldbu	r2,206(r2)
  804508:	10803fcc 	andi	r2,r2,255
  80450c:	1080201c 	xori	r2,r2,128
  804510:	10bfe004 	addi	r2,r2,-128
  804514:	1000021e 	bne	r2,zero,804520 <logic+0x3d84>
  804518:	00800044 	movi	r2,1
  80451c:	00000106 	br	804524 <logic+0x3d88>
  804520:	0005883a 	mov	r2,zero
  804524:	1007883a 	mov	r3,r2
  804528:	e0bffc17 	ldw	r2,-16(fp)
  80452c:	10c06005 	stb	r3,384(r2)
  d->_g127 = d->_g127 || d->_g133;
  804530:	e0bffc17 	ldw	r2,-16(fp)
  804534:	10803383 	ldbu	r2,206(r2)
  804538:	10803fcc 	andi	r2,r2,255
  80453c:	1080201c 	xori	r2,r2,128
  804540:	10bfe004 	addi	r2,r2,-128
  804544:	1000061e 	bne	r2,zero,804560 <logic+0x3dc4>
  804548:	e0bffc17 	ldw	r2,-16(fp)
  80454c:	108034c3 	ldbu	r2,211(r2)
  804550:	10803fcc 	andi	r2,r2,255
  804554:	1080201c 	xori	r2,r2,128
  804558:	10bfe004 	addi	r2,r2,-128
  80455c:	10000226 	beq	r2,zero,804568 <logic+0x3dcc>
  804560:	00800044 	movi	r2,1
  804564:	00000106 	br	80456c <logic+0x3dd0>
  804568:	0005883a 	mov	r2,zero
  80456c:	1007883a 	mov	r3,r2
  804570:	e0bffc17 	ldw	r2,-16(fp)
  804574:	10c03385 	stb	r3,206(r2)
  d->_cg128 = d->_region3_null_PVARP < d->PVARP_time;
  804578:	e0bffc17 	ldw	r2,-16(fp)
  80457c:	14000d17 	ldw	r16,52(r2)
  804580:	14400e17 	ldw	r17,56(r2)
  804584:	e0bffc17 	ldw	r2,-16(fp)
  804588:	10800117 	ldw	r2,4(r2)
  80458c:	1009883a 	mov	r4,r2
  804590:	0808ba00 	call	808ba0 <__floatsidf>
  804594:	1009883a 	mov	r4,r2
  804598:	180b883a 	mov	r5,r3
  80459c:	04800044 	movi	r18,1
  8045a0:	200d883a 	mov	r6,r4
  8045a4:	280f883a 	mov	r7,r5
  8045a8:	8009883a 	mov	r4,r16
  8045ac:	880b883a 	mov	r5,r17
  8045b0:	08081b00 	call	8081b0 <__ledf2>
  8045b4:	10000116 	blt	r2,zero,8045bc <logic+0x3e20>
  8045b8:	0025883a 	mov	r18,zero
  8045bc:	9007883a 	mov	r3,r18
  8045c0:	e0bffc17 	ldw	r2,-16(fp)
  8045c4:	10c051c5 	stb	r3,327(r2)
  d->_g133 = d->_g127 && d->_cg128;
  8045c8:	e0bffc17 	ldw	r2,-16(fp)
  8045cc:	10803383 	ldbu	r2,206(r2)
  8045d0:	10803fcc 	andi	r2,r2,255
  8045d4:	1080201c 	xori	r2,r2,128
  8045d8:	10bfe004 	addi	r2,r2,-128
  8045dc:	10000826 	beq	r2,zero,804600 <logic+0x3e64>
  8045e0:	e0bffc17 	ldw	r2,-16(fp)
  8045e4:	108051c3 	ldbu	r2,327(r2)
  8045e8:	10803fcc 	andi	r2,r2,255
  8045ec:	1080201c 	xori	r2,r2,128
  8045f0:	10bfe004 	addi	r2,r2,-128
  8045f4:	10000226 	beq	r2,zero,804600 <logic+0x3e64>
  8045f8:	00800044 	movi	r2,1
  8045fc:	00000106 	br	804604 <logic+0x3e68>
  804600:	0005883a 	mov	r2,zero
  804604:	1007883a 	mov	r3,r2
  804608:	e0bffc17 	ldw	r2,-16(fp)
  80460c:	10c034c5 	stb	r3,211(r2)
  if (d->_g133) {
  804610:	e0bffc17 	ldw	r2,-16(fp)
  804614:	108034c3 	ldbu	r2,211(r2)
  804618:	10803fcc 	andi	r2,r2,255
  80461c:	1080201c 	xori	r2,r2,128
  804620:	10bfe004 	addi	r2,r2,-128
  804624:	10003426 	beq	r2,zero,8046f8 <logic+0x3f5c>
    d->sleepT = (d->sleepT < (d->PVARP_time - d->_region3_null_PVARP)) ? d->sleepT : (d->PVARP_time - d->_region3_null_PVARP);
  804628:	e0bffc17 	ldw	r2,-16(fp)
  80462c:	14001517 	ldw	r16,84(r2)
  804630:	14401617 	ldw	r17,88(r2)
  804634:	e0bffc17 	ldw	r2,-16(fp)
  804638:	10800117 	ldw	r2,4(r2)
  80463c:	1009883a 	mov	r4,r2
  804640:	0808ba00 	call	808ba0 <__floatsidf>
  804644:	1011883a 	mov	r8,r2
  804648:	1813883a 	mov	r9,r3
  80464c:	e13ffc17 	ldw	r4,-16(fp)
  804650:	20800d17 	ldw	r2,52(r4)
  804654:	20c00e17 	ldw	r3,56(r4)
  804658:	100d883a 	mov	r6,r2
  80465c:	180f883a 	mov	r7,r3
  804660:	4009883a 	mov	r4,r8
  804664:	480b883a 	mov	r5,r9
  804668:	08082a40 	call	8082a4 <__subdf3>
  80466c:	1009883a 	mov	r4,r2
  804670:	180b883a 	mov	r5,r3
  804674:	2005883a 	mov	r2,r4
  804678:	2807883a 	mov	r3,r5
  80467c:	100d883a 	mov	r6,r2
  804680:	180f883a 	mov	r7,r3
  804684:	8009883a 	mov	r4,r16
  804688:	880b883a 	mov	r5,r17
  80468c:	08081b00 	call	8081b0 <__ledf2>
  804690:	1000040e 	bge	r2,zero,8046a4 <logic+0x3f08>
  804694:	e13ffc17 	ldw	r4,-16(fp)
  804698:	20801517 	ldw	r2,84(r4)
  80469c:	20c01617 	ldw	r3,88(r4)
  8046a0:	00001206 	br	8046ec <logic+0x3f50>
  8046a4:	e0bffc17 	ldw	r2,-16(fp)
  8046a8:	10800117 	ldw	r2,4(r2)
  8046ac:	1009883a 	mov	r4,r2
  8046b0:	0808ba00 	call	808ba0 <__floatsidf>
  8046b4:	1011883a 	mov	r8,r2
  8046b8:	1813883a 	mov	r9,r3
  8046bc:	e13ffc17 	ldw	r4,-16(fp)
  8046c0:	20800d17 	ldw	r2,52(r4)
  8046c4:	20c00e17 	ldw	r3,56(r4)
  8046c8:	100d883a 	mov	r6,r2
  8046cc:	180f883a 	mov	r7,r3
  8046d0:	4009883a 	mov	r4,r8
  8046d4:	480b883a 	mov	r5,r9
  8046d8:	08082a40 	call	8082a4 <__subdf3>
  8046dc:	1009883a 	mov	r4,r2
  8046e0:	180b883a 	mov	r5,r3
  8046e4:	2005883a 	mov	r2,r4
  8046e8:	2807883a 	mov	r3,r5
  8046ec:	e13ffc17 	ldw	r4,-16(fp)
  8046f0:	20801515 	stw	r2,84(r4)
  8046f4:	20c01615 	stw	r3,88(r4)
  }
  d->_cg129 = d->_heart2_local__Atrig10 || d->_heart2_local__Atrig11;
  8046f8:	e0bffc17 	ldw	r2,-16(fp)
  8046fc:	10801cc3 	ldbu	r2,115(r2)
  804700:	10803fcc 	andi	r2,r2,255
  804704:	1080201c 	xori	r2,r2,128
  804708:	10bfe004 	addi	r2,r2,-128
  80470c:	1000061e 	bne	r2,zero,804728 <logic+0x3f8c>
  804710:	e0bffc17 	ldw	r2,-16(fp)
  804714:	10801d03 	ldbu	r2,116(r2)
  804718:	10803fcc 	andi	r2,r2,255
  80471c:	1080201c 	xori	r2,r2,128
  804720:	10bfe004 	addi	r2,r2,-128
  804724:	10000226 	beq	r2,zero,804730 <logic+0x3f94>
  804728:	00800044 	movi	r2,1
  80472c:	00000106 	br	804734 <logic+0x3f98>
  804730:	0005883a 	mov	r2,zero
  804734:	1007883a 	mov	r3,r2
  804738:	e0bffc17 	ldw	r2,-16(fp)
  80473c:	10c05185 	stb	r3,326(r2)
  d->_g128 = d->_g127 && !d->_cg128;
  804740:	e0bffc17 	ldw	r2,-16(fp)
  804744:	10803383 	ldbu	r2,206(r2)
  804748:	10803fcc 	andi	r2,r2,255
  80474c:	1080201c 	xori	r2,r2,128
  804750:	10bfe004 	addi	r2,r2,-128
  804754:	10000826 	beq	r2,zero,804778 <logic+0x3fdc>
  804758:	e0bffc17 	ldw	r2,-16(fp)
  80475c:	108051c3 	ldbu	r2,327(r2)
  804760:	10803fcc 	andi	r2,r2,255
  804764:	1080201c 	xori	r2,r2,128
  804768:	10bfe004 	addi	r2,r2,-128
  80476c:	1000021e 	bne	r2,zero,804778 <logic+0x3fdc>
  804770:	00800044 	movi	r2,1
  804774:	00000106 	br	80477c <logic+0x3fe0>
  804778:	0005883a 	mov	r2,zero
  80477c:	1007883a 	mov	r3,r2
  804780:	e0bffc17 	ldw	r2,-16(fp)
  804784:	10c033c5 	stb	r3,207(r2)
  d->_cg131 = d->_heart2_local__Atrig10 || d->_heart2_local__Atrig11;
  804788:	e0bffc17 	ldw	r2,-16(fp)
  80478c:	10801cc3 	ldbu	r2,115(r2)
  804790:	10803fcc 	andi	r2,r2,255
  804794:	1080201c 	xori	r2,r2,128
  804798:	10bfe004 	addi	r2,r2,-128
  80479c:	1000061e 	bne	r2,zero,8047b8 <logic+0x401c>
  8047a0:	e0bffc17 	ldw	r2,-16(fp)
  8047a4:	10801d03 	ldbu	r2,116(r2)
  8047a8:	10803fcc 	andi	r2,r2,255
  8047ac:	1080201c 	xori	r2,r2,128
  8047b0:	10bfe004 	addi	r2,r2,-128
  8047b4:	10000226 	beq	r2,zero,8047c0 <logic+0x4024>
  8047b8:	00800044 	movi	r2,1
  8047bc:	00000106 	br	8047c4 <logic+0x4028>
  8047c0:	0005883a 	mov	r2,zero
  8047c4:	1007883a 	mov	r3,r2
  8047c8:	e0bffc17 	ldw	r2,-16(fp)
  8047cc:	10c05205 	stb	r3,328(r2)
  d->_g130 = d->_g133 && d->_cg129 || d->_g128 && d->_cg131;
  8047d0:	e0bffc17 	ldw	r2,-16(fp)
  8047d4:	108034c3 	ldbu	r2,211(r2)
  8047d8:	10803fcc 	andi	r2,r2,255
  8047dc:	1080201c 	xori	r2,r2,128
  8047e0:	10bfe004 	addi	r2,r2,-128
  8047e4:	10000626 	beq	r2,zero,804800 <logic+0x4064>
  8047e8:	e0bffc17 	ldw	r2,-16(fp)
  8047ec:	10805183 	ldbu	r2,326(r2)
  8047f0:	10803fcc 	andi	r2,r2,255
  8047f4:	1080201c 	xori	r2,r2,128
  8047f8:	10bfe004 	addi	r2,r2,-128
  8047fc:	10000c1e 	bne	r2,zero,804830 <logic+0x4094>
  804800:	e0bffc17 	ldw	r2,-16(fp)
  804804:	108033c3 	ldbu	r2,207(r2)
  804808:	10803fcc 	andi	r2,r2,255
  80480c:	1080201c 	xori	r2,r2,128
  804810:	10bfe004 	addi	r2,r2,-128
  804814:	10000826 	beq	r2,zero,804838 <logic+0x409c>
  804818:	e0bffc17 	ldw	r2,-16(fp)
  80481c:	10805203 	ldbu	r2,328(r2)
  804820:	10803fcc 	andi	r2,r2,255
  804824:	1080201c 	xori	r2,r2,128
  804828:	10bfe004 	addi	r2,r2,-128
  80482c:	10000226 	beq	r2,zero,804838 <logic+0x409c>
  804830:	00800044 	movi	r2,1
  804834:	00000106 	br	80483c <logic+0x40a0>
  804838:	0005883a 	mov	r2,zero
  80483c:	1007883a 	mov	r3,r2
  804840:	e0bffc17 	ldw	r2,-16(fp)
  804844:	10c03445 	stb	r3,209(r2)
  d->_g137 = !d->_g152;
  804848:	e0bffc17 	ldw	r2,-16(fp)
  80484c:	10803803 	ldbu	r2,224(r2)
  804850:	10803fcc 	andi	r2,r2,255
  804854:	1080201c 	xori	r2,r2,128
  804858:	10bfe004 	addi	r2,r2,-128
  80485c:	1005003a 	cmpeq	r2,r2,zero
  804860:	1007883a 	mov	r3,r2
  804864:	e0bffc17 	ldw	r2,-16(fp)
  804868:	10c03545 	stb	r3,213(r2)
  d->_g138 = d->_g147 || d->_g141;
  80486c:	e0bffc17 	ldw	r2,-16(fp)
  804870:	10803743 	ldbu	r2,221(r2)
  804874:	10803fcc 	andi	r2,r2,255
  804878:	1080201c 	xori	r2,r2,128
  80487c:	10bfe004 	addi	r2,r2,-128
  804880:	1000061e 	bne	r2,zero,80489c <logic+0x4100>
  804884:	e0bffc17 	ldw	r2,-16(fp)
  804888:	10803643 	ldbu	r2,217(r2)
  80488c:	10803fcc 	andi	r2,r2,255
  804890:	1080201c 	xori	r2,r2,128
  804894:	10bfe004 	addi	r2,r2,-128
  804898:	10000226 	beq	r2,zero,8048a4 <logic+0x4108>
  80489c:	00800044 	movi	r2,1
  8048a0:	00000106 	br	8048a8 <logic+0x410c>
  8048a4:	0005883a 	mov	r2,zero
  8048a8:	1007883a 	mov	r3,r2
  8048ac:	e0bffc17 	ldw	r2,-16(fp)
  8048b0:	10c03585 	stb	r3,214(r2)
  d->_g141 = (d->_g147_e1 || d->_g123) && (d->_g130_e2 || d->_g130) && (d->_g137 || d->_g138) && (d->_g123 || d->_g130 || d->_g138);
  8048b4:	e0bffc17 	ldw	r2,-16(fp)
  8048b8:	10806083 	ldbu	r2,386(r2)
  8048bc:	10803fcc 	andi	r2,r2,255
  8048c0:	1080201c 	xori	r2,r2,128
  8048c4:	10bfe004 	addi	r2,r2,-128
  8048c8:	1000061e 	bne	r2,zero,8048e4 <logic+0x4148>
  8048cc:	e0bffc17 	ldw	r2,-16(fp)
  8048d0:	10803303 	ldbu	r2,204(r2)
  8048d4:	10803fcc 	andi	r2,r2,255
  8048d8:	1080201c 	xori	r2,r2,128
  8048dc:	10bfe004 	addi	r2,r2,-128
  8048e0:	10002c26 	beq	r2,zero,804994 <logic+0x41f8>
  8048e4:	e0bffc17 	ldw	r2,-16(fp)
  8048e8:	10806003 	ldbu	r2,384(r2)
  8048ec:	10803fcc 	andi	r2,r2,255
  8048f0:	1080201c 	xori	r2,r2,128
  8048f4:	10bfe004 	addi	r2,r2,-128
  8048f8:	1000061e 	bne	r2,zero,804914 <logic+0x4178>
  8048fc:	e0bffc17 	ldw	r2,-16(fp)
  804900:	10803443 	ldbu	r2,209(r2)
  804904:	10803fcc 	andi	r2,r2,255
  804908:	1080201c 	xori	r2,r2,128
  80490c:	10bfe004 	addi	r2,r2,-128
  804910:	10002026 	beq	r2,zero,804994 <logic+0x41f8>
  804914:	e0bffc17 	ldw	r2,-16(fp)
  804918:	10803543 	ldbu	r2,213(r2)
  80491c:	10803fcc 	andi	r2,r2,255
  804920:	1080201c 	xori	r2,r2,128
  804924:	10bfe004 	addi	r2,r2,-128
  804928:	1000061e 	bne	r2,zero,804944 <logic+0x41a8>
  80492c:	e0bffc17 	ldw	r2,-16(fp)
  804930:	10803583 	ldbu	r2,214(r2)
  804934:	10803fcc 	andi	r2,r2,255
  804938:	1080201c 	xori	r2,r2,128
  80493c:	10bfe004 	addi	r2,r2,-128
  804940:	10001426 	beq	r2,zero,804994 <logic+0x41f8>
  804944:	e0bffc17 	ldw	r2,-16(fp)
  804948:	10803303 	ldbu	r2,204(r2)
  80494c:	10803fcc 	andi	r2,r2,255
  804950:	1080201c 	xori	r2,r2,128
  804954:	10bfe004 	addi	r2,r2,-128
  804958:	10000c1e 	bne	r2,zero,80498c <logic+0x41f0>
  80495c:	e0bffc17 	ldw	r2,-16(fp)
  804960:	10803443 	ldbu	r2,209(r2)
  804964:	10803fcc 	andi	r2,r2,255
  804968:	1080201c 	xori	r2,r2,128
  80496c:	10bfe004 	addi	r2,r2,-128
  804970:	1000061e 	bne	r2,zero,80498c <logic+0x41f0>
  804974:	e0bffc17 	ldw	r2,-16(fp)
  804978:	10803583 	ldbu	r2,214(r2)
  80497c:	10803fcc 	andi	r2,r2,255
  804980:	1080201c 	xori	r2,r2,128
  804984:	10bfe004 	addi	r2,r2,-128
  804988:	10000226 	beq	r2,zero,804994 <logic+0x41f8>
  80498c:	00800044 	movi	r2,1
  804990:	00000106 	br	804998 <logic+0x41fc>
  804994:	0005883a 	mov	r2,zero
  804998:	1007883a 	mov	r3,r2
  80499c:	e0bffc17 	ldw	r2,-16(fp)
  8049a0:	10c03645 	stb	r3,217(r2)
  d->_cg142 = d->_heart2_local__Atrig10;
  8049a4:	e0bffc17 	ldw	r2,-16(fp)
  8049a8:	10c01cc3 	ldbu	r3,115(r2)
  8049ac:	e0bffc17 	ldw	r2,-16(fp)
  8049b0:	10c05305 	stb	r3,332(r2)
  d->_g123 = d->_g141 && !d->_cg142;
  8049b4:	e0bffc17 	ldw	r2,-16(fp)
  8049b8:	10803643 	ldbu	r2,217(r2)
  8049bc:	10803fcc 	andi	r2,r2,255
  8049c0:	1080201c 	xori	r2,r2,128
  8049c4:	10bfe004 	addi	r2,r2,-128
  8049c8:	10000826 	beq	r2,zero,8049ec <logic+0x4250>
  8049cc:	e0bffc17 	ldw	r2,-16(fp)
  8049d0:	10805303 	ldbu	r2,332(r2)
  8049d4:	10803fcc 	andi	r2,r2,255
  8049d8:	1080201c 	xori	r2,r2,128
  8049dc:	10bfe004 	addi	r2,r2,-128
  8049e0:	1000021e 	bne	r2,zero,8049ec <logic+0x4250>
  8049e4:	00800044 	movi	r2,1
  8049e8:	00000106 	br	8049f0 <logic+0x4254>
  8049ec:	0005883a 	mov	r2,zero
  8049f0:	1007883a 	mov	r3,r2
  8049f4:	e0bffc17 	ldw	r2,-16(fp)
  8049f8:	10c03305 	stb	r3,204(r2)
  if (d->_g123) {
  8049fc:	e0bffc17 	ldw	r2,-16(fp)
  804a00:	10803303 	ldbu	r2,204(r2)
  804a04:	10803fcc 	andi	r2,r2,255
  804a08:	1080201c 	xori	r2,r2,128
  804a0c:	10bfe004 	addi	r2,r2,-128
  804a10:	10000626 	beq	r2,zero,804a2c <logic+0x4290>
    d->AR |= 1;
  804a14:	e0bffc17 	ldw	r2,-16(fp)
  804a18:	10801843 	ldbu	r2,97(r2)
  804a1c:	10800054 	ori	r2,r2,1
  804a20:	1007883a 	mov	r3,r2
  804a24:	e0bffc17 	ldw	r2,-16(fp)
  804a28:	10c01845 	stb	r3,97(r2)
  }
  d->_g123_e1 = d->_GO || d->_g154 || d->_g123;
  804a2c:	e0bffc17 	ldw	r2,-16(fp)
  804a30:	10804543 	ldbu	r2,277(r2)
  804a34:	10803fcc 	andi	r2,r2,255
  804a38:	1080201c 	xori	r2,r2,128
  804a3c:	10bfe004 	addi	r2,r2,-128
  804a40:	10000c1e 	bne	r2,zero,804a74 <logic+0x42d8>
  804a44:	e0bffc17 	ldw	r2,-16(fp)
  804a48:	10803883 	ldbu	r2,226(r2)
  804a4c:	10803fcc 	andi	r2,r2,255
  804a50:	1080201c 	xori	r2,r2,128
  804a54:	10bfe004 	addi	r2,r2,-128
  804a58:	1000061e 	bne	r2,zero,804a74 <logic+0x42d8>
  804a5c:	e0bffc17 	ldw	r2,-16(fp)
  804a60:	10803303 	ldbu	r2,204(r2)
  804a64:	10803fcc 	andi	r2,r2,255
  804a68:	1080201c 	xori	r2,r2,128
  804a6c:	10bfe004 	addi	r2,r2,-128
  804a70:	10000226 	beq	r2,zero,804a7c <logic+0x42e0>
  804a74:	00800044 	movi	r2,1
  804a78:	00000106 	br	804a80 <logic+0x42e4>
  804a7c:	0005883a 	mov	r2,zero
  804a80:	1007883a 	mov	r3,r2
  804a84:	e0bffc17 	ldw	r2,-16(fp)
  804a88:	10c05fc5 	stb	r3,383(r2)
  if (d->_g123_e1) {
  804a8c:	e0bffc17 	ldw	r2,-16(fp)
  804a90:	10805fc3 	ldbu	r2,383(r2)
  804a94:	10803fcc 	andi	r2,r2,255
  804a98:	1080201c 	xori	r2,r2,128
  804a9c:	10bfe004 	addi	r2,r2,-128
  804aa0:	10000426 	beq	r2,zero,804ab4 <logic+0x4318>
    d->_heart2_local__Atrig10 = 0;
  804aa4:	e0bffc17 	ldw	r2,-16(fp)
  804aa8:	10001cc5 	stb	zero,115(r2)
    d->_heart2_local__Atrig11 = 0;
  804aac:	e0bffc17 	ldw	r2,-16(fp)
  804ab0:	10001d05 	stb	zero,116(r2)
  }
  d->_cg120 = d->_heart2_local__Atrig10 || d->_heart2_local__Atrig11;
  804ab4:	e0bffc17 	ldw	r2,-16(fp)
  804ab8:	10801cc3 	ldbu	r2,115(r2)
  804abc:	10803fcc 	andi	r2,r2,255
  804ac0:	1080201c 	xori	r2,r2,128
  804ac4:	10bfe004 	addi	r2,r2,-128
  804ac8:	1000061e 	bne	r2,zero,804ae4 <logic+0x4348>
  804acc:	e0bffc17 	ldw	r2,-16(fp)
  804ad0:	10801d03 	ldbu	r2,116(r2)
  804ad4:	10803fcc 	andi	r2,r2,255
  804ad8:	1080201c 	xori	r2,r2,128
  804adc:	10bfe004 	addi	r2,r2,-128
  804ae0:	10000226 	beq	r2,zero,804aec <logic+0x4350>
  804ae4:	00800044 	movi	r2,1
  804ae8:	00000106 	br	804af0 <logic+0x4354>
  804aec:	0005883a 	mov	r2,zero
  804af0:	1007883a 	mov	r3,r2
  804af4:	e0bffc17 	ldw	r2,-16(fp)
  804af8:	10c05085 	stb	r3,322(r2)
  d->_g130_e2 = d->_g123_e1 && !d->_cg120 || d->_g151 && !d->_cg122;
  804afc:	e0bffc17 	ldw	r2,-16(fp)
  804b00:	10805fc3 	ldbu	r2,383(r2)
  804b04:	10803fcc 	andi	r2,r2,255
  804b08:	1080201c 	xori	r2,r2,128
  804b0c:	10bfe004 	addi	r2,r2,-128
  804b10:	10000626 	beq	r2,zero,804b2c <logic+0x4390>
  804b14:	e0bffc17 	ldw	r2,-16(fp)
  804b18:	10805083 	ldbu	r2,322(r2)
  804b1c:	10803fcc 	andi	r2,r2,255
  804b20:	1080201c 	xori	r2,r2,128
  804b24:	10bfe004 	addi	r2,r2,-128
  804b28:	10000c26 	beq	r2,zero,804b5c <logic+0x43c0>
  804b2c:	e0bffc17 	ldw	r2,-16(fp)
  804b30:	108037c3 	ldbu	r2,223(r2)
  804b34:	10803fcc 	andi	r2,r2,255
  804b38:	1080201c 	xori	r2,r2,128
  804b3c:	10bfe004 	addi	r2,r2,-128
  804b40:	10000826 	beq	r2,zero,804b64 <logic+0x43c8>
  804b44:	e0bffc17 	ldw	r2,-16(fp)
  804b48:	108050c3 	ldbu	r2,323(r2)
  804b4c:	10803fcc 	andi	r2,r2,255
  804b50:	1080201c 	xori	r2,r2,128
  804b54:	10bfe004 	addi	r2,r2,-128
  804b58:	1000021e 	bne	r2,zero,804b64 <logic+0x43c8>
  804b5c:	00800044 	movi	r2,1
  804b60:	00000106 	br	804b68 <logic+0x43cc>
  804b64:	0005883a 	mov	r2,zero
  804b68:	1007883a 	mov	r3,r2
  804b6c:	e0bffc17 	ldw	r2,-16(fp)
  804b70:	10c06005 	stb	r3,384(r2)
  d->_cg124 = d->_region3_null_PVARP < d->PVARP_time;
  804b74:	e0bffc17 	ldw	r2,-16(fp)
  804b78:	14000d17 	ldw	r16,52(r2)
  804b7c:	14400e17 	ldw	r17,56(r2)
  804b80:	e0bffc17 	ldw	r2,-16(fp)
  804b84:	10800117 	ldw	r2,4(r2)
  804b88:	1009883a 	mov	r4,r2
  804b8c:	0808ba00 	call	808ba0 <__floatsidf>
  804b90:	1009883a 	mov	r4,r2
  804b94:	180b883a 	mov	r5,r3
  804b98:	04800044 	movi	r18,1
  804b9c:	200d883a 	mov	r6,r4
  804ba0:	280f883a 	mov	r7,r5
  804ba4:	8009883a 	mov	r4,r16
  804ba8:	880b883a 	mov	r5,r17
  804bac:	08081b00 	call	8081b0 <__ledf2>
  804bb0:	10000116 	blt	r2,zero,804bb8 <logic+0x441c>
  804bb4:	0025883a 	mov	r18,zero
  804bb8:	9007883a 	mov	r3,r18
  804bbc:	e0bffc17 	ldw	r2,-16(fp)
  804bc0:	10c05105 	stb	r3,324(r2)
  d->_g130 = d->_g123_e1 && d->_cg124;
  804bc4:	e0bffc17 	ldw	r2,-16(fp)
  804bc8:	10805fc3 	ldbu	r2,383(r2)
  804bcc:	10803fcc 	andi	r2,r2,255
  804bd0:	1080201c 	xori	r2,r2,128
  804bd4:	10bfe004 	addi	r2,r2,-128
  804bd8:	10000826 	beq	r2,zero,804bfc <logic+0x4460>
  804bdc:	e0bffc17 	ldw	r2,-16(fp)
  804be0:	10805103 	ldbu	r2,324(r2)
  804be4:	10803fcc 	andi	r2,r2,255
  804be8:	1080201c 	xori	r2,r2,128
  804bec:	10bfe004 	addi	r2,r2,-128
  804bf0:	10000226 	beq	r2,zero,804bfc <logic+0x4460>
  804bf4:	00800044 	movi	r2,1
  804bf8:	00000106 	br	804c00 <logic+0x4464>
  804bfc:	0005883a 	mov	r2,zero
  804c00:	1007883a 	mov	r3,r2
  804c04:	e0bffc17 	ldw	r2,-16(fp)
  804c08:	10c03445 	stb	r3,209(r2)
  if (d->_g130) {
  804c0c:	e0bffc17 	ldw	r2,-16(fp)
  804c10:	10803443 	ldbu	r2,209(r2)
  804c14:	10803fcc 	andi	r2,r2,255
  804c18:	1080201c 	xori	r2,r2,128
  804c1c:	10bfe004 	addi	r2,r2,-128
  804c20:	10003426 	beq	r2,zero,804cf4 <logic+0x4558>
    d->sleepT = (d->sleepT < (d->PVARP_time - d->_region3_null_PVARP)) ? d->sleepT : (d->PVARP_time - d->_region3_null_PVARP);
  804c24:	e0bffc17 	ldw	r2,-16(fp)
  804c28:	14001517 	ldw	r16,84(r2)
  804c2c:	14401617 	ldw	r17,88(r2)
  804c30:	e0bffc17 	ldw	r2,-16(fp)
  804c34:	10800117 	ldw	r2,4(r2)
  804c38:	1009883a 	mov	r4,r2
  804c3c:	0808ba00 	call	808ba0 <__floatsidf>
  804c40:	1011883a 	mov	r8,r2
  804c44:	1813883a 	mov	r9,r3
  804c48:	e13ffc17 	ldw	r4,-16(fp)
  804c4c:	20800d17 	ldw	r2,52(r4)
  804c50:	20c00e17 	ldw	r3,56(r4)
  804c54:	100d883a 	mov	r6,r2
  804c58:	180f883a 	mov	r7,r3
  804c5c:	4009883a 	mov	r4,r8
  804c60:	480b883a 	mov	r5,r9
  804c64:	08082a40 	call	8082a4 <__subdf3>
  804c68:	1009883a 	mov	r4,r2
  804c6c:	180b883a 	mov	r5,r3
  804c70:	2005883a 	mov	r2,r4
  804c74:	2807883a 	mov	r3,r5
  804c78:	100d883a 	mov	r6,r2
  804c7c:	180f883a 	mov	r7,r3
  804c80:	8009883a 	mov	r4,r16
  804c84:	880b883a 	mov	r5,r17
  804c88:	08081b00 	call	8081b0 <__ledf2>
  804c8c:	1000040e 	bge	r2,zero,804ca0 <logic+0x4504>
  804c90:	e13ffc17 	ldw	r4,-16(fp)
  804c94:	20801517 	ldw	r2,84(r4)
  804c98:	20c01617 	ldw	r3,88(r4)
  804c9c:	00001206 	br	804ce8 <logic+0x454c>
  804ca0:	e0bffc17 	ldw	r2,-16(fp)
  804ca4:	10800117 	ldw	r2,4(r2)
  804ca8:	1009883a 	mov	r4,r2
  804cac:	0808ba00 	call	808ba0 <__floatsidf>
  804cb0:	1011883a 	mov	r8,r2
  804cb4:	1813883a 	mov	r9,r3
  804cb8:	e13ffc17 	ldw	r4,-16(fp)
  804cbc:	20800d17 	ldw	r2,52(r4)
  804cc0:	20c00e17 	ldw	r3,56(r4)
  804cc4:	100d883a 	mov	r6,r2
  804cc8:	180f883a 	mov	r7,r3
  804ccc:	4009883a 	mov	r4,r8
  804cd0:	480b883a 	mov	r5,r9
  804cd4:	08082a40 	call	8082a4 <__subdf3>
  804cd8:	1009883a 	mov	r4,r2
  804cdc:	180b883a 	mov	r5,r3
  804ce0:	2005883a 	mov	r2,r4
  804ce4:	2807883a 	mov	r3,r5
  804ce8:	e13ffc17 	ldw	r4,-16(fp)
  804cec:	20801515 	stw	r2,84(r4)
  804cf0:	20c01615 	stw	r3,88(r4)
  }
  d->_cg125 = d->_heart2_local__Atrig10 || d->_heart2_local__Atrig11;
  804cf4:	e0bffc17 	ldw	r2,-16(fp)
  804cf8:	10801cc3 	ldbu	r2,115(r2)
  804cfc:	10803fcc 	andi	r2,r2,255
  804d00:	1080201c 	xori	r2,r2,128
  804d04:	10bfe004 	addi	r2,r2,-128
  804d08:	1000061e 	bne	r2,zero,804d24 <logic+0x4588>
  804d0c:	e0bffc17 	ldw	r2,-16(fp)
  804d10:	10801d03 	ldbu	r2,116(r2)
  804d14:	10803fcc 	andi	r2,r2,255
  804d18:	1080201c 	xori	r2,r2,128
  804d1c:	10bfe004 	addi	r2,r2,-128
  804d20:	10000226 	beq	r2,zero,804d2c <logic+0x4590>
  804d24:	00800044 	movi	r2,1
  804d28:	00000106 	br	804d30 <logic+0x4594>
  804d2c:	0005883a 	mov	r2,zero
  804d30:	1007883a 	mov	r3,r2
  804d34:	e0bffc17 	ldw	r2,-16(fp)
  804d38:	10c05145 	stb	r3,325(r2)
  d->_g139 = d->_g130 && !d->_cg125 || d->_g133 && !d->_cg129;
  804d3c:	e0bffc17 	ldw	r2,-16(fp)
  804d40:	10803443 	ldbu	r2,209(r2)
  804d44:	10803fcc 	andi	r2,r2,255
  804d48:	1080201c 	xori	r2,r2,128
  804d4c:	10bfe004 	addi	r2,r2,-128
  804d50:	10000626 	beq	r2,zero,804d6c <logic+0x45d0>
  804d54:	e0bffc17 	ldw	r2,-16(fp)
  804d58:	10805143 	ldbu	r2,325(r2)
  804d5c:	10803fcc 	andi	r2,r2,255
  804d60:	1080201c 	xori	r2,r2,128
  804d64:	10bfe004 	addi	r2,r2,-128
  804d68:	10000c26 	beq	r2,zero,804d9c <logic+0x4600>
  804d6c:	e0bffc17 	ldw	r2,-16(fp)
  804d70:	108034c3 	ldbu	r2,211(r2)
  804d74:	10803fcc 	andi	r2,r2,255
  804d78:	1080201c 	xori	r2,r2,128
  804d7c:	10bfe004 	addi	r2,r2,-128
  804d80:	10000826 	beq	r2,zero,804da4 <logic+0x4608>
  804d84:	e0bffc17 	ldw	r2,-16(fp)
  804d88:	10805183 	ldbu	r2,326(r2)
  804d8c:	10803fcc 	andi	r2,r2,255
  804d90:	1080201c 	xori	r2,r2,128
  804d94:	10bfe004 	addi	r2,r2,-128
  804d98:	1000021e 	bne	r2,zero,804da4 <logic+0x4608>
  804d9c:	00800044 	movi	r2,1
  804da0:	00000106 	br	804da8 <logic+0x460c>
  804da4:	0005883a 	mov	r2,zero
  804da8:	1007883a 	mov	r3,r2
  804dac:	e0bffc17 	ldw	r2,-16(fp)
  804db0:	10c035c5 	stb	r3,215(r2)
  d->_g139_e3 = d->_g123_e1 && !d->_cg124;
  804db4:	e0bffc17 	ldw	r2,-16(fp)
  804db8:	10805fc3 	ldbu	r2,383(r2)
  804dbc:	10803fcc 	andi	r2,r2,255
  804dc0:	1080201c 	xori	r2,r2,128
  804dc4:	10bfe004 	addi	r2,r2,-128
  804dc8:	10000826 	beq	r2,zero,804dec <logic+0x4650>
  804dcc:	e0bffc17 	ldw	r2,-16(fp)
  804dd0:	10805103 	ldbu	r2,324(r2)
  804dd4:	10803fcc 	andi	r2,r2,255
  804dd8:	1080201c 	xori	r2,r2,128
  804ddc:	10bfe004 	addi	r2,r2,-128
  804de0:	1000021e 	bne	r2,zero,804dec <logic+0x4650>
  804de4:	00800044 	movi	r2,1
  804de8:	00000106 	br	804df0 <logic+0x4654>
  804dec:	0005883a 	mov	r2,zero
  804df0:	1007883a 	mov	r3,r2
  804df4:	e0bffc17 	ldw	r2,-16(fp)
  804df8:	10c06045 	stb	r3,385(r2)
  d->_cg134 = d->_heart2_local__Atrig10 || d->_heart2_local__Atrig11;
  804dfc:	e0bffc17 	ldw	r2,-16(fp)
  804e00:	10801cc3 	ldbu	r2,115(r2)
  804e04:	10803fcc 	andi	r2,r2,255
  804e08:	1080201c 	xori	r2,r2,128
  804e0c:	10bfe004 	addi	r2,r2,-128
  804e10:	1000061e 	bne	r2,zero,804e2c <logic+0x4690>
  804e14:	e0bffc17 	ldw	r2,-16(fp)
  804e18:	10801d03 	ldbu	r2,116(r2)
  804e1c:	10803fcc 	andi	r2,r2,255
  804e20:	1080201c 	xori	r2,r2,128
  804e24:	10bfe004 	addi	r2,r2,-128
  804e28:	10000226 	beq	r2,zero,804e34 <logic+0x4698>
  804e2c:	00800044 	movi	r2,1
  804e30:	00000106 	br	804e38 <logic+0x469c>
  804e34:	0005883a 	mov	r2,zero
  804e38:	1007883a 	mov	r3,r2
  804e3c:	e0bffc17 	ldw	r2,-16(fp)
  804e40:	10c05245 	stb	r3,329(r2)
  d->_g156 = d->_g128 && !d->_cg131 || d->_g139_e3 && !d->_cg134;
  804e44:	e0bffc17 	ldw	r2,-16(fp)
  804e48:	108033c3 	ldbu	r2,207(r2)
  804e4c:	10803fcc 	andi	r2,r2,255
  804e50:	1080201c 	xori	r2,r2,128
  804e54:	10bfe004 	addi	r2,r2,-128
  804e58:	10000626 	beq	r2,zero,804e74 <logic+0x46d8>
  804e5c:	e0bffc17 	ldw	r2,-16(fp)
  804e60:	10805203 	ldbu	r2,328(r2)
  804e64:	10803fcc 	andi	r2,r2,255
  804e68:	1080201c 	xori	r2,r2,128
  804e6c:	10bfe004 	addi	r2,r2,-128
  804e70:	10000c26 	beq	r2,zero,804ea4 <logic+0x4708>
  804e74:	e0bffc17 	ldw	r2,-16(fp)
  804e78:	10806043 	ldbu	r2,385(r2)
  804e7c:	10803fcc 	andi	r2,r2,255
  804e80:	1080201c 	xori	r2,r2,128
  804e84:	10bfe004 	addi	r2,r2,-128
  804e88:	10000826 	beq	r2,zero,804eac <logic+0x4710>
  804e8c:	e0bffc17 	ldw	r2,-16(fp)
  804e90:	10805243 	ldbu	r2,329(r2)
  804e94:	10803fcc 	andi	r2,r2,255
  804e98:	1080201c 	xori	r2,r2,128
  804e9c:	10bfe004 	addi	r2,r2,-128
  804ea0:	1000021e 	bne	r2,zero,804eac <logic+0x4710>
  804ea4:	00800044 	movi	r2,1
  804ea8:	00000106 	br	804eb0 <logic+0x4714>
  804eac:	0005883a 	mov	r2,zero
  804eb0:	1007883a 	mov	r3,r2
  804eb4:	e0bffc17 	ldw	r2,-16(fp)
  804eb8:	10c03905 	stb	r3,228(r2)
  d->_g158 = d->_g123_e1 || d->_g152_e2 && !d->AS;
  804ebc:	e0bffc17 	ldw	r2,-16(fp)
  804ec0:	10805fc3 	ldbu	r2,383(r2)
  804ec4:	10803fcc 	andi	r2,r2,255
  804ec8:	1080201c 	xori	r2,r2,128
  804ecc:	10bfe004 	addi	r2,r2,-128
  804ed0:	10000c1e 	bne	r2,zero,804f04 <logic+0x4768>
  804ed4:	e0bffc17 	ldw	r2,-16(fp)
  804ed8:	108060c3 	ldbu	r2,387(r2)
  804edc:	10803fcc 	andi	r2,r2,255
  804ee0:	1080201c 	xori	r2,r2,128
  804ee4:	10bfe004 	addi	r2,r2,-128
  804ee8:	10000826 	beq	r2,zero,804f0c <logic+0x4770>
  804eec:	e0bffc17 	ldw	r2,-16(fp)
  804ef0:	10801703 	ldbu	r2,92(r2)
  804ef4:	10803fcc 	andi	r2,r2,255
  804ef8:	1080201c 	xori	r2,r2,128
  804efc:	10bfe004 	addi	r2,r2,-128
  804f00:	1000021e 	bne	r2,zero,804f0c <logic+0x4770>
  804f04:	00800044 	movi	r2,1
  804f08:	00000106 	br	804f10 <logic+0x4774>
  804f0c:	0005883a 	mov	r2,zero
  804f10:	1007883a 	mov	r3,r2
  804f14:	e0bffc17 	ldw	r2,-16(fp)
  804f18:	10c03985 	stb	r3,230(r2)
  d->_g122 = d->_g150 && !d->_cg155;
  804f1c:	e0bffc17 	ldw	r2,-16(fp)
  804f20:	10803783 	ldbu	r2,222(r2)
  804f24:	10803fcc 	andi	r2,r2,255
  804f28:	1080201c 	xori	r2,r2,128
  804f2c:	10bfe004 	addi	r2,r2,-128
  804f30:	10000826 	beq	r2,zero,804f54 <logic+0x47b8>
  804f34:	e0bffc17 	ldw	r2,-16(fp)
  804f38:	10805443 	ldbu	r2,337(r2)
  804f3c:	10803fcc 	andi	r2,r2,255
  804f40:	1080201c 	xori	r2,r2,128
  804f44:	10bfe004 	addi	r2,r2,-128
  804f48:	1000021e 	bne	r2,zero,804f54 <logic+0x47b8>
  804f4c:	00800044 	movi	r2,1
  804f50:	00000106 	br	804f58 <logic+0x47bc>
  804f54:	0005883a 	mov	r2,zero
  804f58:	1007883a 	mov	r3,r2
  804f5c:	e0bffc17 	ldw	r2,-16(fp)
  804f60:	10c032c5 	stb	r3,203(r2)
  if (d->_g122) {
  804f64:	e0bffc17 	ldw	r2,-16(fp)
  804f68:	108032c3 	ldbu	r2,203(r2)
  804f6c:	10803fcc 	andi	r2,r2,255
  804f70:	1080201c 	xori	r2,r2,128
  804f74:	10bfe004 	addi	r2,r2,-128
  804f78:	10000626 	beq	r2,zero,804f94 <logic+0x47f8>
    d->a |= 1;
  804f7c:	e0bffc17 	ldw	r2,-16(fp)
  804f80:	10801883 	ldbu	r2,98(r2)
  804f84:	10800054 	ori	r2,r2,1
  804f88:	1007883a 	mov	r3,r2
  804f8c:	e0bffc17 	ldw	r2,-16(fp)
  804f90:	10c01885 	stb	r3,98(r2)
  }
  d->_g125 = d->_g141 && d->_cg142 || d->_g122;
  804f94:	e0bffc17 	ldw	r2,-16(fp)
  804f98:	10803643 	ldbu	r2,217(r2)
  804f9c:	10803fcc 	andi	r2,r2,255
  804fa0:	1080201c 	xori	r2,r2,128
  804fa4:	10bfe004 	addi	r2,r2,-128
  804fa8:	10000626 	beq	r2,zero,804fc4 <logic+0x4828>
  804fac:	e0bffc17 	ldw	r2,-16(fp)
  804fb0:	10805303 	ldbu	r2,332(r2)
  804fb4:	10803fcc 	andi	r2,r2,255
  804fb8:	1080201c 	xori	r2,r2,128
  804fbc:	10bfe004 	addi	r2,r2,-128
  804fc0:	1000061e 	bne	r2,zero,804fdc <logic+0x4840>
  804fc4:	e0bffc17 	ldw	r2,-16(fp)
  804fc8:	108032c3 	ldbu	r2,203(r2)
  804fcc:	10803fcc 	andi	r2,r2,255
  804fd0:	1080201c 	xori	r2,r2,128
  804fd4:	10bfe004 	addi	r2,r2,-128
  804fd8:	10000226 	beq	r2,zero,804fe4 <logic+0x4848>
  804fdc:	00800044 	movi	r2,1
  804fe0:	00000106 	br	804fe8 <logic+0x484c>
  804fe4:	0005883a 	mov	r2,zero
  804fe8:	1007883a 	mov	r3,r2
  804fec:	e0bffc17 	ldw	r2,-16(fp)
  804ff0:	10c03345 	stb	r3,205(r2)
  if (d->_g125) {
  804ff4:	e0bffc17 	ldw	r2,-16(fp)
  804ff8:	10803343 	ldbu	r2,205(r2)
  804ffc:	10803fcc 	andi	r2,r2,255
  805000:	1080201c 	xori	r2,r2,128
  805004:	10bfe004 	addi	r2,r2,-128
  805008:	10000426 	beq	r2,zero,80501c <logic+0x4880>
    d->_heart2_local__Atrig12 = 0;
  80500c:	e0bffc17 	ldw	r2,-16(fp)
  805010:	10001d45 	stb	zero,117(r2)
    d->_heart2_local__Atrig13 = 0;
  805014:	e0bffc17 	ldw	r2,-16(fp)
  805018:	10001d85 	stb	zero,118(r2)
  }
  d->_cg144 = d->_heart2_local__Atrig12 || d->_heart2_local__Atrig13;
  80501c:	e0bffc17 	ldw	r2,-16(fp)
  805020:	10801d43 	ldbu	r2,117(r2)
  805024:	10803fcc 	andi	r2,r2,255
  805028:	1080201c 	xori	r2,r2,128
  80502c:	10bfe004 	addi	r2,r2,-128
  805030:	1000061e 	bne	r2,zero,80504c <logic+0x48b0>
  805034:	e0bffc17 	ldw	r2,-16(fp)
  805038:	10801d83 	ldbu	r2,118(r2)
  80503c:	10803fcc 	andi	r2,r2,255
  805040:	1080201c 	xori	r2,r2,128
  805044:	10bfe004 	addi	r2,r2,-128
  805048:	10000226 	beq	r2,zero,805054 <logic+0x48b8>
  80504c:	00800044 	movi	r2,1
  805050:	00000106 	br	805058 <logic+0x48bc>
  805054:	0005883a 	mov	r2,zero
  805058:	1007883a 	mov	r3,r2
  80505c:	e0bffc17 	ldw	r2,-16(fp)
  805060:	10c05345 	stb	r3,333(r2)
  d->_g129 = d->_g125 && !d->_cg144 || d->_g92 && !d->_cg146;
  805064:	e0bffc17 	ldw	r2,-16(fp)
  805068:	10803343 	ldbu	r2,205(r2)
  80506c:	10803fcc 	andi	r2,r2,255
  805070:	1080201c 	xori	r2,r2,128
  805074:	10bfe004 	addi	r2,r2,-128
  805078:	10000626 	beq	r2,zero,805094 <logic+0x48f8>
  80507c:	e0bffc17 	ldw	r2,-16(fp)
  805080:	10805343 	ldbu	r2,333(r2)
  805084:	10803fcc 	andi	r2,r2,255
  805088:	1080201c 	xori	r2,r2,128
  80508c:	10bfe004 	addi	r2,r2,-128
  805090:	10000c26 	beq	r2,zero,8050c4 <logic+0x4928>
  805094:	e0bffc17 	ldw	r2,-16(fp)
  805098:	10802dc3 	ldbu	r2,183(r2)
  80509c:	10803fcc 	andi	r2,r2,255
  8050a0:	1080201c 	xori	r2,r2,128
  8050a4:	10bfe004 	addi	r2,r2,-128
  8050a8:	10000826 	beq	r2,zero,8050cc <logic+0x4930>
  8050ac:	e0bffc17 	ldw	r2,-16(fp)
  8050b0:	10805383 	ldbu	r2,334(r2)
  8050b4:	10803fcc 	andi	r2,r2,255
  8050b8:	1080201c 	xori	r2,r2,128
  8050bc:	10bfe004 	addi	r2,r2,-128
  8050c0:	1000021e 	bne	r2,zero,8050cc <logic+0x4930>
  8050c4:	00800044 	movi	r2,1
  8050c8:	00000106 	br	8050d0 <logic+0x4934>
  8050cc:	0005883a 	mov	r2,zero
  8050d0:	1007883a 	mov	r3,r2
  8050d4:	e0bffc17 	ldw	r2,-16(fp)
  8050d8:	10c03405 	stb	r3,208(r2)
  d->_g134 = d->_g125 || d->_g115 && !d->AS;
  8050dc:	e0bffc17 	ldw	r2,-16(fp)
  8050e0:	10803343 	ldbu	r2,205(r2)
  8050e4:	10803fcc 	andi	r2,r2,255
  8050e8:	1080201c 	xori	r2,r2,128
  8050ec:	10bfe004 	addi	r2,r2,-128
  8050f0:	10000c1e 	bne	r2,zero,805124 <logic+0x4988>
  8050f4:	e0bffc17 	ldw	r2,-16(fp)
  8050f8:	10803203 	ldbu	r2,200(r2)
  8050fc:	10803fcc 	andi	r2,r2,255
  805100:	1080201c 	xori	r2,r2,128
  805104:	10bfe004 	addi	r2,r2,-128
  805108:	10000826 	beq	r2,zero,80512c <logic+0x4990>
  80510c:	e0bffc17 	ldw	r2,-16(fp)
  805110:	10801703 	ldbu	r2,92(r2)
  805114:	10803fcc 	andi	r2,r2,255
  805118:	1080201c 	xori	r2,r2,128
  80511c:	10bfe004 	addi	r2,r2,-128
  805120:	1000021e 	bne	r2,zero,80512c <logic+0x4990>
  805124:	00800044 	movi	r2,1
  805128:	00000106 	br	805130 <logic+0x4994>
  80512c:	0005883a 	mov	r2,zero
  805130:	1007883a 	mov	r3,r2
  805134:	e0bffc17 	ldw	r2,-16(fp)
  805138:	10c03505 	stb	r3,212(r2)
  d->_g131 = d->_pg179;
  80513c:	e0bffc17 	ldw	r2,-16(fp)
  805140:	10c06a03 	ldbu	r3,424(r2)
  805144:	e0bffc17 	ldw	r2,-16(fp)
  805148:	10c03485 	stb	r3,210(r2)
  if (d->_g131) {
  80514c:	e0bffc17 	ldw	r2,-16(fp)
  805150:	10803483 	ldbu	r2,210(r2)
  805154:	10803fcc 	andi	r2,r2,255
  805158:	1080201c 	xori	r2,r2,128
  80515c:	10bfe004 	addi	r2,r2,-128
  805160:	10001226 	beq	r2,zero,8051ac <logic+0x4a10>
    d->_region4_null_AEI += d->deltaT;
  805164:	e13ffc17 	ldw	r4,-16(fp)
  805168:	20800f17 	ldw	r2,60(r4)
  80516c:	20c01017 	ldw	r3,64(r4)
  805170:	e1bffc17 	ldw	r6,-16(fp)
  805174:	31001317 	ldw	r4,76(r6)
  805178:	31401417 	ldw	r5,80(r6)
  80517c:	200d883a 	mov	r6,r4
  805180:	280f883a 	mov	r7,r5
  805184:	1009883a 	mov	r4,r2
  805188:	180b883a 	mov	r5,r3
  80518c:	08078280 	call	807828 <__adddf3>
  805190:	1009883a 	mov	r4,r2
  805194:	180b883a 	mov	r5,r3
  805198:	2005883a 	mov	r2,r4
  80519c:	2807883a 	mov	r3,r5
  8051a0:	e13ffc17 	ldw	r4,-16(fp)
  8051a4:	20800f15 	stw	r2,60(r4)
  8051a8:	20c01015 	stw	r3,64(r4)
  }
  d->_g119 = !d->_g131;
  8051ac:	e0bffc17 	ldw	r2,-16(fp)
  8051b0:	10803483 	ldbu	r2,210(r2)
  8051b4:	10803fcc 	andi	r2,r2,255
  8051b8:	1080201c 	xori	r2,r2,128
  8051bc:	10bfe004 	addi	r2,r2,-128
  8051c0:	1005003a 	cmpeq	r2,r2,zero
  8051c4:	1007883a 	mov	r3,r2
  8051c8:	e0bffc17 	ldw	r2,-16(fp)
  8051cc:	10c03285 	stb	r3,202(r2)
  d->_g140 = d->_pg181_e3;
  8051d0:	e0bffc17 	ldw	r2,-16(fp)
  8051d4:	10c06a43 	ldbu	r3,425(r2)
  8051d8:	e0bffc17 	ldw	r2,-16(fp)
  8051dc:	10c03605 	stb	r3,216(r2)
  d->_cg193 = d->v;
  8051e0:	e0bffc17 	ldw	r2,-16(fp)
  8051e4:	10c018c3 	ldbu	r3,99(r2)
  8051e8:	e0bffc17 	ldw	r2,-16(fp)
  8051ec:	10c057c5 	stb	r3,351(r2)
  d->_g155 = d->_g140 && d->_cg193;
  8051f0:	e0bffc17 	ldw	r2,-16(fp)
  8051f4:	10803603 	ldbu	r2,216(r2)
  8051f8:	10803fcc 	andi	r2,r2,255
  8051fc:	1080201c 	xori	r2,r2,128
  805200:	10bfe004 	addi	r2,r2,-128
  805204:	10000826 	beq	r2,zero,805228 <logic+0x4a8c>
  805208:	e0bffc17 	ldw	r2,-16(fp)
  80520c:	108057c3 	ldbu	r2,351(r2)
  805210:	10803fcc 	andi	r2,r2,255
  805214:	1080201c 	xori	r2,r2,128
  805218:	10bfe004 	addi	r2,r2,-128
  80521c:	10000226 	beq	r2,zero,805228 <logic+0x4a8c>
  805220:	00800044 	movi	r2,1
  805224:	00000106 	br	80522c <logic+0x4a90>
  805228:	0005883a 	mov	r2,zero
  80522c:	1007883a 	mov	r3,r2
  805230:	e0bffc17 	ldw	r2,-16(fp)
  805234:	10c038c5 	stb	r3,227(r2)
  if (d->_g155) {
  805238:	e0bffc17 	ldw	r2,-16(fp)
  80523c:	108038c3 	ldbu	r2,227(r2)
  805240:	10803fcc 	andi	r2,r2,255
  805244:	1080201c 	xori	r2,r2,128
  805248:	10bfe004 	addi	r2,r2,-128
  80524c:	10000326 	beq	r2,zero,80525c <logic+0x4ac0>
    d->_heart2_local__Atrig16 = 1;
  805250:	e0bffc17 	ldw	r2,-16(fp)
  805254:	00c00044 	movi	r3,1
  805258:	10c01e45 	stb	r3,121(r2)
  }
  d->_cg189 = d->_heart2_local__Atrig16;
  80525c:	e0bffc17 	ldw	r2,-16(fp)
  805260:	10c01e43 	ldbu	r3,121(r2)
  805264:	e0bffc17 	ldw	r2,-16(fp)
  805268:	10c05785 	stb	r3,350(r2)
  d->_g157 = d->_g131 && d->_cg189;
  80526c:	e0bffc17 	ldw	r2,-16(fp)
  805270:	10803483 	ldbu	r2,210(r2)
  805274:	10803fcc 	andi	r2,r2,255
  805278:	1080201c 	xori	r2,r2,128
  80527c:	10bfe004 	addi	r2,r2,-128
  805280:	10000826 	beq	r2,zero,8052a4 <logic+0x4b08>
  805284:	e0bffc17 	ldw	r2,-16(fp)
  805288:	10805783 	ldbu	r2,350(r2)
  80528c:	10803fcc 	andi	r2,r2,255
  805290:	1080201c 	xori	r2,r2,128
  805294:	10bfe004 	addi	r2,r2,-128
  805298:	10000226 	beq	r2,zero,8052a4 <logic+0x4b08>
  80529c:	00800044 	movi	r2,1
  8052a0:	00000106 	br	8052a8 <logic+0x4b0c>
  8052a4:	0005883a 	mov	r2,zero
  8052a8:	1007883a 	mov	r3,r2
  8052ac:	e0bffc17 	ldw	r2,-16(fp)
  8052b0:	10c03945 	stb	r3,229(r2)
  d->_g142 = !d->_g140;
  8052b4:	e0bffc17 	ldw	r2,-16(fp)
  8052b8:	10803603 	ldbu	r2,216(r2)
  8052bc:	10803fcc 	andi	r2,r2,255
  8052c0:	1080201c 	xori	r2,r2,128
  8052c4:	10bfe004 	addi	r2,r2,-128
  8052c8:	1005003a 	cmpeq	r2,r2,zero
  8052cc:	1007883a 	mov	r3,r2
  8052d0:	e0bffc17 	ldw	r2,-16(fp)
  8052d4:	10c03685 	stb	r3,218(r2)
  d->_g146 = (d->_g119 || d->_g157) && (d->_g142 || d->_g155) && (d->_g157 || d->_g155);
  8052d8:	e0bffc17 	ldw	r2,-16(fp)
  8052dc:	10803283 	ldbu	r2,202(r2)
  8052e0:	10803fcc 	andi	r2,r2,255
  8052e4:	1080201c 	xori	r2,r2,128
  8052e8:	10bfe004 	addi	r2,r2,-128
  8052ec:	1000061e 	bne	r2,zero,805308 <logic+0x4b6c>
  8052f0:	e0bffc17 	ldw	r2,-16(fp)
  8052f4:	10803943 	ldbu	r2,229(r2)
  8052f8:	10803fcc 	andi	r2,r2,255
  8052fc:	1080201c 	xori	r2,r2,128
  805300:	10bfe004 	addi	r2,r2,-128
  805304:	10001a26 	beq	r2,zero,805370 <logic+0x4bd4>
  805308:	e0bffc17 	ldw	r2,-16(fp)
  80530c:	10803683 	ldbu	r2,218(r2)
  805310:	10803fcc 	andi	r2,r2,255
  805314:	1080201c 	xori	r2,r2,128
  805318:	10bfe004 	addi	r2,r2,-128
  80531c:	1000061e 	bne	r2,zero,805338 <logic+0x4b9c>
  805320:	e0bffc17 	ldw	r2,-16(fp)
  805324:	108038c3 	ldbu	r2,227(r2)
  805328:	10803fcc 	andi	r2,r2,255
  80532c:	1080201c 	xori	r2,r2,128
  805330:	10bfe004 	addi	r2,r2,-128
  805334:	10000e26 	beq	r2,zero,805370 <logic+0x4bd4>
  805338:	e0bffc17 	ldw	r2,-16(fp)
  80533c:	10803943 	ldbu	r2,229(r2)
  805340:	10803fcc 	andi	r2,r2,255
  805344:	1080201c 	xori	r2,r2,128
  805348:	10bfe004 	addi	r2,r2,-128
  80534c:	1000061e 	bne	r2,zero,805368 <logic+0x4bcc>
  805350:	e0bffc17 	ldw	r2,-16(fp)
  805354:	108038c3 	ldbu	r2,227(r2)
  805358:	10803fcc 	andi	r2,r2,255
  80535c:	1080201c 	xori	r2,r2,128
  805360:	10bfe004 	addi	r2,r2,-128
  805364:	10000226 	beq	r2,zero,805370 <logic+0x4bd4>
  805368:	00800044 	movi	r2,1
  80536c:	00000106 	br	805374 <logic+0x4bd8>
  805370:	0005883a 	mov	r2,zero
  805374:	1007883a 	mov	r3,r2
  805378:	e0bffc17 	ldw	r2,-16(fp)
  80537c:	10c03705 	stb	r3,220(r2)
  if (d->_g146) {
  805380:	e0bffc17 	ldw	r2,-16(fp)
  805384:	10803703 	ldbu	r2,220(r2)
  805388:	10803fcc 	andi	r2,r2,255
  80538c:	1080201c 	xori	r2,r2,128
  805390:	10bfe004 	addi	r2,r2,-128
  805394:	10000326 	beq	r2,zero,8053a4 <logic+0x4c08>
    d->_region4_null_AEI = 0;
  805398:	e0bffc17 	ldw	r2,-16(fp)
  80539c:	10000f15 	stw	zero,60(r2)
  8053a0:	10001015 	stw	zero,64(r2)
  }
  d->_g153 = d->_GO || d->_g146;
  8053a4:	e0bffc17 	ldw	r2,-16(fp)
  8053a8:	10804543 	ldbu	r2,277(r2)
  8053ac:	10803fcc 	andi	r2,r2,255
  8053b0:	1080201c 	xori	r2,r2,128
  8053b4:	10bfe004 	addi	r2,r2,-128
  8053b8:	1000061e 	bne	r2,zero,8053d4 <logic+0x4c38>
  8053bc:	e0bffc17 	ldw	r2,-16(fp)
  8053c0:	10803703 	ldbu	r2,220(r2)
  8053c4:	10803fcc 	andi	r2,r2,255
  8053c8:	1080201c 	xori	r2,r2,128
  8053cc:	10bfe004 	addi	r2,r2,-128
  8053d0:	10000226 	beq	r2,zero,8053dc <logic+0x4c40>
  8053d4:	00800044 	movi	r2,1
  8053d8:	00000106 	br	8053e0 <logic+0x4c44>
  8053dc:	0005883a 	mov	r2,zero
  8053e0:	1007883a 	mov	r3,r2
  8053e4:	e0bffc17 	ldw	r2,-16(fp)
  8053e8:	10c03845 	stb	r3,225(r2)
  if (d->_g153) {
  8053ec:	e0bffc17 	ldw	r2,-16(fp)
  8053f0:	10803843 	ldbu	r2,225(r2)
  8053f4:	10803fcc 	andi	r2,r2,255
  8053f8:	1080201c 	xori	r2,r2,128
  8053fc:	10bfe004 	addi	r2,r2,-128
  805400:	10000426 	beq	r2,zero,805414 <logic+0x4c78>
    d->_heart2_local__Atrig14 = 0;
  805404:	e0bffc17 	ldw	r2,-16(fp)
  805408:	10001dc5 	stb	zero,119(r2)
    d->_heart2_local__Atrig15 = 0;
  80540c:	e0bffc17 	ldw	r2,-16(fp)
  805410:	10001e05 	stb	zero,120(r2)
  }
  d->_cg162 = d->_heart2_local__Atrig14 || d->_heart2_local__Atrig15;
  805414:	e0bffc17 	ldw	r2,-16(fp)
  805418:	10801dc3 	ldbu	r2,119(r2)
  80541c:	10803fcc 	andi	r2,r2,255
  805420:	1080201c 	xori	r2,r2,128
  805424:	10bfe004 	addi	r2,r2,-128
  805428:	1000061e 	bne	r2,zero,805444 <logic+0x4ca8>
  80542c:	e0bffc17 	ldw	r2,-16(fp)
  805430:	10801e03 	ldbu	r2,120(r2)
  805434:	10803fcc 	andi	r2,r2,255
  805438:	1080201c 	xori	r2,r2,128
  80543c:	10bfe004 	addi	r2,r2,-128
  805440:	10000226 	beq	r2,zero,80544c <logic+0x4cb0>
  805444:	00800044 	movi	r2,1
  805448:	00000106 	br	805450 <logic+0x4cb4>
  80544c:	0005883a 	mov	r2,zero
  805450:	1007883a 	mov	r3,r2
  805454:	e0bffc17 	ldw	r2,-16(fp)
  805458:	10c05485 	stb	r3,338(r2)
  d->_g143 = d->_pg195;
  80545c:	e0bffc17 	ldw	r2,-16(fp)
  805460:	10c06a83 	ldbu	r3,426(r2)
  805464:	e0bffc17 	ldw	r2,-16(fp)
  805468:	10c036c5 	stb	r3,219(r2)
  if (d->_g143) {
  80546c:	e0bffc17 	ldw	r2,-16(fp)
  805470:	108036c3 	ldbu	r2,219(r2)
  805474:	10803fcc 	andi	r2,r2,255
  805478:	1080201c 	xori	r2,r2,128
  80547c:	10bfe004 	addi	r2,r2,-128
  805480:	10001226 	beq	r2,zero,8054cc <logic+0x4d30>
    d->_region4_null_AEI += d->deltaT;
  805484:	e13ffc17 	ldw	r4,-16(fp)
  805488:	20800f17 	ldw	r2,60(r4)
  80548c:	20c01017 	ldw	r3,64(r4)
  805490:	e1bffc17 	ldw	r6,-16(fp)
  805494:	31001317 	ldw	r4,76(r6)
  805498:	31401417 	ldw	r5,80(r6)
  80549c:	200d883a 	mov	r6,r4
  8054a0:	280f883a 	mov	r7,r5
  8054a4:	1009883a 	mov	r4,r2
  8054a8:	180b883a 	mov	r5,r3
  8054ac:	08078280 	call	807828 <__adddf3>
  8054b0:	1009883a 	mov	r4,r2
  8054b4:	180b883a 	mov	r5,r3
  8054b8:	2005883a 	mov	r2,r4
  8054bc:	2807883a 	mov	r3,r5
  8054c0:	e13ffc17 	ldw	r4,-16(fp)
  8054c4:	20800f15 	stw	r2,60(r4)
  8054c8:	20c01015 	stw	r3,64(r4)
  }
  d->_g190_e1 = d->_pg173;
  8054cc:	e0bffc17 	ldw	r2,-16(fp)
  8054d0:	10c06ac3 	ldbu	r3,427(r2)
  8054d4:	e0bffc17 	ldw	r2,-16(fp)
  8054d8:	10c061c5 	stb	r3,391(r2)
  d->_cg179 = d->_region4_null_AEI >= d->AEI_time;
  8054dc:	e0bffc17 	ldw	r2,-16(fp)
  8054e0:	14000f17 	ldw	r16,60(r2)
  8054e4:	14401017 	ldw	r17,64(r2)
  8054e8:	e0bffc17 	ldw	r2,-16(fp)
  8054ec:	10800417 	ldw	r2,16(r2)
  8054f0:	1009883a 	mov	r4,r2
  8054f4:	0808ba00 	call	808ba0 <__floatsidf>
  8054f8:	1009883a 	mov	r4,r2
  8054fc:	180b883a 	mov	r5,r3
  805500:	04800044 	movi	r18,1
  805504:	200d883a 	mov	r6,r4
  805508:	280f883a 	mov	r7,r5
  80550c:	8009883a 	mov	r4,r16
  805510:	880b883a 	mov	r5,r17
  805514:	08080d40 	call	8080d4 <__gedf2>
  805518:	1000010e 	bge	r2,zero,805520 <logic+0x4d84>
  80551c:	0025883a 	mov	r18,zero
  805520:	9007883a 	mov	r3,r18
  805524:	e0bffc17 	ldw	r2,-16(fp)
  805528:	10c056c5 	stb	r3,347(r2)
  d->_g190 = d->_g190_e1 && d->_cg179;
  80552c:	e0bffc17 	ldw	r2,-16(fp)
  805530:	108061c3 	ldbu	r2,391(r2)
  805534:	10803fcc 	andi	r2,r2,255
  805538:	1080201c 	xori	r2,r2,128
  80553c:	10bfe004 	addi	r2,r2,-128
  805540:	10000826 	beq	r2,zero,805564 <logic+0x4dc8>
  805544:	e0bffc17 	ldw	r2,-16(fp)
  805548:	108056c3 	ldbu	r2,347(r2)
  80554c:	10803fcc 	andi	r2,r2,255
  805550:	1080201c 	xori	r2,r2,128
  805554:	10bfe004 	addi	r2,r2,-128
  805558:	10000226 	beq	r2,zero,805564 <logic+0x4dc8>
  80555c:	00800044 	movi	r2,1
  805560:	00000106 	br	805568 <logic+0x4dcc>
  805564:	0005883a 	mov	r2,zero
  805568:	1007883a 	mov	r3,r2
  80556c:	e0bffc17 	ldw	r2,-16(fp)
  805570:	10c03ec5 	stb	r3,251(r2)
  if (d->_g190) {
  805574:	e0bffc17 	ldw	r2,-16(fp)
  805578:	10803ec3 	ldbu	r2,251(r2)
  80557c:	10803fcc 	andi	r2,r2,255
  805580:	1080201c 	xori	r2,r2,128
  805584:	10bfe004 	addi	r2,r2,-128
  805588:	10000326 	beq	r2,zero,805598 <logic+0x4dfc>
    d->_heart2_local__Atrig14 = 1;
  80558c:	e0bffc17 	ldw	r2,-16(fp)
  805590:	00c00044 	movi	r3,1
  805594:	10c01dc5 	stb	r3,119(r2)
  }
  d->_g194_e2 = d->_g190_e1 && !d->_cg179;
  805598:	e0bffc17 	ldw	r2,-16(fp)
  80559c:	108061c3 	ldbu	r2,391(r2)
  8055a0:	10803fcc 	andi	r2,r2,255
  8055a4:	1080201c 	xori	r2,r2,128
  8055a8:	10bfe004 	addi	r2,r2,-128
  8055ac:	10000826 	beq	r2,zero,8055d0 <logic+0x4e34>
  8055b0:	e0bffc17 	ldw	r2,-16(fp)
  8055b4:	108056c3 	ldbu	r2,347(r2)
  8055b8:	10803fcc 	andi	r2,r2,255
  8055bc:	1080201c 	xori	r2,r2,128
  8055c0:	10bfe004 	addi	r2,r2,-128
  8055c4:	1000021e 	bne	r2,zero,8055d0 <logic+0x4e34>
  8055c8:	00800044 	movi	r2,1
  8055cc:	00000106 	br	8055d4 <logic+0x4e38>
  8055d0:	0005883a 	mov	r2,zero
  8055d4:	1007883a 	mov	r3,r2
  8055d8:	e0bffc17 	ldw	r2,-16(fp)
  8055dc:	10c06205 	stb	r3,392(r2)
  d->_cg182 = d->a;
  8055e0:	e0bffc17 	ldw	r2,-16(fp)
  8055e4:	10c01883 	ldbu	r3,98(r2)
  8055e8:	e0bffc17 	ldw	r2,-16(fp)
  8055ec:	10c05685 	stb	r3,346(r2)
  d->_g194 = d->_g194_e2 && d->_cg182;
  8055f0:	e0bffc17 	ldw	r2,-16(fp)
  8055f4:	10806203 	ldbu	r2,392(r2)
  8055f8:	10803fcc 	andi	r2,r2,255
  8055fc:	1080201c 	xori	r2,r2,128
  805600:	10bfe004 	addi	r2,r2,-128
  805604:	10000826 	beq	r2,zero,805628 <logic+0x4e8c>
  805608:	e0bffc17 	ldw	r2,-16(fp)
  80560c:	10805683 	ldbu	r2,346(r2)
  805610:	10803fcc 	andi	r2,r2,255
  805614:	1080201c 	xori	r2,r2,128
  805618:	10bfe004 	addi	r2,r2,-128
  80561c:	10000226 	beq	r2,zero,805628 <logic+0x4e8c>
  805620:	00800044 	movi	r2,1
  805624:	00000106 	br	80562c <logic+0x4e90>
  805628:	0005883a 	mov	r2,zero
  80562c:	1007883a 	mov	r3,r2
  805630:	e0bffc17 	ldw	r2,-16(fp)
  805634:	10c03f45 	stb	r3,253(r2)
  if (d->_g194) {
  805638:	e0bffc17 	ldw	r2,-16(fp)
  80563c:	10803f43 	ldbu	r2,253(r2)
  805640:	10803fcc 	andi	r2,r2,255
  805644:	1080201c 	xori	r2,r2,128
  805648:	10bfe004 	addi	r2,r2,-128
  80564c:	10000326 	beq	r2,zero,80565c <logic+0x4ec0>
    d->_heart2_local__Atrig15 = 1;
  805650:	e0bffc17 	ldw	r2,-16(fp)
  805654:	00c00044 	movi	r3,1
  805658:	10c01e05 	stb	r3,120(r2)
  }
  d->_cg164 = d->_heart2_local__Atrig14 || d->_heart2_local__Atrig15;
  80565c:	e0bffc17 	ldw	r2,-16(fp)
  805660:	10801dc3 	ldbu	r2,119(r2)
  805664:	10803fcc 	andi	r2,r2,255
  805668:	1080201c 	xori	r2,r2,128
  80566c:	10bfe004 	addi	r2,r2,-128
  805670:	1000061e 	bne	r2,zero,80568c <logic+0x4ef0>
  805674:	e0bffc17 	ldw	r2,-16(fp)
  805678:	10801e03 	ldbu	r2,120(r2)
  80567c:	10803fcc 	andi	r2,r2,255
  805680:	1080201c 	xori	r2,r2,128
  805684:	10bfe004 	addi	r2,r2,-128
  805688:	10000226 	beq	r2,zero,805694 <logic+0x4ef8>
  80568c:	00800044 	movi	r2,1
  805690:	00000106 	br	805698 <logic+0x4efc>
  805694:	0005883a 	mov	r2,zero
  805698:	1007883a 	mov	r3,r2
  80569c:	e0bffc17 	ldw	r2,-16(fp)
  8056a0:	10c054c5 	stb	r3,339(r2)
  d->_g195 = d->_g153 && !d->_cg162 || d->_g143 && !d->_cg164;
  8056a4:	e0bffc17 	ldw	r2,-16(fp)
  8056a8:	10803843 	ldbu	r2,225(r2)
  8056ac:	10803fcc 	andi	r2,r2,255
  8056b0:	1080201c 	xori	r2,r2,128
  8056b4:	10bfe004 	addi	r2,r2,-128
  8056b8:	10000626 	beq	r2,zero,8056d4 <logic+0x4f38>
  8056bc:	e0bffc17 	ldw	r2,-16(fp)
  8056c0:	10805483 	ldbu	r2,338(r2)
  8056c4:	10803fcc 	andi	r2,r2,255
  8056c8:	1080201c 	xori	r2,r2,128
  8056cc:	10bfe004 	addi	r2,r2,-128
  8056d0:	10000c26 	beq	r2,zero,805704 <logic+0x4f68>
  8056d4:	e0bffc17 	ldw	r2,-16(fp)
  8056d8:	108036c3 	ldbu	r2,219(r2)
  8056dc:	10803fcc 	andi	r2,r2,255
  8056e0:	1080201c 	xori	r2,r2,128
  8056e4:	10bfe004 	addi	r2,r2,-128
  8056e8:	10000826 	beq	r2,zero,80570c <logic+0x4f70>
  8056ec:	e0bffc17 	ldw	r2,-16(fp)
  8056f0:	108054c3 	ldbu	r2,339(r2)
  8056f4:	10803fcc 	andi	r2,r2,255
  8056f8:	1080201c 	xori	r2,r2,128
  8056fc:	10bfe004 	addi	r2,r2,-128
  805700:	1000021e 	bne	r2,zero,80570c <logic+0x4f70>
  805704:	00800044 	movi	r2,1
  805708:	00000106 	br	805710 <logic+0x4f74>
  80570c:	0005883a 	mov	r2,zero
  805710:	1007883a 	mov	r3,r2
  805714:	e0bffc17 	ldw	r2,-16(fp)
  805718:	10c03f85 	stb	r3,254(r2)
  d->_g165 = d->_g143 && d->_cg164;
  80571c:	e0bffc17 	ldw	r2,-16(fp)
  805720:	108036c3 	ldbu	r2,219(r2)
  805724:	10803fcc 	andi	r2,r2,255
  805728:	1080201c 	xori	r2,r2,128
  80572c:	10bfe004 	addi	r2,r2,-128
  805730:	10000826 	beq	r2,zero,805754 <logic+0x4fb8>
  805734:	e0bffc17 	ldw	r2,-16(fp)
  805738:	108054c3 	ldbu	r2,339(r2)
  80573c:	10803fcc 	andi	r2,r2,255
  805740:	1080201c 	xori	r2,r2,128
  805744:	10bfe004 	addi	r2,r2,-128
  805748:	10000226 	beq	r2,zero,805754 <logic+0x4fb8>
  80574c:	00800044 	movi	r2,1
  805750:	00000106 	br	805758 <logic+0x4fbc>
  805754:	0005883a 	mov	r2,zero
  805758:	1007883a 	mov	r3,r2
  80575c:	e0bffc17 	ldw	r2,-16(fp)
  805760:	10c03a45 	stb	r3,233(r2)
  d->_cg166 = d->_region4_null_AEI < d->AEI_time;
  805764:	e0bffc17 	ldw	r2,-16(fp)
  805768:	14000f17 	ldw	r16,60(r2)
  80576c:	14401017 	ldw	r17,64(r2)
  805770:	e0bffc17 	ldw	r2,-16(fp)
  805774:	10800417 	ldw	r2,16(r2)
  805778:	1009883a 	mov	r4,r2
  80577c:	0808ba00 	call	808ba0 <__floatsidf>
  805780:	1009883a 	mov	r4,r2
  805784:	180b883a 	mov	r5,r3
  805788:	04800044 	movi	r18,1
  80578c:	200d883a 	mov	r6,r4
  805790:	280f883a 	mov	r7,r5
  805794:	8009883a 	mov	r4,r16
  805798:	880b883a 	mov	r5,r17
  80579c:	08081b00 	call	8081b0 <__ledf2>
  8057a0:	10000116 	blt	r2,zero,8057a8 <logic+0x500c>
  8057a4:	0025883a 	mov	r18,zero
  8057a8:	9007883a 	mov	r3,r18
  8057ac:	e0bffc17 	ldw	r2,-16(fp)
  8057b0:	10c05505 	stb	r3,340(r2)
  d->_g167 = d->_g153 && d->_cg166;
  8057b4:	e0bffc17 	ldw	r2,-16(fp)
  8057b8:	10803843 	ldbu	r2,225(r2)
  8057bc:	10803fcc 	andi	r2,r2,255
  8057c0:	1080201c 	xori	r2,r2,128
  8057c4:	10bfe004 	addi	r2,r2,-128
  8057c8:	10000826 	beq	r2,zero,8057ec <logic+0x5050>
  8057cc:	e0bffc17 	ldw	r2,-16(fp)
  8057d0:	10805503 	ldbu	r2,340(r2)
  8057d4:	10803fcc 	andi	r2,r2,255
  8057d8:	1080201c 	xori	r2,r2,128
  8057dc:	10bfe004 	addi	r2,r2,-128
  8057e0:	10000226 	beq	r2,zero,8057ec <logic+0x5050>
  8057e4:	00800044 	movi	r2,1
  8057e8:	00000106 	br	8057f0 <logic+0x5054>
  8057ec:	0005883a 	mov	r2,zero
  8057f0:	1007883a 	mov	r3,r2
  8057f4:	e0bffc17 	ldw	r2,-16(fp)
  8057f8:	10c03a85 	stb	r3,234(r2)
  if (d->_g167) {
  8057fc:	e0bffc17 	ldw	r2,-16(fp)
  805800:	10803a83 	ldbu	r2,234(r2)
  805804:	10803fcc 	andi	r2,r2,255
  805808:	1080201c 	xori	r2,r2,128
  80580c:	10bfe004 	addi	r2,r2,-128
  805810:	10003426 	beq	r2,zero,8058e4 <logic+0x5148>
    d->sleepT = (d->sleepT < (d->AEI_time - d->_region4_null_AEI)) ? d->sleepT : (d->AEI_time - d->_region4_null_AEI);
  805814:	e0bffc17 	ldw	r2,-16(fp)
  805818:	14001517 	ldw	r16,84(r2)
  80581c:	14401617 	ldw	r17,88(r2)
  805820:	e0bffc17 	ldw	r2,-16(fp)
  805824:	10800417 	ldw	r2,16(r2)
  805828:	1009883a 	mov	r4,r2
  80582c:	0808ba00 	call	808ba0 <__floatsidf>
  805830:	1011883a 	mov	r8,r2
  805834:	1813883a 	mov	r9,r3
  805838:	e13ffc17 	ldw	r4,-16(fp)
  80583c:	20800f17 	ldw	r2,60(r4)
  805840:	20c01017 	ldw	r3,64(r4)
  805844:	100d883a 	mov	r6,r2
  805848:	180f883a 	mov	r7,r3
  80584c:	4009883a 	mov	r4,r8
  805850:	480b883a 	mov	r5,r9
  805854:	08082a40 	call	8082a4 <__subdf3>
  805858:	1009883a 	mov	r4,r2
  80585c:	180b883a 	mov	r5,r3
  805860:	2005883a 	mov	r2,r4
  805864:	2807883a 	mov	r3,r5
  805868:	100d883a 	mov	r6,r2
  80586c:	180f883a 	mov	r7,r3
  805870:	8009883a 	mov	r4,r16
  805874:	880b883a 	mov	r5,r17
  805878:	08081b00 	call	8081b0 <__ledf2>
  80587c:	1000040e 	bge	r2,zero,805890 <logic+0x50f4>
  805880:	e13ffc17 	ldw	r4,-16(fp)
  805884:	20801517 	ldw	r2,84(r4)
  805888:	20c01617 	ldw	r3,88(r4)
  80588c:	00001206 	br	8058d8 <logic+0x513c>
  805890:	e0bffc17 	ldw	r2,-16(fp)
  805894:	10800417 	ldw	r2,16(r2)
  805898:	1009883a 	mov	r4,r2
  80589c:	0808ba00 	call	808ba0 <__floatsidf>
  8058a0:	1011883a 	mov	r8,r2
  8058a4:	1813883a 	mov	r9,r3
  8058a8:	e13ffc17 	ldw	r4,-16(fp)
  8058ac:	20800f17 	ldw	r2,60(r4)
  8058b0:	20c01017 	ldw	r3,64(r4)
  8058b4:	100d883a 	mov	r6,r2
  8058b8:	180f883a 	mov	r7,r3
  8058bc:	4009883a 	mov	r4,r8
  8058c0:	480b883a 	mov	r5,r9
  8058c4:	08082a40 	call	8082a4 <__subdf3>
  8058c8:	1009883a 	mov	r4,r2
  8058cc:	180b883a 	mov	r5,r3
  8058d0:	2005883a 	mov	r2,r4
  8058d4:	2807883a 	mov	r3,r5
  8058d8:	e13ffc17 	ldw	r4,-16(fp)
  8058dc:	20801515 	stw	r2,84(r4)
  8058e0:	20c01615 	stw	r3,88(r4)
  }
  d->_cg167 = d->_heart2_local__Atrig14 || d->_heart2_local__Atrig15;
  8058e4:	e0bffc17 	ldw	r2,-16(fp)
  8058e8:	10801dc3 	ldbu	r2,119(r2)
  8058ec:	10803fcc 	andi	r2,r2,255
  8058f0:	1080201c 	xori	r2,r2,128
  8058f4:	10bfe004 	addi	r2,r2,-128
  8058f8:	1000061e 	bne	r2,zero,805914 <logic+0x5178>
  8058fc:	e0bffc17 	ldw	r2,-16(fp)
  805900:	10801e03 	ldbu	r2,120(r2)
  805904:	10803fcc 	andi	r2,r2,255
  805908:	1080201c 	xori	r2,r2,128
  80590c:	10bfe004 	addi	r2,r2,-128
  805910:	10000226 	beq	r2,zero,80591c <logic+0x5180>
  805914:	00800044 	movi	r2,1
  805918:	00000106 	br	805920 <logic+0x5184>
  80591c:	0005883a 	mov	r2,zero
  805920:	1007883a 	mov	r3,r2
  805924:	e0bffc17 	ldw	r2,-16(fp)
  805928:	10c05545 	stb	r3,341(r2)
  d->_g169 = d->_pg167;
  80592c:	e0bffc17 	ldw	r2,-16(fp)
  805930:	10c06b03 	ldbu	r3,428(r2)
  805934:	e0bffc17 	ldw	r2,-16(fp)
  805938:	10c03ac5 	stb	r3,235(r2)
  d->_g175 = d->_pg176;
  80593c:	e0bffc17 	ldw	r2,-16(fp)
  805940:	10c06b43 	ldbu	r3,429(r2)
  805944:	e0bffc17 	ldw	r2,-16(fp)
  805948:	10c03c05 	stb	r3,240(r2)
  d->_g170 = d->_g169 || d->_g175;
  80594c:	e0bffc17 	ldw	r2,-16(fp)
  805950:	10803ac3 	ldbu	r2,235(r2)
  805954:	10803fcc 	andi	r2,r2,255
  805958:	1080201c 	xori	r2,r2,128
  80595c:	10bfe004 	addi	r2,r2,-128
  805960:	1000061e 	bne	r2,zero,80597c <logic+0x51e0>
  805964:	e0bffc17 	ldw	r2,-16(fp)
  805968:	10803c03 	ldbu	r2,240(r2)
  80596c:	10803fcc 	andi	r2,r2,255
  805970:	1080201c 	xori	r2,r2,128
  805974:	10bfe004 	addi	r2,r2,-128
  805978:	10000226 	beq	r2,zero,805984 <logic+0x51e8>
  80597c:	00800044 	movi	r2,1
  805980:	00000106 	br	805988 <logic+0x51ec>
  805984:	0005883a 	mov	r2,zero
  805988:	1007883a 	mov	r3,r2
  80598c:	e0bffc17 	ldw	r2,-16(fp)
  805990:	10c03b05 	stb	r3,236(r2)
  d->_cg170 = d->_region4_null_AEI < d->AEI_time;
  805994:	e0bffc17 	ldw	r2,-16(fp)
  805998:	14000f17 	ldw	r16,60(r2)
  80599c:	14401017 	ldw	r17,64(r2)
  8059a0:	e0bffc17 	ldw	r2,-16(fp)
  8059a4:	10800417 	ldw	r2,16(r2)
  8059a8:	1009883a 	mov	r4,r2
  8059ac:	0808ba00 	call	808ba0 <__floatsidf>
  8059b0:	1009883a 	mov	r4,r2
  8059b4:	180b883a 	mov	r5,r3
  8059b8:	04800044 	movi	r18,1
  8059bc:	200d883a 	mov	r6,r4
  8059c0:	280f883a 	mov	r7,r5
  8059c4:	8009883a 	mov	r4,r16
  8059c8:	880b883a 	mov	r5,r17
  8059cc:	08081b00 	call	8081b0 <__ledf2>
  8059d0:	10000116 	blt	r2,zero,8059d8 <logic+0x523c>
  8059d4:	0025883a 	mov	r18,zero
  8059d8:	9007883a 	mov	r3,r18
  8059dc:	e0bffc17 	ldw	r2,-16(fp)
  8059e0:	10c055c5 	stb	r3,343(r2)
  d->_g171 = d->_g170 && d->_cg170;
  8059e4:	e0bffc17 	ldw	r2,-16(fp)
  8059e8:	10803b03 	ldbu	r2,236(r2)
  8059ec:	10803fcc 	andi	r2,r2,255
  8059f0:	1080201c 	xori	r2,r2,128
  8059f4:	10bfe004 	addi	r2,r2,-128
  8059f8:	10000826 	beq	r2,zero,805a1c <logic+0x5280>
  8059fc:	e0bffc17 	ldw	r2,-16(fp)
  805a00:	108055c3 	ldbu	r2,343(r2)
  805a04:	10803fcc 	andi	r2,r2,255
  805a08:	1080201c 	xori	r2,r2,128
  805a0c:	10bfe004 	addi	r2,r2,-128
  805a10:	10000226 	beq	r2,zero,805a1c <logic+0x5280>
  805a14:	00800044 	movi	r2,1
  805a18:	00000106 	br	805a20 <logic+0x5284>
  805a1c:	0005883a 	mov	r2,zero
  805a20:	1007883a 	mov	r3,r2
  805a24:	e0bffc17 	ldw	r2,-16(fp)
  805a28:	10c03b45 	stb	r3,237(r2)
  if (d->_g171) {
  805a2c:	e0bffc17 	ldw	r2,-16(fp)
  805a30:	10803b43 	ldbu	r2,237(r2)
  805a34:	10803fcc 	andi	r2,r2,255
  805a38:	1080201c 	xori	r2,r2,128
  805a3c:	10bfe004 	addi	r2,r2,-128
  805a40:	10003426 	beq	r2,zero,805b14 <logic+0x5378>
    d->sleepT = (d->sleepT < (d->AEI_time - d->_region4_null_AEI)) ? d->sleepT : (d->AEI_time - d->_region4_null_AEI);
  805a44:	e0bffc17 	ldw	r2,-16(fp)
  805a48:	14001517 	ldw	r16,84(r2)
  805a4c:	14401617 	ldw	r17,88(r2)
  805a50:	e0bffc17 	ldw	r2,-16(fp)
  805a54:	10800417 	ldw	r2,16(r2)
  805a58:	1009883a 	mov	r4,r2
  805a5c:	0808ba00 	call	808ba0 <__floatsidf>
  805a60:	1011883a 	mov	r8,r2
  805a64:	1813883a 	mov	r9,r3
  805a68:	e13ffc17 	ldw	r4,-16(fp)
  805a6c:	20800f17 	ldw	r2,60(r4)
  805a70:	20c01017 	ldw	r3,64(r4)
  805a74:	100d883a 	mov	r6,r2
  805a78:	180f883a 	mov	r7,r3
  805a7c:	4009883a 	mov	r4,r8
  805a80:	480b883a 	mov	r5,r9
  805a84:	08082a40 	call	8082a4 <__subdf3>
  805a88:	1009883a 	mov	r4,r2
  805a8c:	180b883a 	mov	r5,r3
  805a90:	2005883a 	mov	r2,r4
  805a94:	2807883a 	mov	r3,r5
  805a98:	100d883a 	mov	r6,r2
  805a9c:	180f883a 	mov	r7,r3
  805aa0:	8009883a 	mov	r4,r16
  805aa4:	880b883a 	mov	r5,r17
  805aa8:	08081b00 	call	8081b0 <__ledf2>
  805aac:	1000040e 	bge	r2,zero,805ac0 <logic+0x5324>
  805ab0:	e13ffc17 	ldw	r4,-16(fp)
  805ab4:	20801517 	ldw	r2,84(r4)
  805ab8:	20c01617 	ldw	r3,88(r4)
  805abc:	00001206 	br	805b08 <logic+0x536c>
  805ac0:	e0bffc17 	ldw	r2,-16(fp)
  805ac4:	10800417 	ldw	r2,16(r2)
  805ac8:	1009883a 	mov	r4,r2
  805acc:	0808ba00 	call	808ba0 <__floatsidf>
  805ad0:	1011883a 	mov	r8,r2
  805ad4:	1813883a 	mov	r9,r3
  805ad8:	e13ffc17 	ldw	r4,-16(fp)
  805adc:	20800f17 	ldw	r2,60(r4)
  805ae0:	20c01017 	ldw	r3,64(r4)
  805ae4:	100d883a 	mov	r6,r2
  805ae8:	180f883a 	mov	r7,r3
  805aec:	4009883a 	mov	r4,r8
  805af0:	480b883a 	mov	r5,r9
  805af4:	08082a40 	call	8082a4 <__subdf3>
  805af8:	1009883a 	mov	r4,r2
  805afc:	180b883a 	mov	r5,r3
  805b00:	2005883a 	mov	r2,r4
  805b04:	2807883a 	mov	r3,r5
  805b08:	e13ffc17 	ldw	r4,-16(fp)
  805b0c:	20801515 	stw	r2,84(r4)
  805b10:	20c01615 	stw	r3,88(r4)
  }
  d->_cg171 = d->_heart2_local__Atrig14 || d->_heart2_local__Atrig15;
  805b14:	e0bffc17 	ldw	r2,-16(fp)
  805b18:	10801dc3 	ldbu	r2,119(r2)
  805b1c:	10803fcc 	andi	r2,r2,255
  805b20:	1080201c 	xori	r2,r2,128
  805b24:	10bfe004 	addi	r2,r2,-128
  805b28:	1000061e 	bne	r2,zero,805b44 <logic+0x53a8>
  805b2c:	e0bffc17 	ldw	r2,-16(fp)
  805b30:	10801e03 	ldbu	r2,120(r2)
  805b34:	10803fcc 	andi	r2,r2,255
  805b38:	1080201c 	xori	r2,r2,128
  805b3c:	10bfe004 	addi	r2,r2,-128
  805b40:	10000226 	beq	r2,zero,805b4c <logic+0x53b0>
  805b44:	00800044 	movi	r2,1
  805b48:	00000106 	br	805b50 <logic+0x53b4>
  805b4c:	0005883a 	mov	r2,zero
  805b50:	1007883a 	mov	r3,r2
  805b54:	e0bffc17 	ldw	r2,-16(fp)
  805b58:	10c05585 	stb	r3,342(r2)
  d->_g167 = d->_g167 && !d->_cg167 || d->_g171 && !d->_cg171;
  805b5c:	e0bffc17 	ldw	r2,-16(fp)
  805b60:	10803a83 	ldbu	r2,234(r2)
  805b64:	10803fcc 	andi	r2,r2,255
  805b68:	1080201c 	xori	r2,r2,128
  805b6c:	10bfe004 	addi	r2,r2,-128
  805b70:	10000626 	beq	r2,zero,805b8c <logic+0x53f0>
  805b74:	e0bffc17 	ldw	r2,-16(fp)
  805b78:	10805543 	ldbu	r2,341(r2)
  805b7c:	10803fcc 	andi	r2,r2,255
  805b80:	1080201c 	xori	r2,r2,128
  805b84:	10bfe004 	addi	r2,r2,-128
  805b88:	10000c26 	beq	r2,zero,805bbc <logic+0x5420>
  805b8c:	e0bffc17 	ldw	r2,-16(fp)
  805b90:	10803b43 	ldbu	r2,237(r2)
  805b94:	10803fcc 	andi	r2,r2,255
  805b98:	1080201c 	xori	r2,r2,128
  805b9c:	10bfe004 	addi	r2,r2,-128
  805ba0:	10000826 	beq	r2,zero,805bc4 <logic+0x5428>
  805ba4:	e0bffc17 	ldw	r2,-16(fp)
  805ba8:	10805583 	ldbu	r2,342(r2)
  805bac:	10803fcc 	andi	r2,r2,255
  805bb0:	1080201c 	xori	r2,r2,128
  805bb4:	10bfe004 	addi	r2,r2,-128
  805bb8:	1000021e 	bne	r2,zero,805bc4 <logic+0x5428>
  805bbc:	00800044 	movi	r2,1
  805bc0:	00000106 	br	805bc8 <logic+0x542c>
  805bc4:	0005883a 	mov	r2,zero
  805bc8:	1007883a 	mov	r3,r2
  805bcc:	e0bffc17 	ldw	r2,-16(fp)
  805bd0:	10c03a85 	stb	r3,234(r2)
  d->_g170 = d->_g170 && !d->_cg170;
  805bd4:	e0bffc17 	ldw	r2,-16(fp)
  805bd8:	10803b03 	ldbu	r2,236(r2)
  805bdc:	10803fcc 	andi	r2,r2,255
  805be0:	1080201c 	xori	r2,r2,128
  805be4:	10bfe004 	addi	r2,r2,-128
  805be8:	10000826 	beq	r2,zero,805c0c <logic+0x5470>
  805bec:	e0bffc17 	ldw	r2,-16(fp)
  805bf0:	108055c3 	ldbu	r2,343(r2)
  805bf4:	10803fcc 	andi	r2,r2,255
  805bf8:	1080201c 	xori	r2,r2,128
  805bfc:	10bfe004 	addi	r2,r2,-128
  805c00:	1000021e 	bne	r2,zero,805c0c <logic+0x5470>
  805c04:	00800044 	movi	r2,1
  805c08:	00000106 	br	805c10 <logic+0x5474>
  805c0c:	0005883a 	mov	r2,zero
  805c10:	1007883a 	mov	r3,r2
  805c14:	e0bffc17 	ldw	r2,-16(fp)
  805c18:	10c03b05 	stb	r3,236(r2)
  d->_cg173 = d->_heart2_local__Atrig14 || d->_heart2_local__Atrig15;
  805c1c:	e0bffc17 	ldw	r2,-16(fp)
  805c20:	10801dc3 	ldbu	r2,119(r2)
  805c24:	10803fcc 	andi	r2,r2,255
  805c28:	1080201c 	xori	r2,r2,128
  805c2c:	10bfe004 	addi	r2,r2,-128
  805c30:	1000061e 	bne	r2,zero,805c4c <logic+0x54b0>
  805c34:	e0bffc17 	ldw	r2,-16(fp)
  805c38:	10801e03 	ldbu	r2,120(r2)
  805c3c:	10803fcc 	andi	r2,r2,255
  805c40:	1080201c 	xori	r2,r2,128
  805c44:	10bfe004 	addi	r2,r2,-128
  805c48:	10000226 	beq	r2,zero,805c54 <logic+0x54b8>
  805c4c:	00800044 	movi	r2,1
  805c50:	00000106 	br	805c58 <logic+0x54bc>
  805c54:	0005883a 	mov	r2,zero
  805c58:	1007883a 	mov	r3,r2
  805c5c:	e0bffc17 	ldw	r2,-16(fp)
  805c60:	10c05605 	stb	r3,344(r2)
  d->_g171 = d->_g171 && d->_cg171 || d->_g170 && d->_cg173;
  805c64:	e0bffc17 	ldw	r2,-16(fp)
  805c68:	10803b43 	ldbu	r2,237(r2)
  805c6c:	10803fcc 	andi	r2,r2,255
  805c70:	1080201c 	xori	r2,r2,128
  805c74:	10bfe004 	addi	r2,r2,-128
  805c78:	10000626 	beq	r2,zero,805c94 <logic+0x54f8>
  805c7c:	e0bffc17 	ldw	r2,-16(fp)
  805c80:	10805583 	ldbu	r2,342(r2)
  805c84:	10803fcc 	andi	r2,r2,255
  805c88:	1080201c 	xori	r2,r2,128
  805c8c:	10bfe004 	addi	r2,r2,-128
  805c90:	10000c1e 	bne	r2,zero,805cc4 <logic+0x5528>
  805c94:	e0bffc17 	ldw	r2,-16(fp)
  805c98:	10803b03 	ldbu	r2,236(r2)
  805c9c:	10803fcc 	andi	r2,r2,255
  805ca0:	1080201c 	xori	r2,r2,128
  805ca4:	10bfe004 	addi	r2,r2,-128
  805ca8:	10000826 	beq	r2,zero,805ccc <logic+0x5530>
  805cac:	e0bffc17 	ldw	r2,-16(fp)
  805cb0:	10805603 	ldbu	r2,344(r2)
  805cb4:	10803fcc 	andi	r2,r2,255
  805cb8:	1080201c 	xori	r2,r2,128
  805cbc:	10bfe004 	addi	r2,r2,-128
  805cc0:	10000226 	beq	r2,zero,805ccc <logic+0x5530>
  805cc4:	00800044 	movi	r2,1
  805cc8:	00000106 	br	805cd0 <logic+0x5534>
  805ccc:	0005883a 	mov	r2,zero
  805cd0:	1007883a 	mov	r3,r2
  805cd4:	e0bffc17 	ldw	r2,-16(fp)
  805cd8:	10c03b45 	stb	r3,237(r2)
  d->_g176 = d->_g153 && !d->_cg166;
  805cdc:	e0bffc17 	ldw	r2,-16(fp)
  805ce0:	10803843 	ldbu	r2,225(r2)
  805ce4:	10803fcc 	andi	r2,r2,255
  805ce8:	1080201c 	xori	r2,r2,128
  805cec:	10bfe004 	addi	r2,r2,-128
  805cf0:	10000826 	beq	r2,zero,805d14 <logic+0x5578>
  805cf4:	e0bffc17 	ldw	r2,-16(fp)
  805cf8:	10805503 	ldbu	r2,340(r2)
  805cfc:	10803fcc 	andi	r2,r2,255
  805d00:	1080201c 	xori	r2,r2,128
  805d04:	10bfe004 	addi	r2,r2,-128
  805d08:	1000021e 	bne	r2,zero,805d14 <logic+0x5578>
  805d0c:	00800044 	movi	r2,1
  805d10:	00000106 	br	805d18 <logic+0x557c>
  805d14:	0005883a 	mov	r2,zero
  805d18:	1007883a 	mov	r3,r2
  805d1c:	e0bffc17 	ldw	r2,-16(fp)
  805d20:	10c03c45 	stb	r3,241(r2)
  d->_cg176 = d->_heart2_local__Atrig14 || d->_heart2_local__Atrig15;
  805d24:	e0bffc17 	ldw	r2,-16(fp)
  805d28:	10801dc3 	ldbu	r2,119(r2)
  805d2c:	10803fcc 	andi	r2,r2,255
  805d30:	1080201c 	xori	r2,r2,128
  805d34:	10bfe004 	addi	r2,r2,-128
  805d38:	1000061e 	bne	r2,zero,805d54 <logic+0x55b8>
  805d3c:	e0bffc17 	ldw	r2,-16(fp)
  805d40:	10801e03 	ldbu	r2,120(r2)
  805d44:	10803fcc 	andi	r2,r2,255
  805d48:	1080201c 	xori	r2,r2,128
  805d4c:	10bfe004 	addi	r2,r2,-128
  805d50:	10000226 	beq	r2,zero,805d5c <logic+0x55c0>
  805d54:	00800044 	movi	r2,1
  805d58:	00000106 	br	805d60 <logic+0x55c4>
  805d5c:	0005883a 	mov	r2,zero
  805d60:	1007883a 	mov	r3,r2
  805d64:	e0bffc17 	ldw	r2,-16(fp)
  805d68:	10c05645 	stb	r3,345(r2)
  d->_g176 = d->_g170 && !d->_cg173 || d->_g176 && !d->_cg176;
  805d6c:	e0bffc17 	ldw	r2,-16(fp)
  805d70:	10803b03 	ldbu	r2,236(r2)
  805d74:	10803fcc 	andi	r2,r2,255
  805d78:	1080201c 	xori	r2,r2,128
  805d7c:	10bfe004 	addi	r2,r2,-128
  805d80:	10000626 	beq	r2,zero,805d9c <logic+0x5600>
  805d84:	e0bffc17 	ldw	r2,-16(fp)
  805d88:	10805603 	ldbu	r2,344(r2)
  805d8c:	10803fcc 	andi	r2,r2,255
  805d90:	1080201c 	xori	r2,r2,128
  805d94:	10bfe004 	addi	r2,r2,-128
  805d98:	10000c26 	beq	r2,zero,805dcc <logic+0x5630>
  805d9c:	e0bffc17 	ldw	r2,-16(fp)
  805da0:	10803c43 	ldbu	r2,241(r2)
  805da4:	10803fcc 	andi	r2,r2,255
  805da8:	1080201c 	xori	r2,r2,128
  805dac:	10bfe004 	addi	r2,r2,-128
  805db0:	10000826 	beq	r2,zero,805dd4 <logic+0x5638>
  805db4:	e0bffc17 	ldw	r2,-16(fp)
  805db8:	10805643 	ldbu	r2,345(r2)
  805dbc:	10803fcc 	andi	r2,r2,255
  805dc0:	1080201c 	xori	r2,r2,128
  805dc4:	10bfe004 	addi	r2,r2,-128
  805dc8:	1000021e 	bne	r2,zero,805dd4 <logic+0x5638>
  805dcc:	00800044 	movi	r2,1
  805dd0:	00000106 	br	805dd8 <logic+0x563c>
  805dd4:	0005883a 	mov	r2,zero
  805dd8:	1007883a 	mov	r3,r2
  805ddc:	e0bffc17 	ldw	r2,-16(fp)
  805de0:	10c03c45 	stb	r3,241(r2)
  d->_g173 = d->_g153 || d->_g194_e2 && !d->_cg182;
  805de4:	e0bffc17 	ldw	r2,-16(fp)
  805de8:	10803843 	ldbu	r2,225(r2)
  805dec:	10803fcc 	andi	r2,r2,255
  805df0:	1080201c 	xori	r2,r2,128
  805df4:	10bfe004 	addi	r2,r2,-128
  805df8:	10000c1e 	bne	r2,zero,805e2c <logic+0x5690>
  805dfc:	e0bffc17 	ldw	r2,-16(fp)
  805e00:	10806203 	ldbu	r2,392(r2)
  805e04:	10803fcc 	andi	r2,r2,255
  805e08:	1080201c 	xori	r2,r2,128
  805e0c:	10bfe004 	addi	r2,r2,-128
  805e10:	10000826 	beq	r2,zero,805e34 <logic+0x5698>
  805e14:	e0bffc17 	ldw	r2,-16(fp)
  805e18:	10805683 	ldbu	r2,346(r2)
  805e1c:	10803fcc 	andi	r2,r2,255
  805e20:	1080201c 	xori	r2,r2,128
  805e24:	10bfe004 	addi	r2,r2,-128
  805e28:	1000021e 	bne	r2,zero,805e34 <logic+0x5698>
  805e2c:	00800044 	movi	r2,1
  805e30:	00000106 	br	805e38 <logic+0x569c>
  805e34:	0005883a 	mov	r2,zero
  805e38:	1007883a 	mov	r3,r2
  805e3c:	e0bffc17 	ldw	r2,-16(fp)
  805e40:	10c03bc5 	stb	r3,239(r2)
  d->_g182 = d->_g190 || d->_g194;
  805e44:	e0bffc17 	ldw	r2,-16(fp)
  805e48:	10803ec3 	ldbu	r2,251(r2)
  805e4c:	10803fcc 	andi	r2,r2,255
  805e50:	1080201c 	xori	r2,r2,128
  805e54:	10bfe004 	addi	r2,r2,-128
  805e58:	1000061e 	bne	r2,zero,805e74 <logic+0x56d8>
  805e5c:	e0bffc17 	ldw	r2,-16(fp)
  805e60:	10803f43 	ldbu	r2,253(r2)
  805e64:	10803fcc 	andi	r2,r2,255
  805e68:	1080201c 	xori	r2,r2,128
  805e6c:	10bfe004 	addi	r2,r2,-128
  805e70:	10000226 	beq	r2,zero,805e7c <logic+0x56e0>
  805e74:	00800044 	movi	r2,1
  805e78:	00000106 	br	805e80 <logic+0x56e4>
  805e7c:	0005883a 	mov	r2,zero
  805e80:	1007883a 	mov	r3,r2
  805e84:	e0bffc17 	ldw	r2,-16(fp)
  805e88:	10c03d45 	stb	r3,245(r2)
  d->_g161 = !d->_g143;
  805e8c:	e0bffc17 	ldw	r2,-16(fp)
  805e90:	108036c3 	ldbu	r2,219(r2)
  805e94:	10803fcc 	andi	r2,r2,255
  805e98:	1080201c 	xori	r2,r2,128
  805e9c:	10bfe004 	addi	r2,r2,-128
  805ea0:	1005003a 	cmpeq	r2,r2,zero
  805ea4:	1007883a 	mov	r3,r2
  805ea8:	e0bffc17 	ldw	r2,-16(fp)
  805eac:	10c039c5 	stb	r3,231(r2)
  d->_g183 = !(d->_g175 || d->_g169);
  805eb0:	e0bffc17 	ldw	r2,-16(fp)
  805eb4:	10803c03 	ldbu	r2,240(r2)
  805eb8:	10803fcc 	andi	r2,r2,255
  805ebc:	1080201c 	xori	r2,r2,128
  805ec0:	10bfe004 	addi	r2,r2,-128
  805ec4:	1000081e 	bne	r2,zero,805ee8 <logic+0x574c>
  805ec8:	e0bffc17 	ldw	r2,-16(fp)
  805ecc:	10803ac3 	ldbu	r2,235(r2)
  805ed0:	10803fcc 	andi	r2,r2,255
  805ed4:	1080201c 	xori	r2,r2,128
  805ed8:	10bfe004 	addi	r2,r2,-128
  805edc:	1000021e 	bne	r2,zero,805ee8 <logic+0x574c>
  805ee0:	00800044 	movi	r2,1
  805ee4:	00000106 	br	805eec <logic+0x5750>
  805ee8:	0005883a 	mov	r2,zero
  805eec:	1007883a 	mov	r3,r2
  805ef0:	e0bffc17 	ldw	r2,-16(fp)
  805ef4:	10c03d85 	stb	r3,246(r2)
  d->_g180 = !d->_g190_e1;
  805ef8:	e0bffc17 	ldw	r2,-16(fp)
  805efc:	108061c3 	ldbu	r2,391(r2)
  805f00:	10803fcc 	andi	r2,r2,255
  805f04:	1080201c 	xori	r2,r2,128
  805f08:	10bfe004 	addi	r2,r2,-128
  805f0c:	1005003a 	cmpeq	r2,r2,zero
  805f10:	1007883a 	mov	r3,r2
  805f14:	e0bffc17 	ldw	r2,-16(fp)
  805f18:	10c03cc5 	stb	r3,243(r2)
  d->_g164 = (d->_g161 || d->_g165) && (d->_g183 || d->_g171) && (d->_g180 || d->_g182) && (d->_g165 || d->_g171 || d->_g182);
  805f1c:	e0bffc17 	ldw	r2,-16(fp)
  805f20:	108039c3 	ldbu	r2,231(r2)
  805f24:	10803fcc 	andi	r2,r2,255
  805f28:	1080201c 	xori	r2,r2,128
  805f2c:	10bfe004 	addi	r2,r2,-128
  805f30:	1000061e 	bne	r2,zero,805f4c <logic+0x57b0>
  805f34:	e0bffc17 	ldw	r2,-16(fp)
  805f38:	10803a43 	ldbu	r2,233(r2)
  805f3c:	10803fcc 	andi	r2,r2,255
  805f40:	1080201c 	xori	r2,r2,128
  805f44:	10bfe004 	addi	r2,r2,-128
  805f48:	10002c26 	beq	r2,zero,805ffc <logic+0x5860>
  805f4c:	e0bffc17 	ldw	r2,-16(fp)
  805f50:	10803d83 	ldbu	r2,246(r2)
  805f54:	10803fcc 	andi	r2,r2,255
  805f58:	1080201c 	xori	r2,r2,128
  805f5c:	10bfe004 	addi	r2,r2,-128
  805f60:	1000061e 	bne	r2,zero,805f7c <logic+0x57e0>
  805f64:	e0bffc17 	ldw	r2,-16(fp)
  805f68:	10803b43 	ldbu	r2,237(r2)
  805f6c:	10803fcc 	andi	r2,r2,255
  805f70:	1080201c 	xori	r2,r2,128
  805f74:	10bfe004 	addi	r2,r2,-128
  805f78:	10002026 	beq	r2,zero,805ffc <logic+0x5860>
  805f7c:	e0bffc17 	ldw	r2,-16(fp)
  805f80:	10803cc3 	ldbu	r2,243(r2)
  805f84:	10803fcc 	andi	r2,r2,255
  805f88:	1080201c 	xori	r2,r2,128
  805f8c:	10bfe004 	addi	r2,r2,-128
  805f90:	1000061e 	bne	r2,zero,805fac <logic+0x5810>
  805f94:	e0bffc17 	ldw	r2,-16(fp)
  805f98:	10803d43 	ldbu	r2,245(r2)
  805f9c:	10803fcc 	andi	r2,r2,255
  805fa0:	1080201c 	xori	r2,r2,128
  805fa4:	10bfe004 	addi	r2,r2,-128
  805fa8:	10001426 	beq	r2,zero,805ffc <logic+0x5860>
  805fac:	e0bffc17 	ldw	r2,-16(fp)
  805fb0:	10803a43 	ldbu	r2,233(r2)
  805fb4:	10803fcc 	andi	r2,r2,255
  805fb8:	1080201c 	xori	r2,r2,128
  805fbc:	10bfe004 	addi	r2,r2,-128
  805fc0:	10000c1e 	bne	r2,zero,805ff4 <logic+0x5858>
  805fc4:	e0bffc17 	ldw	r2,-16(fp)
  805fc8:	10803b43 	ldbu	r2,237(r2)
  805fcc:	10803fcc 	andi	r2,r2,255
  805fd0:	1080201c 	xori	r2,r2,128
  805fd4:	10bfe004 	addi	r2,r2,-128
  805fd8:	1000061e 	bne	r2,zero,805ff4 <logic+0x5858>
  805fdc:	e0bffc17 	ldw	r2,-16(fp)
  805fe0:	10803d43 	ldbu	r2,245(r2)
  805fe4:	10803fcc 	andi	r2,r2,255
  805fe8:	1080201c 	xori	r2,r2,128
  805fec:	10bfe004 	addi	r2,r2,-128
  805ff0:	10000226 	beq	r2,zero,805ffc <logic+0x5860>
  805ff4:	00800044 	movi	r2,1
  805ff8:	00000106 	br	806000 <logic+0x5864>
  805ffc:	0005883a 	mov	r2,zero
  806000:	1007883a 	mov	r3,r2
  806004:	e0bffc17 	ldw	r2,-16(fp)
  806008:	10c03a05 	stb	r3,232(r2)
  d->_cg184 = d->_heart2_local__Atrig14;
  80600c:	e0bffc17 	ldw	r2,-16(fp)
  806010:	10c01dc3 	ldbu	r3,119(r2)
  806014:	e0bffc17 	ldw	r2,-16(fp)
  806018:	10c05705 	stb	r3,348(r2)
  d->_g175 = d->_g164 && d->_cg184;
  80601c:	e0bffc17 	ldw	r2,-16(fp)
  806020:	10803a03 	ldbu	r2,232(r2)
  806024:	10803fcc 	andi	r2,r2,255
  806028:	1080201c 	xori	r2,r2,128
  80602c:	10bfe004 	addi	r2,r2,-128
  806030:	10000826 	beq	r2,zero,806054 <logic+0x58b8>
  806034:	e0bffc17 	ldw	r2,-16(fp)
  806038:	10805703 	ldbu	r2,348(r2)
  80603c:	10803fcc 	andi	r2,r2,255
  806040:	1080201c 	xori	r2,r2,128
  806044:	10bfe004 	addi	r2,r2,-128
  806048:	10000226 	beq	r2,zero,806054 <logic+0x58b8>
  80604c:	00800044 	movi	r2,1
  806050:	00000106 	br	806058 <logic+0x58bc>
  806054:	0005883a 	mov	r2,zero
  806058:	1007883a 	mov	r3,r2
  80605c:	e0bffc17 	ldw	r2,-16(fp)
  806060:	10c03c05 	stb	r3,240(r2)
  if (d->_g175) {
  806064:	e0bffc17 	ldw	r2,-16(fp)
  806068:	10803c03 	ldbu	r2,240(r2)
  80606c:	10803fcc 	andi	r2,r2,255
  806070:	1080201c 	xori	r2,r2,128
  806074:	10bfe004 	addi	r2,r2,-128
  806078:	10000c26 	beq	r2,zero,8060ac <logic+0x5910>
    d->AP |= 1;
  80607c:	e0bffc17 	ldw	r2,-16(fp)
  806080:	10801783 	ldbu	r2,94(r2)
  806084:	10800054 	ori	r2,r2,1
  806088:	1007883a 	mov	r3,r2
  80608c:	e0bffc17 	ldw	r2,-16(fp)
  806090:	10c01785 	stb	r3,94(r2)
    d->a |= 1;
  806094:	e0bffc17 	ldw	r2,-16(fp)
  806098:	10801883 	ldbu	r2,98(r2)
  80609c:	10800054 	ori	r2,r2,1
  8060a0:	1007883a 	mov	r3,r2
  8060a4:	e0bffc17 	ldw	r2,-16(fp)
  8060a8:	10c01885 	stb	r3,98(r2)
  }
  d->_g169 = d->_g175 || d->_g164 && !d->_cg184;
  8060ac:	e0bffc17 	ldw	r2,-16(fp)
  8060b0:	10803c03 	ldbu	r2,240(r2)
  8060b4:	10803fcc 	andi	r2,r2,255
  8060b8:	1080201c 	xori	r2,r2,128
  8060bc:	10bfe004 	addi	r2,r2,-128
  8060c0:	10000c1e 	bne	r2,zero,8060f4 <logic+0x5958>
  8060c4:	e0bffc17 	ldw	r2,-16(fp)
  8060c8:	10803a03 	ldbu	r2,232(r2)
  8060cc:	10803fcc 	andi	r2,r2,255
  8060d0:	1080201c 	xori	r2,r2,128
  8060d4:	10bfe004 	addi	r2,r2,-128
  8060d8:	10000826 	beq	r2,zero,8060fc <logic+0x5960>
  8060dc:	e0bffc17 	ldw	r2,-16(fp)
  8060e0:	10805703 	ldbu	r2,348(r2)
  8060e4:	10803fcc 	andi	r2,r2,255
  8060e8:	1080201c 	xori	r2,r2,128
  8060ec:	10bfe004 	addi	r2,r2,-128
  8060f0:	1000021e 	bne	r2,zero,8060fc <logic+0x5960>
  8060f4:	00800044 	movi	r2,1
  8060f8:	00000106 	br	806100 <logic+0x5964>
  8060fc:	0005883a 	mov	r2,zero
  806100:	1007883a 	mov	r3,r2
  806104:	e0bffc17 	ldw	r2,-16(fp)
  806108:	10c03ac5 	stb	r3,235(r2)
  if (d->_g169) {
  80610c:	e0bffc17 	ldw	r2,-16(fp)
  806110:	10803ac3 	ldbu	r2,235(r2)
  806114:	10803fcc 	andi	r2,r2,255
  806118:	1080201c 	xori	r2,r2,128
  80611c:	10bfe004 	addi	r2,r2,-128
  806120:	10000226 	beq	r2,zero,80612c <logic+0x5990>
    d->_heart2_local__Atrig16 = 0;
  806124:	e0bffc17 	ldw	r2,-16(fp)
  806128:	10001e45 	stb	zero,121(r2)
  }
  d->_cg187 = d->_heart2_local__Atrig16;
  80612c:	e0bffc17 	ldw	r2,-16(fp)
  806130:	10c01e43 	ldbu	r3,121(r2)
  806134:	e0bffc17 	ldw	r2,-16(fp)
  806138:	10c05745 	stb	r3,349(r2)
  d->_g179 = d->_g169 && !d->_cg187 || d->_g131 && !d->_cg189;
  80613c:	e0bffc17 	ldw	r2,-16(fp)
  806140:	10803ac3 	ldbu	r2,235(r2)
  806144:	10803fcc 	andi	r2,r2,255
  806148:	1080201c 	xori	r2,r2,128
  80614c:	10bfe004 	addi	r2,r2,-128
  806150:	10000626 	beq	r2,zero,80616c <logic+0x59d0>
  806154:	e0bffc17 	ldw	r2,-16(fp)
  806158:	10805743 	ldbu	r2,349(r2)
  80615c:	10803fcc 	andi	r2,r2,255
  806160:	1080201c 	xori	r2,r2,128
  806164:	10bfe004 	addi	r2,r2,-128
  806168:	10000c26 	beq	r2,zero,80619c <logic+0x5a00>
  80616c:	e0bffc17 	ldw	r2,-16(fp)
  806170:	10803483 	ldbu	r2,210(r2)
  806174:	10803fcc 	andi	r2,r2,255
  806178:	1080201c 	xori	r2,r2,128
  80617c:	10bfe004 	addi	r2,r2,-128
  806180:	10000826 	beq	r2,zero,8061a4 <logic+0x5a08>
  806184:	e0bffc17 	ldw	r2,-16(fp)
  806188:	10805783 	ldbu	r2,350(r2)
  80618c:	10803fcc 	andi	r2,r2,255
  806190:	1080201c 	xori	r2,r2,128
  806194:	10bfe004 	addi	r2,r2,-128
  806198:	1000021e 	bne	r2,zero,8061a4 <logic+0x5a08>
  80619c:	00800044 	movi	r2,1
  8061a0:	00000106 	br	8061a8 <logic+0x5a0c>
  8061a4:	0005883a 	mov	r2,zero
  8061a8:	1007883a 	mov	r3,r2
  8061ac:	e0bffc17 	ldw	r2,-16(fp)
  8061b0:	10c03c85 	stb	r3,242(r2)
  d->_g181_e3 = d->_g169 || d->_g140 && !d->_cg193;
  8061b4:	e0bffc17 	ldw	r2,-16(fp)
  8061b8:	10803ac3 	ldbu	r2,235(r2)
  8061bc:	10803fcc 	andi	r2,r2,255
  8061c0:	1080201c 	xori	r2,r2,128
  8061c4:	10bfe004 	addi	r2,r2,-128
  8061c8:	10000c1e 	bne	r2,zero,8061fc <logic+0x5a60>
  8061cc:	e0bffc17 	ldw	r2,-16(fp)
  8061d0:	10803603 	ldbu	r2,216(r2)
  8061d4:	10803fcc 	andi	r2,r2,255
  8061d8:	1080201c 	xori	r2,r2,128
  8061dc:	10bfe004 	addi	r2,r2,-128
  8061e0:	10000826 	beq	r2,zero,806204 <logic+0x5a68>
  8061e4:	e0bffc17 	ldw	r2,-16(fp)
  8061e8:	108057c3 	ldbu	r2,351(r2)
  8061ec:	10803fcc 	andi	r2,r2,255
  8061f0:	1080201c 	xori	r2,r2,128
  8061f4:	10bfe004 	addi	r2,r2,-128
  8061f8:	1000021e 	bne	r2,zero,806204 <logic+0x5a68>
  8061fc:	00800044 	movi	r2,1
  806200:	00000106 	br	806208 <logic+0x5a6c>
  806204:	0005883a 	mov	r2,zero
  806208:	1007883a 	mov	r3,r2
  80620c:	e0bffc17 	ldw	r2,-16(fp)
  806210:	10c06185 	stb	r3,390(r2)
  d->_g181 = d->_pg206;
  806214:	e0bffc17 	ldw	r2,-16(fp)
  806218:	10c06b83 	ldbu	r3,430(r2)
  80621c:	e0bffc17 	ldw	r2,-16(fp)
  806220:	10c03d05 	stb	r3,244(r2)
  if (d->_g181) {
  806224:	e0bffc17 	ldw	r2,-16(fp)
  806228:	10803d03 	ldbu	r2,244(r2)
  80622c:	10803fcc 	andi	r2,r2,255
  806230:	1080201c 	xori	r2,r2,128
  806234:	10bfe004 	addi	r2,r2,-128
  806238:	10001226 	beq	r2,zero,806284 <logic+0x5ae8>
    d->_region5_null_AVI += d->deltaT;
  80623c:	e13ffc17 	ldw	r4,-16(fp)
  806240:	20801117 	ldw	r2,68(r4)
  806244:	20c01217 	ldw	r3,72(r4)
  806248:	e1bffc17 	ldw	r6,-16(fp)
  80624c:	31001317 	ldw	r4,76(r6)
  806250:	31401417 	ldw	r5,80(r6)
  806254:	200d883a 	mov	r6,r4
  806258:	280f883a 	mov	r7,r5
  80625c:	1009883a 	mov	r4,r2
  806260:	180b883a 	mov	r5,r3
  806264:	08078280 	call	807828 <__adddf3>
  806268:	1009883a 	mov	r4,r2
  80626c:	180b883a 	mov	r5,r3
  806270:	2005883a 	mov	r2,r4
  806274:	2807883a 	mov	r3,r5
  806278:	e13ffc17 	ldw	r4,-16(fp)
  80627c:	20801115 	stw	r2,68(r4)
  806280:	20c01215 	stw	r3,72(r4)
  }
  d->_g165 = !d->_g181;
  806284:	e0bffc17 	ldw	r2,-16(fp)
  806288:	10803d03 	ldbu	r2,244(r2)
  80628c:	10803fcc 	andi	r2,r2,255
  806290:	1080201c 	xori	r2,r2,128
  806294:	10bfe004 	addi	r2,r2,-128
  806298:	1005003a 	cmpeq	r2,r2,zero
  80629c:	1007883a 	mov	r3,r2
  8062a0:	e0bffc17 	ldw	r2,-16(fp)
  8062a4:	10c03a45 	stb	r3,233(r2)
  d->_g165_e1 = d->_pg213;
  8062a8:	e0bffc17 	ldw	r2,-16(fp)
  8062ac:	10c06bc3 	ldbu	r3,431(r2)
  8062b0:	e0bffc17 	ldw	r2,-16(fp)
  8062b4:	10c06105 	stb	r3,388(r2)
  d->_cg225 = d->v;
  8062b8:	e0bffc17 	ldw	r2,-16(fp)
  8062bc:	10c018c3 	ldbu	r3,99(r2)
  8062c0:	e0bffc17 	ldw	r2,-16(fp)
  8062c4:	10c05b45 	stb	r3,365(r2)
  d->_g172 = d->_g165_e1 && d->_cg225;
  8062c8:	e0bffc17 	ldw	r2,-16(fp)
  8062cc:	10806103 	ldbu	r2,388(r2)
  8062d0:	10803fcc 	andi	r2,r2,255
  8062d4:	1080201c 	xori	r2,r2,128
  8062d8:	10bfe004 	addi	r2,r2,-128
  8062dc:	10000826 	beq	r2,zero,806300 <logic+0x5b64>
  8062e0:	e0bffc17 	ldw	r2,-16(fp)
  8062e4:	10805b43 	ldbu	r2,365(r2)
  8062e8:	10803fcc 	andi	r2,r2,255
  8062ec:	1080201c 	xori	r2,r2,128
  8062f0:	10bfe004 	addi	r2,r2,-128
  8062f4:	10000226 	beq	r2,zero,806300 <logic+0x5b64>
  8062f8:	00800044 	movi	r2,1
  8062fc:	00000106 	br	806304 <logic+0x5b68>
  806300:	0005883a 	mov	r2,zero
  806304:	1007883a 	mov	r3,r2
  806308:	e0bffc17 	ldw	r2,-16(fp)
  80630c:	10c03b85 	stb	r3,238(r2)
  if (d->_g172) {
  806310:	e0bffc17 	ldw	r2,-16(fp)
  806314:	10803b83 	ldbu	r2,238(r2)
  806318:	10803fcc 	andi	r2,r2,255
  80631c:	1080201c 	xori	r2,r2,128
  806320:	10bfe004 	addi	r2,r2,-128
  806324:	10000326 	beq	r2,zero,806334 <logic+0x5b98>
    d->_heart2_local__Atrig18 = 1;
  806328:	e0bffc17 	ldw	r2,-16(fp)
  80632c:	00c00044 	movi	r3,1
  806330:	10c01ec5 	stb	r3,123(r2)
  }
  d->_g172_e2 = d->_g165_e1 && !d->_cg225;
  806334:	e0bffc17 	ldw	r2,-16(fp)
  806338:	10806103 	ldbu	r2,388(r2)
  80633c:	10803fcc 	andi	r2,r2,255
  806340:	1080201c 	xori	r2,r2,128
  806344:	10bfe004 	addi	r2,r2,-128
  806348:	10000826 	beq	r2,zero,80636c <logic+0x5bd0>
  80634c:	e0bffc17 	ldw	r2,-16(fp)
  806350:	10805b43 	ldbu	r2,365(r2)
  806354:	10803fcc 	andi	r2,r2,255
  806358:	1080201c 	xori	r2,r2,128
  80635c:	10bfe004 	addi	r2,r2,-128
  806360:	1000021e 	bne	r2,zero,80636c <logic+0x5bd0>
  806364:	00800044 	movi	r2,1
  806368:	00000106 	br	806370 <logic+0x5bd4>
  80636c:	0005883a 	mov	r2,zero
  806370:	1007883a 	mov	r3,r2
  806374:	e0bffc17 	ldw	r2,-16(fp)
  806378:	10c06145 	stb	r3,389(r2)
  d->_cg228 = d->ready && d->_region5_null_AVI >= d->AVI_time;
  80637c:	e0bffc17 	ldw	r2,-16(fp)
  806380:	10800603 	ldbu	r2,24(r2)
  806384:	10803fcc 	andi	r2,r2,255
  806388:	1080201c 	xori	r2,r2,128
  80638c:	10bfe004 	addi	r2,r2,-128
  806390:	10001126 	beq	r2,zero,8063d8 <logic+0x5c3c>
  806394:	e0bffc17 	ldw	r2,-16(fp)
  806398:	14001117 	ldw	r16,68(r2)
  80639c:	14401217 	ldw	r17,72(r2)
  8063a0:	e0bffc17 	ldw	r2,-16(fp)
  8063a4:	10800517 	ldw	r2,20(r2)
  8063a8:	1009883a 	mov	r4,r2
  8063ac:	0808ba00 	call	808ba0 <__floatsidf>
  8063b0:	1009883a 	mov	r4,r2
  8063b4:	180b883a 	mov	r5,r3
  8063b8:	200d883a 	mov	r6,r4
  8063bc:	280f883a 	mov	r7,r5
  8063c0:	8009883a 	mov	r4,r16
  8063c4:	880b883a 	mov	r5,r17
  8063c8:	08080d40 	call	8080d4 <__gedf2>
  8063cc:	10000216 	blt	r2,zero,8063d8 <logic+0x5c3c>
  8063d0:	00800044 	movi	r2,1
  8063d4:	00000106 	br	8063dc <logic+0x5c40>
  8063d8:	0005883a 	mov	r2,zero
  8063dc:	1007883a 	mov	r3,r2
  8063e0:	e0bffc17 	ldw	r2,-16(fp)
  8063e4:	10c05b05 	stb	r3,364(r2)
  d->_g185 = d->_g172_e2 && d->_cg228;
  8063e8:	e0bffc17 	ldw	r2,-16(fp)
  8063ec:	10806143 	ldbu	r2,389(r2)
  8063f0:	10803fcc 	andi	r2,r2,255
  8063f4:	1080201c 	xori	r2,r2,128
  8063f8:	10bfe004 	addi	r2,r2,-128
  8063fc:	10000826 	beq	r2,zero,806420 <logic+0x5c84>
  806400:	e0bffc17 	ldw	r2,-16(fp)
  806404:	10805b03 	ldbu	r2,364(r2)
  806408:	10803fcc 	andi	r2,r2,255
  80640c:	1080201c 	xori	r2,r2,128
  806410:	10bfe004 	addi	r2,r2,-128
  806414:	10000226 	beq	r2,zero,806420 <logic+0x5c84>
  806418:	00800044 	movi	r2,1
  80641c:	00000106 	br	806424 <logic+0x5c88>
  806420:	0005883a 	mov	r2,zero
  806424:	1007883a 	mov	r3,r2
  806428:	e0bffc17 	ldw	r2,-16(fp)
  80642c:	10c03e05 	stb	r3,248(r2)
  if (d->_g185) {
  806430:	e0bffc17 	ldw	r2,-16(fp)
  806434:	10803e03 	ldbu	r2,248(r2)
  806438:	10803fcc 	andi	r2,r2,255
  80643c:	1080201c 	xori	r2,r2,128
  806440:	10bfe004 	addi	r2,r2,-128
  806444:	10000326 	beq	r2,zero,806454 <logic+0x5cb8>
    d->_heart2_local__Atrig19 = 1;
  806448:	e0bffc17 	ldw	r2,-16(fp)
  80644c:	00c00044 	movi	r3,1
  806450:	10c01f05 	stb	r3,124(r2)
  }
  d->_cg210 = d->_heart2_local__Atrig18 || d->_heart2_local__Atrig19;
  806454:	e0bffc17 	ldw	r2,-16(fp)
  806458:	10801ec3 	ldbu	r2,123(r2)
  80645c:	10803fcc 	andi	r2,r2,255
  806460:	1080201c 	xori	r2,r2,128
  806464:	10bfe004 	addi	r2,r2,-128
  806468:	1000061e 	bne	r2,zero,806484 <logic+0x5ce8>
  80646c:	e0bffc17 	ldw	r2,-16(fp)
  806470:	10801f03 	ldbu	r2,124(r2)
  806474:	10803fcc 	andi	r2,r2,255
  806478:	1080201c 	xori	r2,r2,128
  80647c:	10bfe004 	addi	r2,r2,-128
  806480:	10000226 	beq	r2,zero,80648c <logic+0x5cf0>
  806484:	00800044 	movi	r2,1
  806488:	00000106 	br	806490 <logic+0x5cf4>
  80648c:	0005883a 	mov	r2,zero
  806490:	1007883a 	mov	r3,r2
  806494:	e0bffc17 	ldw	r2,-16(fp)
  806498:	10c05945 	stb	r3,357(r2)
  d->_g184 = d->_g181 && d->_cg210;
  80649c:	e0bffc17 	ldw	r2,-16(fp)
  8064a0:	10803d03 	ldbu	r2,244(r2)
  8064a4:	10803fcc 	andi	r2,r2,255
  8064a8:	1080201c 	xori	r2,r2,128
  8064ac:	10bfe004 	addi	r2,r2,-128
  8064b0:	10000826 	beq	r2,zero,8064d4 <logic+0x5d38>
  8064b4:	e0bffc17 	ldw	r2,-16(fp)
  8064b8:	10805943 	ldbu	r2,357(r2)
  8064bc:	10803fcc 	andi	r2,r2,255
  8064c0:	1080201c 	xori	r2,r2,128
  8064c4:	10bfe004 	addi	r2,r2,-128
  8064c8:	10000226 	beq	r2,zero,8064d4 <logic+0x5d38>
  8064cc:	00800044 	movi	r2,1
  8064d0:	00000106 	br	8064d8 <logic+0x5d3c>
  8064d4:	0005883a 	mov	r2,zero
  8064d8:	1007883a 	mov	r3,r2
  8064dc:	e0bffc17 	ldw	r2,-16(fp)
  8064e0:	10c03dc5 	stb	r3,247(r2)
  d->_g189 = d->_pg210;
  8064e4:	e0bffc17 	ldw	r2,-16(fp)
  8064e8:	10c06c03 	ldbu	r3,432(r2)
  8064ec:	e0bffc17 	ldw	r2,-16(fp)
  8064f0:	10c03e85 	stb	r3,250(r2)
  d->_g193 = d->_pg202;
  8064f4:	e0bffc17 	ldw	r2,-16(fp)
  8064f8:	10c06c43 	ldbu	r3,433(r2)
  8064fc:	e0bffc17 	ldw	r2,-16(fp)
  806500:	10c03f05 	stb	r3,252(r2)
  d->_g186 = !(d->_g189 || d->_g193);
  806504:	e0bffc17 	ldw	r2,-16(fp)
  806508:	10803e83 	ldbu	r2,250(r2)
  80650c:	10803fcc 	andi	r2,r2,255
  806510:	1080201c 	xori	r2,r2,128
  806514:	10bfe004 	addi	r2,r2,-128
  806518:	1000081e 	bne	r2,zero,80653c <logic+0x5da0>
  80651c:	e0bffc17 	ldw	r2,-16(fp)
  806520:	10803f03 	ldbu	r2,252(r2)
  806524:	10803fcc 	andi	r2,r2,255
  806528:	1080201c 	xori	r2,r2,128
  80652c:	10bfe004 	addi	r2,r2,-128
  806530:	1000021e 	bne	r2,zero,80653c <logic+0x5da0>
  806534:	00800044 	movi	r2,1
  806538:	00000106 	br	806540 <logic+0x5da4>
  80653c:	0005883a 	mov	r2,zero
  806540:	1007883a 	mov	r3,r2
  806544:	e0bffc17 	ldw	r2,-16(fp)
  806548:	10c03e45 	stb	r3,249(r2)
  d->_g215 = d->_g193 || d->_g189;
  80654c:	e0bffc17 	ldw	r2,-16(fp)
  806550:	10803f03 	ldbu	r2,252(r2)
  806554:	10803fcc 	andi	r2,r2,255
  806558:	1080201c 	xori	r2,r2,128
  80655c:	10bfe004 	addi	r2,r2,-128
  806560:	1000061e 	bne	r2,zero,80657c <logic+0x5de0>
  806564:	e0bffc17 	ldw	r2,-16(fp)
  806568:	10803e83 	ldbu	r2,250(r2)
  80656c:	10803fcc 	andi	r2,r2,255
  806570:	1080201c 	xori	r2,r2,128
  806574:	10bfe004 	addi	r2,r2,-128
  806578:	10000226 	beq	r2,zero,806584 <logic+0x5de8>
  80657c:	00800044 	movi	r2,1
  806580:	00000106 	br	806588 <logic+0x5dec>
  806584:	0005883a 	mov	r2,zero
  806588:	1007883a 	mov	r3,r2
  80658c:	e0bffc17 	ldw	r2,-16(fp)
  806590:	10c041c5 	stb	r3,263(r2)
  d->_cg216 = d->_region5_null_AVI < d->AVI_time;
  806594:	e0bffc17 	ldw	r2,-16(fp)
  806598:	14001117 	ldw	r16,68(r2)
  80659c:	14401217 	ldw	r17,72(r2)
  8065a0:	e0bffc17 	ldw	r2,-16(fp)
  8065a4:	10800517 	ldw	r2,20(r2)
  8065a8:	1009883a 	mov	r4,r2
  8065ac:	0808ba00 	call	808ba0 <__floatsidf>
  8065b0:	1009883a 	mov	r4,r2
  8065b4:	180b883a 	mov	r5,r3
  8065b8:	04800044 	movi	r18,1
  8065bc:	200d883a 	mov	r6,r4
  8065c0:	280f883a 	mov	r7,r5
  8065c4:	8009883a 	mov	r4,r16
  8065c8:	880b883a 	mov	r5,r17
  8065cc:	08081b00 	call	8081b0 <__ledf2>
  8065d0:	10000116 	blt	r2,zero,8065d8 <logic+0x5e3c>
  8065d4:	0025883a 	mov	r18,zero
  8065d8:	9007883a 	mov	r3,r18
  8065dc:	e0bffc17 	ldw	r2,-16(fp)
  8065e0:	10c05a45 	stb	r3,361(r2)
  d->_g221 = d->_g215 && d->_cg216;
  8065e4:	e0bffc17 	ldw	r2,-16(fp)
  8065e8:	108041c3 	ldbu	r2,263(r2)
  8065ec:	10803fcc 	andi	r2,r2,255
  8065f0:	1080201c 	xori	r2,r2,128
  8065f4:	10bfe004 	addi	r2,r2,-128
  8065f8:	10000826 	beq	r2,zero,80661c <logic+0x5e80>
  8065fc:	e0bffc17 	ldw	r2,-16(fp)
  806600:	10805a43 	ldbu	r2,361(r2)
  806604:	10803fcc 	andi	r2,r2,255
  806608:	1080201c 	xori	r2,r2,128
  80660c:	10bfe004 	addi	r2,r2,-128
  806610:	10000226 	beq	r2,zero,80661c <logic+0x5e80>
  806614:	00800044 	movi	r2,1
  806618:	00000106 	br	806620 <logic+0x5e84>
  80661c:	0005883a 	mov	r2,zero
  806620:	1007883a 	mov	r3,r2
  806624:	e0bffc17 	ldw	r2,-16(fp)
  806628:	10c042c5 	stb	r3,267(r2)
  if (d->_g221) {
  80662c:	e0bffc17 	ldw	r2,-16(fp)
  806630:	108042c3 	ldbu	r2,267(r2)
  806634:	10803fcc 	andi	r2,r2,255
  806638:	1080201c 	xori	r2,r2,128
  80663c:	10bfe004 	addi	r2,r2,-128
  806640:	10003426 	beq	r2,zero,806714 <logic+0x5f78>
    d->sleepT = (d->sleepT < (d->AVI_time - d->_region5_null_AVI)) ? d->sleepT : (d->AVI_time - d->_region5_null_AVI);
  806644:	e0bffc17 	ldw	r2,-16(fp)
  806648:	14001517 	ldw	r16,84(r2)
  80664c:	14401617 	ldw	r17,88(r2)
  806650:	e0bffc17 	ldw	r2,-16(fp)
  806654:	10800517 	ldw	r2,20(r2)
  806658:	1009883a 	mov	r4,r2
  80665c:	0808ba00 	call	808ba0 <__floatsidf>
  806660:	1011883a 	mov	r8,r2
  806664:	1813883a 	mov	r9,r3
  806668:	e13ffc17 	ldw	r4,-16(fp)
  80666c:	20801117 	ldw	r2,68(r4)
  806670:	20c01217 	ldw	r3,72(r4)
  806674:	100d883a 	mov	r6,r2
  806678:	180f883a 	mov	r7,r3
  80667c:	4009883a 	mov	r4,r8
  806680:	480b883a 	mov	r5,r9
  806684:	08082a40 	call	8082a4 <__subdf3>
  806688:	1009883a 	mov	r4,r2
  80668c:	180b883a 	mov	r5,r3
  806690:	2005883a 	mov	r2,r4
  806694:	2807883a 	mov	r3,r5
  806698:	100d883a 	mov	r6,r2
  80669c:	180f883a 	mov	r7,r3
  8066a0:	8009883a 	mov	r4,r16
  8066a4:	880b883a 	mov	r5,r17
  8066a8:	08081b00 	call	8081b0 <__ledf2>
  8066ac:	1000040e 	bge	r2,zero,8066c0 <logic+0x5f24>
  8066b0:	e13ffc17 	ldw	r4,-16(fp)
  8066b4:	20801517 	ldw	r2,84(r4)
  8066b8:	20c01617 	ldw	r3,88(r4)
  8066bc:	00001206 	br	806708 <logic+0x5f6c>
  8066c0:	e0bffc17 	ldw	r2,-16(fp)
  8066c4:	10800517 	ldw	r2,20(r2)
  8066c8:	1009883a 	mov	r4,r2
  8066cc:	0808ba00 	call	808ba0 <__floatsidf>
  8066d0:	1011883a 	mov	r8,r2
  8066d4:	1813883a 	mov	r9,r3
  8066d8:	e13ffc17 	ldw	r4,-16(fp)
  8066dc:	20801117 	ldw	r2,68(r4)
  8066e0:	20c01217 	ldw	r3,72(r4)
  8066e4:	100d883a 	mov	r6,r2
  8066e8:	180f883a 	mov	r7,r3
  8066ec:	4009883a 	mov	r4,r8
  8066f0:	480b883a 	mov	r5,r9
  8066f4:	08082a40 	call	8082a4 <__subdf3>
  8066f8:	1009883a 	mov	r4,r2
  8066fc:	180b883a 	mov	r5,r3
  806700:	2005883a 	mov	r2,r4
  806704:	2807883a 	mov	r3,r5
  806708:	e13ffc17 	ldw	r4,-16(fp)
  80670c:	20801515 	stw	r2,84(r4)
  806710:	20c01615 	stw	r3,88(r4)
  }
  d->_cg217 = d->_heart2_local__Atrig18 || d->_heart2_local__Atrig19;
  806714:	e0bffc17 	ldw	r2,-16(fp)
  806718:	10801ec3 	ldbu	r2,123(r2)
  80671c:	10803fcc 	andi	r2,r2,255
  806720:	1080201c 	xori	r2,r2,128
  806724:	10bfe004 	addi	r2,r2,-128
  806728:	1000061e 	bne	r2,zero,806744 <logic+0x5fa8>
  80672c:	e0bffc17 	ldw	r2,-16(fp)
  806730:	10801f03 	ldbu	r2,124(r2)
  806734:	10803fcc 	andi	r2,r2,255
  806738:	1080201c 	xori	r2,r2,128
  80673c:	10bfe004 	addi	r2,r2,-128
  806740:	10000226 	beq	r2,zero,80674c <logic+0x5fb0>
  806744:	00800044 	movi	r2,1
  806748:	00000106 	br	806750 <logic+0x5fb4>
  80674c:	0005883a 	mov	r2,zero
  806750:	1007883a 	mov	r3,r2
  806754:	e0bffc17 	ldw	r2,-16(fp)
  806758:	10c05a05 	stb	r3,360(r2)
  d->_g216 = d->_g215 && !d->_cg216;
  80675c:	e0bffc17 	ldw	r2,-16(fp)
  806760:	108041c3 	ldbu	r2,263(r2)
  806764:	10803fcc 	andi	r2,r2,255
  806768:	1080201c 	xori	r2,r2,128
  80676c:	10bfe004 	addi	r2,r2,-128
  806770:	10000826 	beq	r2,zero,806794 <logic+0x5ff8>
  806774:	e0bffc17 	ldw	r2,-16(fp)
  806778:	10805a43 	ldbu	r2,361(r2)
  80677c:	10803fcc 	andi	r2,r2,255
  806780:	1080201c 	xori	r2,r2,128
  806784:	10bfe004 	addi	r2,r2,-128
  806788:	1000021e 	bne	r2,zero,806794 <logic+0x5ff8>
  80678c:	00800044 	movi	r2,1
  806790:	00000106 	br	806798 <logic+0x5ffc>
  806794:	0005883a 	mov	r2,zero
  806798:	1007883a 	mov	r3,r2
  80679c:	e0bffc17 	ldw	r2,-16(fp)
  8067a0:	10c04205 	stb	r3,264(r2)
  d->_cg219 = d->_heart2_local__Atrig18 || d->_heart2_local__Atrig19;
  8067a4:	e0bffc17 	ldw	r2,-16(fp)
  8067a8:	10801ec3 	ldbu	r2,123(r2)
  8067ac:	10803fcc 	andi	r2,r2,255
  8067b0:	1080201c 	xori	r2,r2,128
  8067b4:	10bfe004 	addi	r2,r2,-128
  8067b8:	1000061e 	bne	r2,zero,8067d4 <logic+0x6038>
  8067bc:	e0bffc17 	ldw	r2,-16(fp)
  8067c0:	10801f03 	ldbu	r2,124(r2)
  8067c4:	10803fcc 	andi	r2,r2,255
  8067c8:	1080201c 	xori	r2,r2,128
  8067cc:	10bfe004 	addi	r2,r2,-128
  8067d0:	10000226 	beq	r2,zero,8067dc <logic+0x6040>
  8067d4:	00800044 	movi	r2,1
  8067d8:	00000106 	br	8067e0 <logic+0x6044>
  8067dc:	0005883a 	mov	r2,zero
  8067e0:	1007883a 	mov	r3,r2
  8067e4:	e0bffc17 	ldw	r2,-16(fp)
  8067e8:	10c05a85 	stb	r3,362(r2)
  d->_g218 = d->_g221 && d->_cg217 || d->_g216 && d->_cg219;
  8067ec:	e0bffc17 	ldw	r2,-16(fp)
  8067f0:	108042c3 	ldbu	r2,267(r2)
  8067f4:	10803fcc 	andi	r2,r2,255
  8067f8:	1080201c 	xori	r2,r2,128
  8067fc:	10bfe004 	addi	r2,r2,-128
  806800:	10000626 	beq	r2,zero,80681c <logic+0x6080>
  806804:	e0bffc17 	ldw	r2,-16(fp)
  806808:	10805a03 	ldbu	r2,360(r2)
  80680c:	10803fcc 	andi	r2,r2,255
  806810:	1080201c 	xori	r2,r2,128
  806814:	10bfe004 	addi	r2,r2,-128
  806818:	10000c1e 	bne	r2,zero,80684c <logic+0x60b0>
  80681c:	e0bffc17 	ldw	r2,-16(fp)
  806820:	10804203 	ldbu	r2,264(r2)
  806824:	10803fcc 	andi	r2,r2,255
  806828:	1080201c 	xori	r2,r2,128
  80682c:	10bfe004 	addi	r2,r2,-128
  806830:	10000826 	beq	r2,zero,806854 <logic+0x60b8>
  806834:	e0bffc17 	ldw	r2,-16(fp)
  806838:	10805a83 	ldbu	r2,362(r2)
  80683c:	10803fcc 	andi	r2,r2,255
  806840:	1080201c 	xori	r2,r2,128
  806844:	10bfe004 	addi	r2,r2,-128
  806848:	10000226 	beq	r2,zero,806854 <logic+0x60b8>
  80684c:	00800044 	movi	r2,1
  806850:	00000106 	br	806858 <logic+0x60bc>
  806854:	0005883a 	mov	r2,zero
  806858:	1007883a 	mov	r3,r2
  80685c:	e0bffc17 	ldw	r2,-16(fp)
  806860:	10c04285 	stb	r3,266(r2)
  d->_g225 = !d->_g165_e1;
  806864:	e0bffc17 	ldw	r2,-16(fp)
  806868:	10806103 	ldbu	r2,388(r2)
  80686c:	10803fcc 	andi	r2,r2,255
  806870:	1080201c 	xori	r2,r2,128
  806874:	10bfe004 	addi	r2,r2,-128
  806878:	1005003a 	cmpeq	r2,r2,zero
  80687c:	1007883a 	mov	r3,r2
  806880:	e0bffc17 	ldw	r2,-16(fp)
  806884:	10c04305 	stb	r3,268(r2)
  d->_g226 = d->_g172 || d->_g185;
  806888:	e0bffc17 	ldw	r2,-16(fp)
  80688c:	10803b83 	ldbu	r2,238(r2)
  806890:	10803fcc 	andi	r2,r2,255
  806894:	1080201c 	xori	r2,r2,128
  806898:	10bfe004 	addi	r2,r2,-128
  80689c:	1000061e 	bne	r2,zero,8068b8 <logic+0x611c>
  8068a0:	e0bffc17 	ldw	r2,-16(fp)
  8068a4:	10803e03 	ldbu	r2,248(r2)
  8068a8:	10803fcc 	andi	r2,r2,255
  8068ac:	1080201c 	xori	r2,r2,128
  8068b0:	10bfe004 	addi	r2,r2,-128
  8068b4:	10000226 	beq	r2,zero,8068c0 <logic+0x6124>
  8068b8:	00800044 	movi	r2,1
  8068bc:	00000106 	br	8068c4 <logic+0x6128>
  8068c0:	0005883a 	mov	r2,zero
  8068c4:	1007883a 	mov	r3,r2
  8068c8:	e0bffc17 	ldw	r2,-16(fp)
  8068cc:	10c04345 	stb	r3,269(r2)
  d->_g229 = (d->_g165 || d->_g184) && (d->_g186 || d->_g218) && (d->_g225 || d->_g226) && (d->_g184 || d->_g218 || d->_g226);
  8068d0:	e0bffc17 	ldw	r2,-16(fp)
  8068d4:	10803a43 	ldbu	r2,233(r2)
  8068d8:	10803fcc 	andi	r2,r2,255
  8068dc:	1080201c 	xori	r2,r2,128
  8068e0:	10bfe004 	addi	r2,r2,-128
  8068e4:	1000061e 	bne	r2,zero,806900 <logic+0x6164>
  8068e8:	e0bffc17 	ldw	r2,-16(fp)
  8068ec:	10803dc3 	ldbu	r2,247(r2)
  8068f0:	10803fcc 	andi	r2,r2,255
  8068f4:	1080201c 	xori	r2,r2,128
  8068f8:	10bfe004 	addi	r2,r2,-128
  8068fc:	10002c26 	beq	r2,zero,8069b0 <logic+0x6214>
  806900:	e0bffc17 	ldw	r2,-16(fp)
  806904:	10803e43 	ldbu	r2,249(r2)
  806908:	10803fcc 	andi	r2,r2,255
  80690c:	1080201c 	xori	r2,r2,128
  806910:	10bfe004 	addi	r2,r2,-128
  806914:	1000061e 	bne	r2,zero,806930 <logic+0x6194>
  806918:	e0bffc17 	ldw	r2,-16(fp)
  80691c:	10804283 	ldbu	r2,266(r2)
  806920:	10803fcc 	andi	r2,r2,255
  806924:	1080201c 	xori	r2,r2,128
  806928:	10bfe004 	addi	r2,r2,-128
  80692c:	10002026 	beq	r2,zero,8069b0 <logic+0x6214>
  806930:	e0bffc17 	ldw	r2,-16(fp)
  806934:	10804303 	ldbu	r2,268(r2)
  806938:	10803fcc 	andi	r2,r2,255
  80693c:	1080201c 	xori	r2,r2,128
  806940:	10bfe004 	addi	r2,r2,-128
  806944:	1000061e 	bne	r2,zero,806960 <logic+0x61c4>
  806948:	e0bffc17 	ldw	r2,-16(fp)
  80694c:	10804343 	ldbu	r2,269(r2)
  806950:	10803fcc 	andi	r2,r2,255
  806954:	1080201c 	xori	r2,r2,128
  806958:	10bfe004 	addi	r2,r2,-128
  80695c:	10001426 	beq	r2,zero,8069b0 <logic+0x6214>
  806960:	e0bffc17 	ldw	r2,-16(fp)
  806964:	10803dc3 	ldbu	r2,247(r2)
  806968:	10803fcc 	andi	r2,r2,255
  80696c:	1080201c 	xori	r2,r2,128
  806970:	10bfe004 	addi	r2,r2,-128
  806974:	10000c1e 	bne	r2,zero,8069a8 <logic+0x620c>
  806978:	e0bffc17 	ldw	r2,-16(fp)
  80697c:	10804283 	ldbu	r2,266(r2)
  806980:	10803fcc 	andi	r2,r2,255
  806984:	1080201c 	xori	r2,r2,128
  806988:	10bfe004 	addi	r2,r2,-128
  80698c:	1000061e 	bne	r2,zero,8069a8 <logic+0x620c>
  806990:	e0bffc17 	ldw	r2,-16(fp)
  806994:	10804343 	ldbu	r2,269(r2)
  806998:	10803fcc 	andi	r2,r2,255
  80699c:	1080201c 	xori	r2,r2,128
  8069a0:	10bfe004 	addi	r2,r2,-128
  8069a4:	10000226 	beq	r2,zero,8069b0 <logic+0x6214>
  8069a8:	00800044 	movi	r2,1
  8069ac:	00000106 	br	8069b4 <logic+0x6218>
  8069b0:	0005883a 	mov	r2,zero
  8069b4:	1007883a 	mov	r3,r2
  8069b8:	e0bffc17 	ldw	r2,-16(fp)
  8069bc:	10c043c5 	stb	r3,271(r2)
  d->_cg230 = d->_heart2_local__Atrig18;
  8069c0:	e0bffc17 	ldw	r2,-16(fp)
  8069c4:	10c01ec3 	ldbu	r3,123(r2)
  8069c8:	e0bffc17 	ldw	r2,-16(fp)
  8069cc:	10c05805 	stb	r3,352(r2)
  d->_g227_e3 = d->_g229 && !d->_cg230;
  8069d0:	e0bffc17 	ldw	r2,-16(fp)
  8069d4:	108043c3 	ldbu	r2,271(r2)
  8069d8:	10803fcc 	andi	r2,r2,255
  8069dc:	1080201c 	xori	r2,r2,128
  8069e0:	10bfe004 	addi	r2,r2,-128
  8069e4:	10000826 	beq	r2,zero,806a08 <logic+0x626c>
  8069e8:	e0bffc17 	ldw	r2,-16(fp)
  8069ec:	10805803 	ldbu	r2,352(r2)
  8069f0:	10803fcc 	andi	r2,r2,255
  8069f4:	1080201c 	xori	r2,r2,128
  8069f8:	10bfe004 	addi	r2,r2,-128
  8069fc:	1000021e 	bne	r2,zero,806a08 <logic+0x626c>
  806a00:	00800044 	movi	r2,1
  806a04:	00000106 	br	806a0c <logic+0x6270>
  806a08:	0005883a 	mov	r2,zero
  806a0c:	1007883a 	mov	r3,r2
  806a10:	e0bffc17 	ldw	r2,-16(fp)
  806a14:	10c06345 	stb	r3,397(r2)
  if (d->_g227_e3) {
  806a18:	e0bffc17 	ldw	r2,-16(fp)
  806a1c:	10806343 	ldbu	r2,397(r2)
  806a20:	10803fcc 	andi	r2,r2,255
  806a24:	1080201c 	xori	r2,r2,128
  806a28:	10bfe004 	addi	r2,r2,-128
  806a2c:	10000626 	beq	r2,zero,806a48 <logic+0x62ac>
    d->VP |= 1;
  806a30:	e0bffc17 	ldw	r2,-16(fp)
  806a34:	108017c3 	ldbu	r2,95(r2)
  806a38:	10800054 	ori	r2,r2,1
  806a3c:	1007883a 	mov	r3,r2
  806a40:	e0bffc17 	ldw	r2,-16(fp)
  806a44:	10c017c5 	stb	r3,95(r2)
  }
  d->_g211 = d->_GO || d->_g229 && d->_cg230 || d->_g227_e3;
  806a48:	e0bffc17 	ldw	r2,-16(fp)
  806a4c:	10804543 	ldbu	r2,277(r2)
  806a50:	10803fcc 	andi	r2,r2,255
  806a54:	1080201c 	xori	r2,r2,128
  806a58:	10bfe004 	addi	r2,r2,-128
  806a5c:	1000121e 	bne	r2,zero,806aa8 <logic+0x630c>
  806a60:	e0bffc17 	ldw	r2,-16(fp)
  806a64:	108043c3 	ldbu	r2,271(r2)
  806a68:	10803fcc 	andi	r2,r2,255
  806a6c:	1080201c 	xori	r2,r2,128
  806a70:	10bfe004 	addi	r2,r2,-128
  806a74:	10000626 	beq	r2,zero,806a90 <logic+0x62f4>
  806a78:	e0bffc17 	ldw	r2,-16(fp)
  806a7c:	10805803 	ldbu	r2,352(r2)
  806a80:	10803fcc 	andi	r2,r2,255
  806a84:	1080201c 	xori	r2,r2,128
  806a88:	10bfe004 	addi	r2,r2,-128
  806a8c:	1000061e 	bne	r2,zero,806aa8 <logic+0x630c>
  806a90:	e0bffc17 	ldw	r2,-16(fp)
  806a94:	10806343 	ldbu	r2,397(r2)
  806a98:	10803fcc 	andi	r2,r2,255
  806a9c:	1080201c 	xori	r2,r2,128
  806aa0:	10bfe004 	addi	r2,r2,-128
  806aa4:	10000226 	beq	r2,zero,806ab0 <logic+0x6314>
  806aa8:	00800044 	movi	r2,1
  806aac:	00000106 	br	806ab4 <logic+0x6318>
  806ab0:	0005883a 	mov	r2,zero
  806ab4:	1007883a 	mov	r3,r2
  806ab8:	e0bffc17 	ldw	r2,-16(fp)
  806abc:	10c04145 	stb	r3,261(r2)
  if (d->_g211) {
  806ac0:	e0bffc17 	ldw	r2,-16(fp)
  806ac4:	10804143 	ldbu	r2,261(r2)
  806ac8:	10803fcc 	andi	r2,r2,255
  806acc:	1080201c 	xori	r2,r2,128
  806ad0:	10bfe004 	addi	r2,r2,-128
  806ad4:	10000226 	beq	r2,zero,806ae0 <logic+0x6344>
    d->_heart2_local__Atrig17 = 0;
  806ad8:	e0bffc17 	ldw	r2,-16(fp)
  806adc:	10001e85 	stb	zero,122(r2)
  }
  d->_cg199 = d->_heart2_local__Atrig17;
  806ae0:	e0bffc17 	ldw	r2,-16(fp)
  806ae4:	10c01e83 	ldbu	r3,122(r2)
  806ae8:	e0bffc17 	ldw	r2,-16(fp)
  806aec:	10c05845 	stb	r3,353(r2)
  d->_g218_e2 = d->_pg231;
  806af0:	e0bffc17 	ldw	r2,-16(fp)
  806af4:	10c06c83 	ldbu	r3,434(r2)
  806af8:	e0bffc17 	ldw	r2,-16(fp)
  806afc:	10c06305 	stb	r3,396(r2)
  d->_cg205 = d->a;
  806b00:	e0bffc17 	ldw	r2,-16(fp)
  806b04:	10c01883 	ldbu	r3,98(r2)
  806b08:	e0bffc17 	ldw	r2,-16(fp)
  806b0c:	10c058c5 	stb	r3,355(r2)
  d->_g218 = d->_g218_e2 && d->_cg205;
  806b10:	e0bffc17 	ldw	r2,-16(fp)
  806b14:	10806303 	ldbu	r2,396(r2)
  806b18:	10803fcc 	andi	r2,r2,255
  806b1c:	1080201c 	xori	r2,r2,128
  806b20:	10bfe004 	addi	r2,r2,-128
  806b24:	10000826 	beq	r2,zero,806b48 <logic+0x63ac>
  806b28:	e0bffc17 	ldw	r2,-16(fp)
  806b2c:	108058c3 	ldbu	r2,355(r2)
  806b30:	10803fcc 	andi	r2,r2,255
  806b34:	1080201c 	xori	r2,r2,128
  806b38:	10bfe004 	addi	r2,r2,-128
  806b3c:	10000226 	beq	r2,zero,806b48 <logic+0x63ac>
  806b40:	00800044 	movi	r2,1
  806b44:	00000106 	br	806b4c <logic+0x63b0>
  806b48:	0005883a 	mov	r2,zero
  806b4c:	1007883a 	mov	r3,r2
  806b50:	e0bffc17 	ldw	r2,-16(fp)
  806b54:	10c04285 	stb	r3,266(r2)
  if (d->_g218) {
  806b58:	e0bffc17 	ldw	r2,-16(fp)
  806b5c:	10804283 	ldbu	r2,266(r2)
  806b60:	10803fcc 	andi	r2,r2,255
  806b64:	1080201c 	xori	r2,r2,128
  806b68:	10bfe004 	addi	r2,r2,-128
  806b6c:	10000326 	beq	r2,zero,806b7c <logic+0x63e0>
    d->_heart2_local__Atrig17 = 1;
  806b70:	e0bffc17 	ldw	r2,-16(fp)
  806b74:	00c00044 	movi	r3,1
  806b78:	10c01e85 	stb	r3,122(r2)
  }
  d->_g227 = d->_pg211_e1;
  806b7c:	e0bffc17 	ldw	r2,-16(fp)
  806b80:	10c06cc3 	ldbu	r3,435(r2)
  806b84:	e0bffc17 	ldw	r2,-16(fp)
  806b88:	10c04385 	stb	r3,270(r2)
  if (d->_g227) {
  806b8c:	e0bffc17 	ldw	r2,-16(fp)
  806b90:	10804383 	ldbu	r2,270(r2)
  806b94:	10803fcc 	andi	r2,r2,255
  806b98:	1080201c 	xori	r2,r2,128
  806b9c:	10bfe004 	addi	r2,r2,-128
  806ba0:	10001226 	beq	r2,zero,806bec <logic+0x6450>
    d->_region5_null_AVI += d->deltaT;
  806ba4:	e13ffc17 	ldw	r4,-16(fp)
  806ba8:	20801117 	ldw	r2,68(r4)
  806bac:	20c01217 	ldw	r3,72(r4)
  806bb0:	e1bffc17 	ldw	r6,-16(fp)
  806bb4:	31001317 	ldw	r4,76(r6)
  806bb8:	31401417 	ldw	r5,80(r6)
  806bbc:	200d883a 	mov	r6,r4
  806bc0:	280f883a 	mov	r7,r5
  806bc4:	1009883a 	mov	r4,r2
  806bc8:	180b883a 	mov	r5,r3
  806bcc:	08078280 	call	807828 <__adddf3>
  806bd0:	1009883a 	mov	r4,r2
  806bd4:	180b883a 	mov	r5,r3
  806bd8:	2005883a 	mov	r2,r4
  806bdc:	2807883a 	mov	r3,r5
  806be0:	e13ffc17 	ldw	r4,-16(fp)
  806be4:	20801115 	stw	r2,68(r4)
  806be8:	20c01215 	stw	r3,72(r4)
  }
  d->_cg201 = d->_heart2_local__Atrig17;
  806bec:	e0bffc17 	ldw	r2,-16(fp)
  806bf0:	10c01e83 	ldbu	r3,122(r2)
  806bf4:	e0bffc17 	ldw	r2,-16(fp)
  806bf8:	10c05885 	stb	r3,354(r2)
  d->_g211_e1 = d->_g211 && !d->_cg199 || d->_g227 && !d->_cg201;
  806bfc:	e0bffc17 	ldw	r2,-16(fp)
  806c00:	10804143 	ldbu	r2,261(r2)
  806c04:	10803fcc 	andi	r2,r2,255
  806c08:	1080201c 	xori	r2,r2,128
  806c0c:	10bfe004 	addi	r2,r2,-128
  806c10:	10000626 	beq	r2,zero,806c2c <logic+0x6490>
  806c14:	e0bffc17 	ldw	r2,-16(fp)
  806c18:	10805843 	ldbu	r2,353(r2)
  806c1c:	10803fcc 	andi	r2,r2,255
  806c20:	1080201c 	xori	r2,r2,128
  806c24:	10bfe004 	addi	r2,r2,-128
  806c28:	10000c26 	beq	r2,zero,806c5c <logic+0x64c0>
  806c2c:	e0bffc17 	ldw	r2,-16(fp)
  806c30:	10804383 	ldbu	r2,270(r2)
  806c34:	10803fcc 	andi	r2,r2,255
  806c38:	1080201c 	xori	r2,r2,128
  806c3c:	10bfe004 	addi	r2,r2,-128
  806c40:	10000826 	beq	r2,zero,806c64 <logic+0x64c8>
  806c44:	e0bffc17 	ldw	r2,-16(fp)
  806c48:	10805883 	ldbu	r2,354(r2)
  806c4c:	10803fcc 	andi	r2,r2,255
  806c50:	1080201c 	xori	r2,r2,128
  806c54:	10bfe004 	addi	r2,r2,-128
  806c58:	1000021e 	bne	r2,zero,806c64 <logic+0x64c8>
  806c5c:	00800044 	movi	r2,1
  806c60:	00000106 	br	806c68 <logic+0x64cc>
  806c64:	0005883a 	mov	r2,zero
  806c68:	1007883a 	mov	r3,r2
  806c6c:	e0bffc17 	ldw	r2,-16(fp)
  806c70:	10c062c5 	stb	r3,395(r2)
  d->_g230 = d->_g227 && d->_cg201;
  806c74:	e0bffc17 	ldw	r2,-16(fp)
  806c78:	10804383 	ldbu	r2,270(r2)
  806c7c:	10803fcc 	andi	r2,r2,255
  806c80:	1080201c 	xori	r2,r2,128
  806c84:	10bfe004 	addi	r2,r2,-128
  806c88:	10000826 	beq	r2,zero,806cac <logic+0x6510>
  806c8c:	e0bffc17 	ldw	r2,-16(fp)
  806c90:	10805883 	ldbu	r2,354(r2)
  806c94:	10803fcc 	andi	r2,r2,255
  806c98:	1080201c 	xori	r2,r2,128
  806c9c:	10bfe004 	addi	r2,r2,-128
  806ca0:	10000226 	beq	r2,zero,806cac <logic+0x6510>
  806ca4:	00800044 	movi	r2,1
  806ca8:	00000106 	br	806cb0 <logic+0x6514>
  806cac:	0005883a 	mov	r2,zero
  806cb0:	1007883a 	mov	r3,r2
  806cb4:	e0bffc17 	ldw	r2,-16(fp)
  806cb8:	10c04405 	stb	r3,272(r2)
  d->_g231 = d->_g211 || d->_g218_e2 && !d->_cg205;
  806cbc:	e0bffc17 	ldw	r2,-16(fp)
  806cc0:	10804143 	ldbu	r2,261(r2)
  806cc4:	10803fcc 	andi	r2,r2,255
  806cc8:	1080201c 	xori	r2,r2,128
  806ccc:	10bfe004 	addi	r2,r2,-128
  806cd0:	10000c1e 	bne	r2,zero,806d04 <logic+0x6568>
  806cd4:	e0bffc17 	ldw	r2,-16(fp)
  806cd8:	10806303 	ldbu	r2,396(r2)
  806cdc:	10803fcc 	andi	r2,r2,255
  806ce0:	1080201c 	xori	r2,r2,128
  806ce4:	10bfe004 	addi	r2,r2,-128
  806ce8:	10000826 	beq	r2,zero,806d0c <logic+0x6570>
  806cec:	e0bffc17 	ldw	r2,-16(fp)
  806cf0:	108058c3 	ldbu	r2,355(r2)
  806cf4:	10803fcc 	andi	r2,r2,255
  806cf8:	1080201c 	xori	r2,r2,128
  806cfc:	10bfe004 	addi	r2,r2,-128
  806d00:	1000021e 	bne	r2,zero,806d0c <logic+0x6570>
  806d04:	00800044 	movi	r2,1
  806d08:	00000106 	br	806d10 <logic+0x6574>
  806d0c:	0005883a 	mov	r2,zero
  806d10:	1007883a 	mov	r3,r2
  806d14:	e0bffc17 	ldw	r2,-16(fp)
  806d18:	10c04445 	stb	r3,273(r2)
  d->_g198 = !d->_g227;
  806d1c:	e0bffc17 	ldw	r2,-16(fp)
  806d20:	10804383 	ldbu	r2,270(r2)
  806d24:	10803fcc 	andi	r2,r2,255
  806d28:	1080201c 	xori	r2,r2,128
  806d2c:	10bfe004 	addi	r2,r2,-128
  806d30:	1005003a 	cmpeq	r2,r2,zero
  806d34:	1007883a 	mov	r3,r2
  806d38:	e0bffc17 	ldw	r2,-16(fp)
  806d3c:	10c03fc5 	stb	r3,255(r2)
  d->_g201 = !d->_g218_e2;
  806d40:	e0bffc17 	ldw	r2,-16(fp)
  806d44:	10806303 	ldbu	r2,396(r2)
  806d48:	10803fcc 	andi	r2,r2,255
  806d4c:	1080201c 	xori	r2,r2,128
  806d50:	10bfe004 	addi	r2,r2,-128
  806d54:	1005003a 	cmpeq	r2,r2,zero
  806d58:	1007883a 	mov	r3,r2
  806d5c:	e0bffc17 	ldw	r2,-16(fp)
  806d60:	10c04005 	stb	r3,256(r2)
  d->_g205 = (d->_g198 || d->_g230) && (d->_g201 || d->_g218) && (d->_g230 || d->_g218);
  806d64:	e0bffc17 	ldw	r2,-16(fp)
  806d68:	10803fc3 	ldbu	r2,255(r2)
  806d6c:	10803fcc 	andi	r2,r2,255
  806d70:	1080201c 	xori	r2,r2,128
  806d74:	10bfe004 	addi	r2,r2,-128
  806d78:	1000061e 	bne	r2,zero,806d94 <logic+0x65f8>
  806d7c:	e0bffc17 	ldw	r2,-16(fp)
  806d80:	10804403 	ldbu	r2,272(r2)
  806d84:	10803fcc 	andi	r2,r2,255
  806d88:	1080201c 	xori	r2,r2,128
  806d8c:	10bfe004 	addi	r2,r2,-128
  806d90:	10001a26 	beq	r2,zero,806dfc <logic+0x6660>
  806d94:	e0bffc17 	ldw	r2,-16(fp)
  806d98:	10804003 	ldbu	r2,256(r2)
  806d9c:	10803fcc 	andi	r2,r2,255
  806da0:	1080201c 	xori	r2,r2,128
  806da4:	10bfe004 	addi	r2,r2,-128
  806da8:	1000061e 	bne	r2,zero,806dc4 <logic+0x6628>
  806dac:	e0bffc17 	ldw	r2,-16(fp)
  806db0:	10804283 	ldbu	r2,266(r2)
  806db4:	10803fcc 	andi	r2,r2,255
  806db8:	1080201c 	xori	r2,r2,128
  806dbc:	10bfe004 	addi	r2,r2,-128
  806dc0:	10000e26 	beq	r2,zero,806dfc <logic+0x6660>
  806dc4:	e0bffc17 	ldw	r2,-16(fp)
  806dc8:	10804403 	ldbu	r2,272(r2)
  806dcc:	10803fcc 	andi	r2,r2,255
  806dd0:	1080201c 	xori	r2,r2,128
  806dd4:	10bfe004 	addi	r2,r2,-128
  806dd8:	1000061e 	bne	r2,zero,806df4 <logic+0x6658>
  806ddc:	e0bffc17 	ldw	r2,-16(fp)
  806de0:	10804283 	ldbu	r2,266(r2)
  806de4:	10803fcc 	andi	r2,r2,255
  806de8:	1080201c 	xori	r2,r2,128
  806dec:	10bfe004 	addi	r2,r2,-128
  806df0:	10000226 	beq	r2,zero,806dfc <logic+0x6660>
  806df4:	00800044 	movi	r2,1
  806df8:	00000106 	br	806e00 <logic+0x6664>
  806dfc:	0005883a 	mov	r2,zero
  806e00:	1007883a 	mov	r3,r2
  806e04:	e0bffc17 	ldw	r2,-16(fp)
  806e08:	10c04085 	stb	r3,258(r2)
  if (d->_g205) {
  806e0c:	e0bffc17 	ldw	r2,-16(fp)
  806e10:	10804083 	ldbu	r2,258(r2)
  806e14:	10803fcc 	andi	r2,r2,255
  806e18:	1080201c 	xori	r2,r2,128
  806e1c:	10bfe004 	addi	r2,r2,-128
  806e20:	10000726 	beq	r2,zero,806e40 <logic+0x66a4>
    d->_region5_null_AVI = 0;
  806e24:	e0bffc17 	ldw	r2,-16(fp)
  806e28:	10001115 	stw	zero,68(r2)
  806e2c:	10001215 	stw	zero,72(r2)
    d->_heart2_local__Atrig18 = 0;
  806e30:	e0bffc17 	ldw	r2,-16(fp)
  806e34:	10001ec5 	stb	zero,123(r2)
    d->_heart2_local__Atrig19 = 0;
  806e38:	e0bffc17 	ldw	r2,-16(fp)
  806e3c:	10001f05 	stb	zero,124(r2)
  }
  d->_cg208 = d->_heart2_local__Atrig18 || d->_heart2_local__Atrig19;
  806e40:	e0bffc17 	ldw	r2,-16(fp)
  806e44:	10801ec3 	ldbu	r2,123(r2)
  806e48:	10803fcc 	andi	r2,r2,255
  806e4c:	1080201c 	xori	r2,r2,128
  806e50:	10bfe004 	addi	r2,r2,-128
  806e54:	1000061e 	bne	r2,zero,806e70 <logic+0x66d4>
  806e58:	e0bffc17 	ldw	r2,-16(fp)
  806e5c:	10801f03 	ldbu	r2,124(r2)
  806e60:	10803fcc 	andi	r2,r2,255
  806e64:	1080201c 	xori	r2,r2,128
  806e68:	10bfe004 	addi	r2,r2,-128
  806e6c:	10000226 	beq	r2,zero,806e78 <logic+0x66dc>
  806e70:	00800044 	movi	r2,1
  806e74:	00000106 	br	806e7c <logic+0x66e0>
  806e78:	0005883a 	mov	r2,zero
  806e7c:	1007883a 	mov	r3,r2
  806e80:	e0bffc17 	ldw	r2,-16(fp)
  806e84:	10c05905 	stb	r3,356(r2)
  d->_g206 = d->_g205 && !d->_cg208 || d->_g181 && !d->_cg210;
  806e88:	e0bffc17 	ldw	r2,-16(fp)
  806e8c:	10804083 	ldbu	r2,258(r2)
  806e90:	10803fcc 	andi	r2,r2,255
  806e94:	1080201c 	xori	r2,r2,128
  806e98:	10bfe004 	addi	r2,r2,-128
  806e9c:	10000626 	beq	r2,zero,806eb8 <logic+0x671c>
  806ea0:	e0bffc17 	ldw	r2,-16(fp)
  806ea4:	10805903 	ldbu	r2,356(r2)
  806ea8:	10803fcc 	andi	r2,r2,255
  806eac:	1080201c 	xori	r2,r2,128
  806eb0:	10bfe004 	addi	r2,r2,-128
  806eb4:	10000c26 	beq	r2,zero,806ee8 <logic+0x674c>
  806eb8:	e0bffc17 	ldw	r2,-16(fp)
  806ebc:	10803d03 	ldbu	r2,244(r2)
  806ec0:	10803fcc 	andi	r2,r2,255
  806ec4:	1080201c 	xori	r2,r2,128
  806ec8:	10bfe004 	addi	r2,r2,-128
  806ecc:	10000826 	beq	r2,zero,806ef0 <logic+0x6754>
  806ed0:	e0bffc17 	ldw	r2,-16(fp)
  806ed4:	10805943 	ldbu	r2,357(r2)
  806ed8:	10803fcc 	andi	r2,r2,255
  806edc:	1080201c 	xori	r2,r2,128
  806ee0:	10bfe004 	addi	r2,r2,-128
  806ee4:	1000021e 	bne	r2,zero,806ef0 <logic+0x6754>
  806ee8:	00800044 	movi	r2,1
  806eec:	00000106 	br	806ef4 <logic+0x6758>
  806ef0:	0005883a 	mov	r2,zero
  806ef4:	1007883a 	mov	r3,r2
  806ef8:	e0bffc17 	ldw	r2,-16(fp)
  806efc:	10c040c5 	stb	r3,259(r2)
  d->_cg212 = d->_region5_null_AVI < d->AVI_time;
  806f00:	e0bffc17 	ldw	r2,-16(fp)
  806f04:	14001117 	ldw	r16,68(r2)
  806f08:	14401217 	ldw	r17,72(r2)
  806f0c:	e0bffc17 	ldw	r2,-16(fp)
  806f10:	10800517 	ldw	r2,20(r2)
  806f14:	1009883a 	mov	r4,r2
  806f18:	0808ba00 	call	808ba0 <__floatsidf>
  806f1c:	1009883a 	mov	r4,r2
  806f20:	180b883a 	mov	r5,r3
  806f24:	04800044 	movi	r18,1
  806f28:	200d883a 	mov	r6,r4
  806f2c:	280f883a 	mov	r7,r5
  806f30:	8009883a 	mov	r4,r16
  806f34:	880b883a 	mov	r5,r17
  806f38:	08081b00 	call	8081b0 <__ledf2>
  806f3c:	10000116 	blt	r2,zero,806f44 <logic+0x67a8>
  806f40:	0025883a 	mov	r18,zero
  806f44:	9007883a 	mov	r3,r18
  806f48:	e0bffc17 	ldw	r2,-16(fp)
  806f4c:	10c05985 	stb	r3,358(r2)
  d->_g206_e2 = d->_g205 && d->_cg212;
  806f50:	e0bffc17 	ldw	r2,-16(fp)
  806f54:	10804083 	ldbu	r2,258(r2)
  806f58:	10803fcc 	andi	r2,r2,255
  806f5c:	1080201c 	xori	r2,r2,128
  806f60:	10bfe004 	addi	r2,r2,-128
  806f64:	10000826 	beq	r2,zero,806f88 <logic+0x67ec>
  806f68:	e0bffc17 	ldw	r2,-16(fp)
  806f6c:	10805983 	ldbu	r2,358(r2)
  806f70:	10803fcc 	andi	r2,r2,255
  806f74:	1080201c 	xori	r2,r2,128
  806f78:	10bfe004 	addi	r2,r2,-128
  806f7c:	10000226 	beq	r2,zero,806f88 <logic+0x67ec>
  806f80:	00800044 	movi	r2,1
  806f84:	00000106 	br	806f8c <logic+0x67f0>
  806f88:	0005883a 	mov	r2,zero
  806f8c:	1007883a 	mov	r3,r2
  806f90:	e0bffc17 	ldw	r2,-16(fp)
  806f94:	10c06285 	stb	r3,394(r2)
  if (d->_g206_e2) {
  806f98:	e0bffc17 	ldw	r2,-16(fp)
  806f9c:	10806283 	ldbu	r2,394(r2)
  806fa0:	10803fcc 	andi	r2,r2,255
  806fa4:	1080201c 	xori	r2,r2,128
  806fa8:	10bfe004 	addi	r2,r2,-128
  806fac:	10003426 	beq	r2,zero,807080 <logic+0x68e4>
    d->sleepT = (d->sleepT < (d->AVI_time - d->_region5_null_AVI)) ? d->sleepT : (d->AVI_time - d->_region5_null_AVI);
  806fb0:	e0bffc17 	ldw	r2,-16(fp)
  806fb4:	14001517 	ldw	r16,84(r2)
  806fb8:	14401617 	ldw	r17,88(r2)
  806fbc:	e0bffc17 	ldw	r2,-16(fp)
  806fc0:	10800517 	ldw	r2,20(r2)
  806fc4:	1009883a 	mov	r4,r2
  806fc8:	0808ba00 	call	808ba0 <__floatsidf>
  806fcc:	1011883a 	mov	r8,r2
  806fd0:	1813883a 	mov	r9,r3
  806fd4:	e13ffc17 	ldw	r4,-16(fp)
  806fd8:	20801117 	ldw	r2,68(r4)
  806fdc:	20c01217 	ldw	r3,72(r4)
  806fe0:	100d883a 	mov	r6,r2
  806fe4:	180f883a 	mov	r7,r3
  806fe8:	4009883a 	mov	r4,r8
  806fec:	480b883a 	mov	r5,r9
  806ff0:	08082a40 	call	8082a4 <__subdf3>
  806ff4:	1009883a 	mov	r4,r2
  806ff8:	180b883a 	mov	r5,r3
  806ffc:	2005883a 	mov	r2,r4
  807000:	2807883a 	mov	r3,r5
  807004:	100d883a 	mov	r6,r2
  807008:	180f883a 	mov	r7,r3
  80700c:	8009883a 	mov	r4,r16
  807010:	880b883a 	mov	r5,r17
  807014:	08081b00 	call	8081b0 <__ledf2>
  807018:	1000040e 	bge	r2,zero,80702c <logic+0x6890>
  80701c:	e13ffc17 	ldw	r4,-16(fp)
  807020:	20801517 	ldw	r2,84(r4)
  807024:	20c01617 	ldw	r3,88(r4)
  807028:	00001206 	br	807074 <logic+0x68d8>
  80702c:	e0bffc17 	ldw	r2,-16(fp)
  807030:	10800517 	ldw	r2,20(r2)
  807034:	1009883a 	mov	r4,r2
  807038:	0808ba00 	call	808ba0 <__floatsidf>
  80703c:	1011883a 	mov	r8,r2
  807040:	1813883a 	mov	r9,r3
  807044:	e13ffc17 	ldw	r4,-16(fp)
  807048:	20801117 	ldw	r2,68(r4)
  80704c:	20c01217 	ldw	r3,72(r4)
  807050:	100d883a 	mov	r6,r2
  807054:	180f883a 	mov	r7,r3
  807058:	4009883a 	mov	r4,r8
  80705c:	480b883a 	mov	r5,r9
  807060:	08082a40 	call	8082a4 <__subdf3>
  807064:	1009883a 	mov	r4,r2
  807068:	180b883a 	mov	r5,r3
  80706c:	2005883a 	mov	r2,r4
  807070:	2807883a 	mov	r3,r5
  807074:	e13ffc17 	ldw	r4,-16(fp)
  807078:	20801515 	stw	r2,84(r4)
  80707c:	20c01615 	stw	r3,88(r4)
  }
  d->_cg213 = d->_heart2_local__Atrig18 || d->_heart2_local__Atrig19;
  807080:	e0bffc17 	ldw	r2,-16(fp)
  807084:	10801ec3 	ldbu	r2,123(r2)
  807088:	10803fcc 	andi	r2,r2,255
  80708c:	1080201c 	xori	r2,r2,128
  807090:	10bfe004 	addi	r2,r2,-128
  807094:	1000061e 	bne	r2,zero,8070b0 <logic+0x6914>
  807098:	e0bffc17 	ldw	r2,-16(fp)
  80709c:	10801f03 	ldbu	r2,124(r2)
  8070a0:	10803fcc 	andi	r2,r2,255
  8070a4:	1080201c 	xori	r2,r2,128
  8070a8:	10bfe004 	addi	r2,r2,-128
  8070ac:	10000226 	beq	r2,zero,8070b8 <logic+0x691c>
  8070b0:	00800044 	movi	r2,1
  8070b4:	00000106 	br	8070bc <logic+0x6920>
  8070b8:	0005883a 	mov	r2,zero
  8070bc:	1007883a 	mov	r3,r2
  8070c0:	e0bffc17 	ldw	r2,-16(fp)
  8070c4:	10c059c5 	stb	r3,359(r2)
  d->_g202 = d->_g206_e2 && !d->_cg213 || d->_g221 && !d->_cg217;
  8070c8:	e0bffc17 	ldw	r2,-16(fp)
  8070cc:	10806283 	ldbu	r2,394(r2)
  8070d0:	10803fcc 	andi	r2,r2,255
  8070d4:	1080201c 	xori	r2,r2,128
  8070d8:	10bfe004 	addi	r2,r2,-128
  8070dc:	10000626 	beq	r2,zero,8070f8 <logic+0x695c>
  8070e0:	e0bffc17 	ldw	r2,-16(fp)
  8070e4:	108059c3 	ldbu	r2,359(r2)
  8070e8:	10803fcc 	andi	r2,r2,255
  8070ec:	1080201c 	xori	r2,r2,128
  8070f0:	10bfe004 	addi	r2,r2,-128
  8070f4:	10000c26 	beq	r2,zero,807128 <logic+0x698c>
  8070f8:	e0bffc17 	ldw	r2,-16(fp)
  8070fc:	108042c3 	ldbu	r2,267(r2)
  807100:	10803fcc 	andi	r2,r2,255
  807104:	1080201c 	xori	r2,r2,128
  807108:	10bfe004 	addi	r2,r2,-128
  80710c:	10000826 	beq	r2,zero,807130 <logic+0x6994>
  807110:	e0bffc17 	ldw	r2,-16(fp)
  807114:	10805a03 	ldbu	r2,360(r2)
  807118:	10803fcc 	andi	r2,r2,255
  80711c:	1080201c 	xori	r2,r2,128
  807120:	10bfe004 	addi	r2,r2,-128
  807124:	1000021e 	bne	r2,zero,807130 <logic+0x6994>
  807128:	00800044 	movi	r2,1
  80712c:	00000106 	br	807134 <logic+0x6998>
  807130:	0005883a 	mov	r2,zero
  807134:	1007883a 	mov	r3,r2
  807138:	e0bffc17 	ldw	r2,-16(fp)
  80713c:	10c04045 	stb	r3,257(r2)
  d->_g202_e1 = d->_g205 && !d->_cg212;
  807140:	e0bffc17 	ldw	r2,-16(fp)
  807144:	10804083 	ldbu	r2,258(r2)
  807148:	10803fcc 	andi	r2,r2,255
  80714c:	1080201c 	xori	r2,r2,128
  807150:	10bfe004 	addi	r2,r2,-128
  807154:	10000826 	beq	r2,zero,807178 <logic+0x69dc>
  807158:	e0bffc17 	ldw	r2,-16(fp)
  80715c:	10805983 	ldbu	r2,358(r2)
  807160:	10803fcc 	andi	r2,r2,255
  807164:	1080201c 	xori	r2,r2,128
  807168:	10bfe004 	addi	r2,r2,-128
  80716c:	1000021e 	bne	r2,zero,807178 <logic+0x69dc>
  807170:	00800044 	movi	r2,1
  807174:	00000106 	br	80717c <logic+0x69e0>
  807178:	0005883a 	mov	r2,zero
  80717c:	1007883a 	mov	r3,r2
  807180:	e0bffc17 	ldw	r2,-16(fp)
  807184:	10c06245 	stb	r3,393(r2)
  d->_cg222 = d->_heart2_local__Atrig18 || d->_heart2_local__Atrig19;
  807188:	e0bffc17 	ldw	r2,-16(fp)
  80718c:	10801ec3 	ldbu	r2,123(r2)
  807190:	10803fcc 	andi	r2,r2,255
  807194:	1080201c 	xori	r2,r2,128
  807198:	10bfe004 	addi	r2,r2,-128
  80719c:	1000061e 	bne	r2,zero,8071b8 <logic+0x6a1c>
  8071a0:	e0bffc17 	ldw	r2,-16(fp)
  8071a4:	10801f03 	ldbu	r2,124(r2)
  8071a8:	10803fcc 	andi	r2,r2,255
  8071ac:	1080201c 	xori	r2,r2,128
  8071b0:	10bfe004 	addi	r2,r2,-128
  8071b4:	10000226 	beq	r2,zero,8071c0 <logic+0x6a24>
  8071b8:	00800044 	movi	r2,1
  8071bc:	00000106 	br	8071c4 <logic+0x6a28>
  8071c0:	0005883a 	mov	r2,zero
  8071c4:	1007883a 	mov	r3,r2
  8071c8:	e0bffc17 	ldw	r2,-16(fp)
  8071cc:	10c05ac5 	stb	r3,363(r2)
  d->_g210 = d->_g216 && !d->_cg219 || d->_g202_e1 && !d->_cg222;
  8071d0:	e0bffc17 	ldw	r2,-16(fp)
  8071d4:	10804203 	ldbu	r2,264(r2)
  8071d8:	10803fcc 	andi	r2,r2,255
  8071dc:	1080201c 	xori	r2,r2,128
  8071e0:	10bfe004 	addi	r2,r2,-128
  8071e4:	10000626 	beq	r2,zero,807200 <logic+0x6a64>
  8071e8:	e0bffc17 	ldw	r2,-16(fp)
  8071ec:	10805a83 	ldbu	r2,362(r2)
  8071f0:	10803fcc 	andi	r2,r2,255
  8071f4:	1080201c 	xori	r2,r2,128
  8071f8:	10bfe004 	addi	r2,r2,-128
  8071fc:	10000c26 	beq	r2,zero,807230 <logic+0x6a94>
  807200:	e0bffc17 	ldw	r2,-16(fp)
  807204:	10806243 	ldbu	r2,393(r2)
  807208:	10803fcc 	andi	r2,r2,255
  80720c:	1080201c 	xori	r2,r2,128
  807210:	10bfe004 	addi	r2,r2,-128
  807214:	10000826 	beq	r2,zero,807238 <logic+0x6a9c>
  807218:	e0bffc17 	ldw	r2,-16(fp)
  80721c:	10805ac3 	ldbu	r2,363(r2)
  807220:	10803fcc 	andi	r2,r2,255
  807224:	1080201c 	xori	r2,r2,128
  807228:	10bfe004 	addi	r2,r2,-128
  80722c:	1000021e 	bne	r2,zero,807238 <logic+0x6a9c>
  807230:	00800044 	movi	r2,1
  807234:	00000106 	br	80723c <logic+0x6aa0>
  807238:	0005883a 	mov	r2,zero
  80723c:	1007883a 	mov	r3,r2
  807240:	e0bffc17 	ldw	r2,-16(fp)
  807244:	10c04105 	stb	r3,260(r2)
  d->_g213 = d->_g205 || d->_g172_e2 && !d->_cg228;
  807248:	e0bffc17 	ldw	r2,-16(fp)
  80724c:	10804083 	ldbu	r2,258(r2)
  807250:	10803fcc 	andi	r2,r2,255
  807254:	1080201c 	xori	r2,r2,128
  807258:	10bfe004 	addi	r2,r2,-128
  80725c:	10000c1e 	bne	r2,zero,807290 <logic+0x6af4>
  807260:	e0bffc17 	ldw	r2,-16(fp)
  807264:	10806143 	ldbu	r2,389(r2)
  807268:	10803fcc 	andi	r2,r2,255
  80726c:	1080201c 	xori	r2,r2,128
  807270:	10bfe004 	addi	r2,r2,-128
  807274:	10000826 	beq	r2,zero,807298 <logic+0x6afc>
  807278:	e0bffc17 	ldw	r2,-16(fp)
  80727c:	10805b03 	ldbu	r2,364(r2)
  807280:	10803fcc 	andi	r2,r2,255
  807284:	1080201c 	xori	r2,r2,128
  807288:	10bfe004 	addi	r2,r2,-128
  80728c:	1000021e 	bne	r2,zero,807298 <logic+0x6afc>
  807290:	00800044 	movi	r2,1
  807294:	00000106 	br	80729c <logic+0x6b00>
  807298:	0005883a 	mov	r2,zero
  80729c:	1007883a 	mov	r3,r2
  8072a0:	e0bffc17 	ldw	r2,-16(fp)
  8072a4:	10c04185 	stb	r3,262(r2)
  d->_g217 = d->_GO || d->_g236 || d->_g238 || d->_g235 && !d->_cg237;
  8072a8:	e0bffc17 	ldw	r2,-16(fp)
  8072ac:	10804543 	ldbu	r2,277(r2)
  8072b0:	10803fcc 	andi	r2,r2,255
  8072b4:	1080201c 	xori	r2,r2,128
  8072b8:	10bfe004 	addi	r2,r2,-128
  8072bc:	1000181e 	bne	r2,zero,807320 <logic+0x6b84>
  8072c0:	e0bffc17 	ldw	r2,-16(fp)
  8072c4:	108044c3 	ldbu	r2,275(r2)
  8072c8:	10803fcc 	andi	r2,r2,255
  8072cc:	1080201c 	xori	r2,r2,128
  8072d0:	10bfe004 	addi	r2,r2,-128
  8072d4:	1000121e 	bne	r2,zero,807320 <logic+0x6b84>
  8072d8:	e0bffc17 	ldw	r2,-16(fp)
  8072dc:	10804503 	ldbu	r2,276(r2)
  8072e0:	10803fcc 	andi	r2,r2,255
  8072e4:	1080201c 	xori	r2,r2,128
  8072e8:	10bfe004 	addi	r2,r2,-128
  8072ec:	10000c1e 	bne	r2,zero,807320 <logic+0x6b84>
  8072f0:	e0bffc17 	ldw	r2,-16(fp)
  8072f4:	10804483 	ldbu	r2,274(r2)
  8072f8:	10803fcc 	andi	r2,r2,255
  8072fc:	1080201c 	xori	r2,r2,128
  807300:	10bfe004 	addi	r2,r2,-128
  807304:	10000826 	beq	r2,zero,807328 <logic+0x6b8c>
  807308:	e0bffc17 	ldw	r2,-16(fp)
  80730c:	10805b83 	ldbu	r2,366(r2)
  807310:	10803fcc 	andi	r2,r2,255
  807314:	1080201c 	xori	r2,r2,128
  807318:	10bfe004 	addi	r2,r2,-128
  80731c:	1000021e 	bne	r2,zero,807328 <logic+0x6b8c>
  807320:	00800044 	movi	r2,1
  807324:	00000106 	br	80732c <logic+0x6b90>
  807328:	0005883a 	mov	r2,zero
  80732c:	1007883a 	mov	r3,r2
  807330:	e0bffc17 	ldw	r2,-16(fp)
  807334:	10c04245 	stb	r3,265(r2)
  d->_reg_VP = d->VP;
  807338:	e0bffc17 	ldw	r2,-16(fp)
  80733c:	10c017c3 	ldbu	r3,95(r2)
  807340:	e0bffc17 	ldw	r2,-16(fp)
  807344:	10c01945 	stb	r3,101(r2)
  d->_reg_VS_i = d->VS_i;
  807348:	e0bffc17 	ldw	r2,-16(fp)
  80734c:	10c01903 	ldbu	r3,100(r2)
  807350:	e0bffc17 	ldw	r2,-16(fp)
  807354:	10c019c5 	stb	r3,103(r2)
}
  807358:	0001883a 	nop
  80735c:	e6fffd04 	addi	sp,fp,-12
  807360:	dfc00417 	ldw	ra,16(sp)
  807364:	df000317 	ldw	fp,12(sp)
  807368:	dc800217 	ldw	r18,8(sp)
  80736c:	dc400117 	ldw	r17,4(sp)
  807370:	dc000017 	ldw	r16,0(sp)
  807374:	dec00504 	addi	sp,sp,20
  807378:	f800283a 	ret

0080737c <reset>:

void reset(TickData* d) {
  80737c:	defffe04 	addi	sp,sp,-8
  807380:	df000115 	stw	fp,4(sp)
  807384:	df000104 	addi	fp,sp,4
  807388:	e13fff15 	stw	r4,-4(fp)
  d->_GO = 1;
  80738c:	e0bfff17 	ldw	r2,-4(fp)
  807390:	00c00044 	movi	r3,1
  807394:	10c04545 	stb	r3,277(r2)
  d->_TERM = 0;
  807398:	e0bfff17 	ldw	r2,-4(fp)
  80739c:	10006385 	stb	zero,398(r2)
  d->VRP_time = VRP_VALUE;
  8073a0:	e0bfff17 	ldw	r2,-4(fp)
  8073a4:	00c02584 	movi	r3,150
  8073a8:	10c00015 	stw	r3,0(r2)
  d->PVARP_time = PVARP_VALUE;
  8073ac:	e0bfff17 	ldw	r2,-4(fp)
  8073b0:	00c00c84 	movi	r3,50
  8073b4:	10c00115 	stw	r3,4(r2)
  d->URI_time = URI_VALUE;
  8073b8:	e0bfff17 	ldw	r2,-4(fp)
  8073bc:	00c0e104 	movi	r3,900
  8073c0:	10c00215 	stw	r3,8(r2)
  d->LRI_time = LRI_VALUE;
  8073c4:	e0bfff17 	ldw	r2,-4(fp)
  8073c8:	00c0ed84 	movi	r3,950
  8073cc:	10c00315 	stw	r3,12(r2)
  d->AEI_time = AEI_VALUE;
  8073d0:	e0bfff17 	ldw	r2,-4(fp)
  8073d4:	00c0c804 	movi	r3,800
  8073d8:	10c00415 	stw	r3,16(r2)
  d->AVI_time = AVI_VALUE;
  8073dc:	e0bfff17 	ldw	r2,-4(fp)
  8073e0:	00c04b04 	movi	r3,300
  8073e4:	10c00515 	stw	r3,20(r2)
  d->ready = 0;
  8073e8:	e0bfff17 	ldw	r2,-4(fp)
  8073ec:	10000605 	stb	zero,24(r2)
  d->_region0_null_URI = 0.0;
  8073f0:	e0bfff17 	ldw	r2,-4(fp)
  8073f4:	10000715 	stw	zero,28(r2)
  8073f8:	10000815 	stw	zero,32(r2)
  d->_region1_null_LRI = 0.0;
  8073fc:	e0bfff17 	ldw	r2,-4(fp)
  807400:	10000915 	stw	zero,36(r2)
  807404:	10000a15 	stw	zero,40(r2)
  d->_region2_null_VRP = 0.0;
  807408:	e0bfff17 	ldw	r2,-4(fp)
  80740c:	10000b15 	stw	zero,44(r2)
  807410:	10000c15 	stw	zero,48(r2)
  d->_region3_null_PVARP = 0.0;
  807414:	e0bfff17 	ldw	r2,-4(fp)
  807418:	10000d15 	stw	zero,52(r2)
  80741c:	10000e15 	stw	zero,56(r2)
  d->_region4_null_AEI = 0.0;
  807420:	e0bfff17 	ldw	r2,-4(fp)
  807424:	10000f15 	stw	zero,60(r2)
  807428:	10001015 	stw	zero,64(r2)
  d->_region5_null_AVI = 0.0;
  80742c:	e0bfff17 	ldw	r2,-4(fp)
  807430:	10001115 	stw	zero,68(r2)
  807434:	10001215 	stw	zero,72(r2)
  d->deltaT = 0.0;
  807438:	e0bfff17 	ldw	r2,-4(fp)
  80743c:	10001315 	stw	zero,76(r2)
  807440:	10001415 	stw	zero,80(r2)
  d->sleepT = 0.0;
  807444:	e0bfff17 	ldw	r2,-4(fp)
  807448:	10001515 	stw	zero,84(r2)
  80744c:	10001615 	stw	zero,88(r2)
  d->_reg_VP = 0;
  807450:	e0bfff17 	ldw	r2,-4(fp)
  807454:	10001945 	stb	zero,101(r2)
  d->_reg_VS_i = 0;
  807458:	e0bfff17 	ldw	r2,-4(fp)
  80745c:	100019c5 	stb	zero,103(r2)
  d->_pg9 = 0;
  807460:	e0bfff17 	ldw	r2,-4(fp)
  807464:	100063c5 	stb	zero,399(r2)
  d->_pg217 = 0;
  807468:	e0bfff17 	ldw	r2,-4(fp)
  80746c:	10006405 	stb	zero,400(r2)
  d->_pg13 = 0;
  807470:	e0bfff17 	ldw	r2,-4(fp)
  807474:	10006445 	stb	zero,401(r2)
  d->_pg7_e1 = 0;
  807478:	e0bfff17 	ldw	r2,-4(fp)
  80747c:	10006485 	stb	zero,402(r2)
  d->_pg36 = 0;
  807480:	e0bfff17 	ldw	r2,-4(fp)
  807484:	100064c5 	stb	zero,403(r2)
  d->_pg37 = 0;
  807488:	e0bfff17 	ldw	r2,-4(fp)
  80748c:	10006505 	stb	zero,404(r2)
  d->_pg14 = 0;
  807490:	e0bfff17 	ldw	r2,-4(fp)
  807494:	10006545 	stb	zero,405(r2)
  d->_pg46 = 0;
  807498:	e0bfff17 	ldw	r2,-4(fp)
  80749c:	10006585 	stb	zero,406(r2)
  d->_pg50 = 0;
  8074a0:	e0bfff17 	ldw	r2,-4(fp)
  8074a4:	100065c5 	stb	zero,407(r2)
  d->_pg44_e1 = 0;
  8074a8:	e0bfff17 	ldw	r2,-4(fp)
  8074ac:	10006605 	stb	zero,408(r2)
  d->_pg74 = 0;
  8074b0:	e0bfff17 	ldw	r2,-4(fp)
  8074b4:	10006645 	stb	zero,409(r2)
  d->_pg73 = 0;
  8074b8:	e0bfff17 	ldw	r2,-4(fp)
  8074bc:	10006685 	stb	zero,410(r2)
  d->_pg51_e2 = 0;
  8074c0:	e0bfff17 	ldw	r2,-4(fp)
  8074c4:	100066c5 	stb	zero,411(r2)
  d->_pg83 = 0;
  8074c8:	e0bfff17 	ldw	r2,-4(fp)
  8074cc:	10006705 	stb	zero,412(r2)
  d->_pg89 = 0;
  8074d0:	e0bfff17 	ldw	r2,-4(fp)
  8074d4:	10006745 	stb	zero,413(r2)
  d->_pg88 = 0;
  8074d8:	e0bfff17 	ldw	r2,-4(fp)
  8074dc:	10006785 	stb	zero,414(r2)
  d->_pg114 = 0;
  8074e0:	e0bfff17 	ldw	r2,-4(fp)
  8074e4:	100067c5 	stb	zero,415(r2)
  d->_pg116 = 0;
  8074e8:	e0bfff17 	ldw	r2,-4(fp)
  8074ec:	10006805 	stb	zero,416(r2)
  d->_pg97_e3 = 0;
  8074f0:	e0bfff17 	ldw	r2,-4(fp)
  8074f4:	10006845 	stb	zero,417(r2)
  d->_pg129 = 0;
  8074f8:	e0bfff17 	ldw	r2,-4(fp)
  8074fc:	10006885 	stb	zero,418(r2)
  d->_pg134 = 0;
  807500:	e0bfff17 	ldw	r2,-4(fp)
  807504:	100068c5 	stb	zero,419(r2)
  d->_pg130_e2 = 0;
  807508:	e0bfff17 	ldw	r2,-4(fp)
  80750c:	10006905 	stb	zero,420(r2)
  d->_pg158 = 0;
  807510:	e0bfff17 	ldw	r2,-4(fp)
  807514:	10006945 	stb	zero,421(r2)
  d->_pg156 = 0;
  807518:	e0bfff17 	ldw	r2,-4(fp)
  80751c:	10006985 	stb	zero,422(r2)
  d->_pg139 = 0;
  807520:	e0bfff17 	ldw	r2,-4(fp)
  807524:	100069c5 	stb	zero,423(r2)
  d->_pg179 = 0;
  807528:	e0bfff17 	ldw	r2,-4(fp)
  80752c:	10006a05 	stb	zero,424(r2)
  d->_pg181_e3 = 0;
  807530:	e0bfff17 	ldw	r2,-4(fp)
  807534:	10006a45 	stb	zero,425(r2)
  d->_pg195 = 0;
  807538:	e0bfff17 	ldw	r2,-4(fp)
  80753c:	10006a85 	stb	zero,426(r2)
  d->_pg173 = 0;
  807540:	e0bfff17 	ldw	r2,-4(fp)
  807544:	10006ac5 	stb	zero,427(r2)
  d->_pg167 = 0;
  807548:	e0bfff17 	ldw	r2,-4(fp)
  80754c:	10006b05 	stb	zero,428(r2)
  d->_pg176 = 0;
  807550:	e0bfff17 	ldw	r2,-4(fp)
  807554:	10006b45 	stb	zero,429(r2)
  d->_pg206 = 0;
  807558:	e0bfff17 	ldw	r2,-4(fp)
  80755c:	10006b85 	stb	zero,430(r2)
  d->_pg213 = 0;
  807560:	e0bfff17 	ldw	r2,-4(fp)
  807564:	10006bc5 	stb	zero,431(r2)
  d->_pg210 = 0;
  807568:	e0bfff17 	ldw	r2,-4(fp)
  80756c:	10006c05 	stb	zero,432(r2)
  d->_pg202 = 0;
  807570:	e0bfff17 	ldw	r2,-4(fp)
  807574:	10006c45 	stb	zero,433(r2)
  d->_pg231 = 0;
  807578:	e0bfff17 	ldw	r2,-4(fp)
  80757c:	10006c85 	stb	zero,434(r2)
  d->_pg211_e1 = 0;
  807580:	e0bfff17 	ldw	r2,-4(fp)
  807584:	10006cc5 	stb	zero,435(r2)
}
  807588:	0001883a 	nop
  80758c:	e037883a 	mov	sp,fp
  807590:	df000017 	ldw	fp,0(sp)
  807594:	dec00104 	addi	sp,sp,4
  807598:	f800283a 	ret

0080759c <tick>:

void tick(TickData* d) {
  80759c:	defffd04 	addi	sp,sp,-12
  8075a0:	dfc00215 	stw	ra,8(sp)
  8075a4:	df000115 	stw	fp,4(sp)
  8075a8:	df000104 	addi	fp,sp,4
  8075ac:	e13fff15 	stw	r4,-4(fp)
  logic(d);
  8075b0:	e13fff17 	ldw	r4,-4(fp)
  8075b4:	080079c0 	call	80079c <logic>

  d->_pg9 = d->_g9;
  8075b8:	e0bfff17 	ldw	r2,-4(fp)
  8075bc:	10c02003 	ldbu	r3,128(r2)
  8075c0:	e0bfff17 	ldw	r2,-4(fp)
  8075c4:	10c063c5 	stb	r3,399(r2)
  d->_pg217 = d->_g217;
  8075c8:	e0bfff17 	ldw	r2,-4(fp)
  8075cc:	10c04243 	ldbu	r3,265(r2)
  8075d0:	e0bfff17 	ldw	r2,-4(fp)
  8075d4:	10c06405 	stb	r3,400(r2)
  d->_pg13 = d->_g13;
  8075d8:	e0bfff17 	ldw	r2,-4(fp)
  8075dc:	10c020c3 	ldbu	r3,131(r2)
  8075e0:	e0bfff17 	ldw	r2,-4(fp)
  8075e4:	10c06445 	stb	r3,401(r2)
  d->_pg7_e1 = d->_g7_e1;
  8075e8:	e0bfff17 	ldw	r2,-4(fp)
  8075ec:	10c05c03 	ldbu	r3,368(r2)
  8075f0:	e0bfff17 	ldw	r2,-4(fp)
  8075f4:	10c06485 	stb	r3,402(r2)
  d->_pg36 = d->_g36;
  8075f8:	e0bfff17 	ldw	r2,-4(fp)
  8075fc:	10c024c3 	ldbu	r3,147(r2)
  807600:	e0bfff17 	ldw	r2,-4(fp)
  807604:	10c064c5 	stb	r3,403(r2)
  d->_pg37 = d->_g37;
  807608:	e0bfff17 	ldw	r2,-4(fp)
  80760c:	10c02503 	ldbu	r3,148(r2)
  807610:	e0bfff17 	ldw	r2,-4(fp)
  807614:	10c06505 	stb	r3,404(r2)
  d->_pg14 = d->_g14;
  807618:	e0bfff17 	ldw	r2,-4(fp)
  80761c:	10c02103 	ldbu	r3,132(r2)
  807620:	e0bfff17 	ldw	r2,-4(fp)
  807624:	10c06545 	stb	r3,405(r2)
  d->_pg46 = d->_g46;
  807628:	e0bfff17 	ldw	r2,-4(fp)
  80762c:	10c02603 	ldbu	r3,152(r2)
  807630:	e0bfff17 	ldw	r2,-4(fp)
  807634:	10c06585 	stb	r3,406(r2)
  d->_pg50 = d->_g50;
  807638:	e0bfff17 	ldw	r2,-4(fp)
  80763c:	10c026c3 	ldbu	r3,155(r2)
  807640:	e0bfff17 	ldw	r2,-4(fp)
  807644:	10c065c5 	stb	r3,407(r2)
  d->_pg44_e1 = d->_g44_e1;
  807648:	e0bfff17 	ldw	r2,-4(fp)
  80764c:	10c05d43 	ldbu	r3,373(r2)
  807650:	e0bfff17 	ldw	r2,-4(fp)
  807654:	10c06605 	stb	r3,408(r2)
  d->_pg74 = d->_g74;
  807658:	e0bfff17 	ldw	r2,-4(fp)
  80765c:	10c02b03 	ldbu	r3,172(r2)
  807660:	e0bfff17 	ldw	r2,-4(fp)
  807664:	10c06645 	stb	r3,409(r2)
  d->_pg73 = d->_g73;
  807668:	e0bfff17 	ldw	r2,-4(fp)
  80766c:	10c02ac3 	ldbu	r3,171(r2)
  807670:	e0bfff17 	ldw	r2,-4(fp)
  807674:	10c06685 	stb	r3,410(r2)
  d->_pg51_e2 = d->_g51_e2;
  807678:	e0bfff17 	ldw	r2,-4(fp)
  80767c:	10c05d83 	ldbu	r3,374(r2)
  807680:	e0bfff17 	ldw	r2,-4(fp)
  807684:	10c066c5 	stb	r3,411(r2)
  d->_pg83 = d->_g83;
  807688:	e0bfff17 	ldw	r2,-4(fp)
  80768c:	10c02c03 	ldbu	r3,176(r2)
  807690:	e0bfff17 	ldw	r2,-4(fp)
  807694:	10c06705 	stb	r3,412(r2)
  d->_pg89 = d->_g89;
  807698:	e0bfff17 	ldw	r2,-4(fp)
  80769c:	10c02d43 	ldbu	r3,181(r2)
  8076a0:	e0bfff17 	ldw	r2,-4(fp)
  8076a4:	10c06745 	stb	r3,413(r2)
  d->_pg88 = d->_g88;
  8076a8:	e0bfff17 	ldw	r2,-4(fp)
  8076ac:	10c02d03 	ldbu	r3,180(r2)
  8076b0:	e0bfff17 	ldw	r2,-4(fp)
  8076b4:	10c06785 	stb	r3,414(r2)
  d->_pg114 = d->_g114;
  8076b8:	e0bfff17 	ldw	r2,-4(fp)
  8076bc:	10c031c3 	ldbu	r3,199(r2)
  8076c0:	e0bfff17 	ldw	r2,-4(fp)
  8076c4:	10c067c5 	stb	r3,415(r2)
  d->_pg116 = d->_g116;
  8076c8:	e0bfff17 	ldw	r2,-4(fp)
  8076cc:	10c03243 	ldbu	r3,201(r2)
  8076d0:	e0bfff17 	ldw	r2,-4(fp)
  8076d4:	10c06805 	stb	r3,416(r2)
  d->_pg97_e3 = d->_g97_e3;
  8076d8:	e0bfff17 	ldw	r2,-4(fp)
  8076dc:	10c05f03 	ldbu	r3,380(r2)
  8076e0:	e0bfff17 	ldw	r2,-4(fp)
  8076e4:	10c06845 	stb	r3,417(r2)
  d->_pg129 = d->_g129;
  8076e8:	e0bfff17 	ldw	r2,-4(fp)
  8076ec:	10c03403 	ldbu	r3,208(r2)
  8076f0:	e0bfff17 	ldw	r2,-4(fp)
  8076f4:	10c06885 	stb	r3,418(r2)
  d->_pg134 = d->_g134;
  8076f8:	e0bfff17 	ldw	r2,-4(fp)
  8076fc:	10c03503 	ldbu	r3,212(r2)
  807700:	e0bfff17 	ldw	r2,-4(fp)
  807704:	10c068c5 	stb	r3,419(r2)
  d->_pg130_e2 = d->_g130_e2;
  807708:	e0bfff17 	ldw	r2,-4(fp)
  80770c:	10c06003 	ldbu	r3,384(r2)
  807710:	e0bfff17 	ldw	r2,-4(fp)
  807714:	10c06905 	stb	r3,420(r2)
  d->_pg158 = d->_g158;
  807718:	e0bfff17 	ldw	r2,-4(fp)
  80771c:	10c03983 	ldbu	r3,230(r2)
  807720:	e0bfff17 	ldw	r2,-4(fp)
  807724:	10c06945 	stb	r3,421(r2)
  d->_pg156 = d->_g156;
  807728:	e0bfff17 	ldw	r2,-4(fp)
  80772c:	10c03903 	ldbu	r3,228(r2)
  807730:	e0bfff17 	ldw	r2,-4(fp)
  807734:	10c06985 	stb	r3,422(r2)
  d->_pg139 = d->_g139;
  807738:	e0bfff17 	ldw	r2,-4(fp)
  80773c:	10c035c3 	ldbu	r3,215(r2)
  807740:	e0bfff17 	ldw	r2,-4(fp)
  807744:	10c069c5 	stb	r3,423(r2)
  d->_pg179 = d->_g179;
  807748:	e0bfff17 	ldw	r2,-4(fp)
  80774c:	10c03c83 	ldbu	r3,242(r2)
  807750:	e0bfff17 	ldw	r2,-4(fp)
  807754:	10c06a05 	stb	r3,424(r2)
  d->_pg181_e3 = d->_g181_e3;
  807758:	e0bfff17 	ldw	r2,-4(fp)
  80775c:	10c06183 	ldbu	r3,390(r2)
  807760:	e0bfff17 	ldw	r2,-4(fp)
  807764:	10c06a45 	stb	r3,425(r2)
  d->_pg195 = d->_g195;
  807768:	e0bfff17 	ldw	r2,-4(fp)
  80776c:	10c03f83 	ldbu	r3,254(r2)
  807770:	e0bfff17 	ldw	r2,-4(fp)
  807774:	10c06a85 	stb	r3,426(r2)
  d->_pg173 = d->_g173;
  807778:	e0bfff17 	ldw	r2,-4(fp)
  80777c:	10c03bc3 	ldbu	r3,239(r2)
  807780:	e0bfff17 	ldw	r2,-4(fp)
  807784:	10c06ac5 	stb	r3,427(r2)
  d->_pg167 = d->_g167;
  807788:	e0bfff17 	ldw	r2,-4(fp)
  80778c:	10c03a83 	ldbu	r3,234(r2)
  807790:	e0bfff17 	ldw	r2,-4(fp)
  807794:	10c06b05 	stb	r3,428(r2)
  d->_pg176 = d->_g176;
  807798:	e0bfff17 	ldw	r2,-4(fp)
  80779c:	10c03c43 	ldbu	r3,241(r2)
  8077a0:	e0bfff17 	ldw	r2,-4(fp)
  8077a4:	10c06b45 	stb	r3,429(r2)
  d->_pg206 = d->_g206;
  8077a8:	e0bfff17 	ldw	r2,-4(fp)
  8077ac:	10c040c3 	ldbu	r3,259(r2)
  8077b0:	e0bfff17 	ldw	r2,-4(fp)
  8077b4:	10c06b85 	stb	r3,430(r2)
  d->_pg213 = d->_g213;
  8077b8:	e0bfff17 	ldw	r2,-4(fp)
  8077bc:	10c04183 	ldbu	r3,262(r2)
  8077c0:	e0bfff17 	ldw	r2,-4(fp)
  8077c4:	10c06bc5 	stb	r3,431(r2)
  d->_pg210 = d->_g210;
  8077c8:	e0bfff17 	ldw	r2,-4(fp)
  8077cc:	10c04103 	ldbu	r3,260(r2)
  8077d0:	e0bfff17 	ldw	r2,-4(fp)
  8077d4:	10c06c05 	stb	r3,432(r2)
  d->_pg202 = d->_g202;
  8077d8:	e0bfff17 	ldw	r2,-4(fp)
  8077dc:	10c04043 	ldbu	r3,257(r2)
  8077e0:	e0bfff17 	ldw	r2,-4(fp)
  8077e4:	10c06c45 	stb	r3,433(r2)
  d->_pg231 = d->_g231;
  8077e8:	e0bfff17 	ldw	r2,-4(fp)
  8077ec:	10c04443 	ldbu	r3,273(r2)
  8077f0:	e0bfff17 	ldw	r2,-4(fp)
  8077f4:	10c06c85 	stb	r3,434(r2)
  d->_pg211_e1 = d->_g211_e1;
  8077f8:	e0bfff17 	ldw	r2,-4(fp)
  8077fc:	10c062c3 	ldbu	r3,395(r2)
  807800:	e0bfff17 	ldw	r2,-4(fp)
  807804:	10c06cc5 	stb	r3,435(r2)
  d->_GO = 0;
  807808:	e0bfff17 	ldw	r2,-4(fp)
  80780c:	10004545 	stb	zero,277(r2)
}
  807810:	0001883a 	nop
  807814:	e037883a 	mov	sp,fp
  807818:	dfc00117 	ldw	ra,4(sp)
  80781c:	df000017 	ldw	fp,0(sp)
  807820:	dec00204 	addi	sp,sp,8
  807824:	f800283a 	ret

00807828 <__adddf3>:
  807828:	02c00434 	movhi	r11,16
  80782c:	5affffc4 	addi	r11,r11,-1
  807830:	2806d7fa 	srli	r3,r5,31
  807834:	2ad4703a 	and	r10,r5,r11
  807838:	3ad2703a 	and	r9,r7,r11
  80783c:	3804d53a 	srli	r2,r7,20
  807840:	3018d77a 	srli	r12,r6,29
  807844:	280ad53a 	srli	r5,r5,20
  807848:	501490fa 	slli	r10,r10,3
  80784c:	2010d77a 	srli	r8,r4,29
  807850:	481290fa 	slli	r9,r9,3
  807854:	380ed7fa 	srli	r7,r7,31
  807858:	defffb04 	addi	sp,sp,-20
  80785c:	dc800215 	stw	r18,8(sp)
  807860:	dc400115 	stw	r17,4(sp)
  807864:	dc000015 	stw	r16,0(sp)
  807868:	dfc00415 	stw	ra,16(sp)
  80786c:	dcc00315 	stw	r19,12(sp)
  807870:	1c803fcc 	andi	r18,r3,255
  807874:	2c01ffcc 	andi	r16,r5,2047
  807878:	5210b03a 	or	r8,r10,r8
  80787c:	202290fa 	slli	r17,r4,3
  807880:	1081ffcc 	andi	r2,r2,2047
  807884:	4b12b03a 	or	r9,r9,r12
  807888:	300c90fa 	slli	r6,r6,3
  80788c:	91c07526 	beq	r18,r7,807a64 <__adddf3+0x23c>
  807890:	8087c83a 	sub	r3,r16,r2
  807894:	00c0ab0e 	bge	zero,r3,807b44 <__adddf3+0x31c>
  807898:	10002a1e 	bne	r2,zero,807944 <__adddf3+0x11c>
  80789c:	4984b03a 	or	r2,r9,r6
  8078a0:	1000961e 	bne	r2,zero,807afc <__adddf3+0x2d4>
  8078a4:	888001cc 	andi	r2,r17,7
  8078a8:	10000726 	beq	r2,zero,8078c8 <__adddf3+0xa0>
  8078ac:	888003cc 	andi	r2,r17,15
  8078b0:	00c00104 	movi	r3,4
  8078b4:	10c00426 	beq	r2,r3,8078c8 <__adddf3+0xa0>
  8078b8:	88c7883a 	add	r3,r17,r3
  8078bc:	1c63803a 	cmpltu	r17,r3,r17
  8078c0:	4451883a 	add	r8,r8,r17
  8078c4:	1823883a 	mov	r17,r3
  8078c8:	4080202c 	andhi	r2,r8,128
  8078cc:	10005926 	beq	r2,zero,807a34 <__adddf3+0x20c>
  8078d0:	84000044 	addi	r16,r16,1
  8078d4:	0081ffc4 	movi	r2,2047
  8078d8:	8080ba26 	beq	r16,r2,807bc4 <__adddf3+0x39c>
  8078dc:	00bfe034 	movhi	r2,65408
  8078e0:	10bfffc4 	addi	r2,r2,-1
  8078e4:	4090703a 	and	r8,r8,r2
  8078e8:	4004977a 	slli	r2,r8,29
  8078ec:	4010927a 	slli	r8,r8,9
  8078f0:	8822d0fa 	srli	r17,r17,3
  8078f4:	8401ffcc 	andi	r16,r16,2047
  8078f8:	4010d33a 	srli	r8,r8,12
  8078fc:	9007883a 	mov	r3,r18
  807900:	1444b03a 	or	r2,r2,r17
  807904:	8401ffcc 	andi	r16,r16,2047
  807908:	8020953a 	slli	r16,r16,20
  80790c:	18c03fcc 	andi	r3,r3,255
  807910:	01000434 	movhi	r4,16
  807914:	213fffc4 	addi	r4,r4,-1
  807918:	180697fa 	slli	r3,r3,31
  80791c:	4110703a 	and	r8,r8,r4
  807920:	4410b03a 	or	r8,r8,r16
  807924:	40c6b03a 	or	r3,r8,r3
  807928:	dfc00417 	ldw	ra,16(sp)
  80792c:	dcc00317 	ldw	r19,12(sp)
  807930:	dc800217 	ldw	r18,8(sp)
  807934:	dc400117 	ldw	r17,4(sp)
  807938:	dc000017 	ldw	r16,0(sp)
  80793c:	dec00504 	addi	sp,sp,20
  807940:	f800283a 	ret
  807944:	0081ffc4 	movi	r2,2047
  807948:	80bfd626 	beq	r16,r2,8078a4 <__alt_mem_onchip_mem+0xff7ff8a4>
  80794c:	4a402034 	orhi	r9,r9,128
  807950:	00800e04 	movi	r2,56
  807954:	10c09f16 	blt	r2,r3,807bd4 <__adddf3+0x3ac>
  807958:	008007c4 	movi	r2,31
  80795c:	10c0c216 	blt	r2,r3,807c68 <__adddf3+0x440>
  807960:	00800804 	movi	r2,32
  807964:	10c5c83a 	sub	r2,r2,r3
  807968:	488a983a 	sll	r5,r9,r2
  80796c:	30c8d83a 	srl	r4,r6,r3
  807970:	3084983a 	sll	r2,r6,r2
  807974:	48c6d83a 	srl	r3,r9,r3
  807978:	290cb03a 	or	r6,r5,r4
  80797c:	1004c03a 	cmpne	r2,r2,zero
  807980:	308cb03a 	or	r6,r6,r2
  807984:	898dc83a 	sub	r6,r17,r6
  807988:	89a3803a 	cmpltu	r17,r17,r6
  80798c:	40d1c83a 	sub	r8,r8,r3
  807990:	4451c83a 	sub	r8,r8,r17
  807994:	3023883a 	mov	r17,r6
  807998:	4080202c 	andhi	r2,r8,128
  80799c:	10002326 	beq	r2,zero,807a2c <__adddf3+0x204>
  8079a0:	04c02034 	movhi	r19,128
  8079a4:	9cffffc4 	addi	r19,r19,-1
  8079a8:	44e6703a 	and	r19,r8,r19
  8079ac:	98007626 	beq	r19,zero,807b88 <__adddf3+0x360>
  8079b0:	9809883a 	mov	r4,r19
  8079b4:	0808c7c0 	call	808c7c <__clzsi2>
  8079b8:	10fffe04 	addi	r3,r2,-8
  8079bc:	010007c4 	movi	r4,31
  8079c0:	20c07716 	blt	r4,r3,807ba0 <__adddf3+0x378>
  8079c4:	00800804 	movi	r2,32
  8079c8:	10c5c83a 	sub	r2,r2,r3
  8079cc:	8884d83a 	srl	r2,r17,r2
  8079d0:	98d0983a 	sll	r8,r19,r3
  8079d4:	88e2983a 	sll	r17,r17,r3
  8079d8:	1204b03a 	or	r2,r2,r8
  8079dc:	1c007416 	blt	r3,r16,807bb0 <__adddf3+0x388>
  8079e0:	1c21c83a 	sub	r16,r3,r16
  8079e4:	82000044 	addi	r8,r16,1
  8079e8:	00c007c4 	movi	r3,31
  8079ec:	1a009116 	blt	r3,r8,807c34 <__adddf3+0x40c>
  8079f0:	00c00804 	movi	r3,32
  8079f4:	1a07c83a 	sub	r3,r3,r8
  8079f8:	8a08d83a 	srl	r4,r17,r8
  8079fc:	88e2983a 	sll	r17,r17,r3
  807a00:	10c6983a 	sll	r3,r2,r3
  807a04:	1210d83a 	srl	r8,r2,r8
  807a08:	8804c03a 	cmpne	r2,r17,zero
  807a0c:	1906b03a 	or	r3,r3,r4
  807a10:	18a2b03a 	or	r17,r3,r2
  807a14:	0021883a 	mov	r16,zero
  807a18:	003fa206 	br	8078a4 <__alt_mem_onchip_mem+0xff7ff8a4>
  807a1c:	1890b03a 	or	r8,r3,r2
  807a20:	40017d26 	beq	r8,zero,808018 <__adddf3+0x7f0>
  807a24:	1011883a 	mov	r8,r2
  807a28:	1823883a 	mov	r17,r3
  807a2c:	888001cc 	andi	r2,r17,7
  807a30:	103f9e1e 	bne	r2,zero,8078ac <__alt_mem_onchip_mem+0xff7ff8ac>
  807a34:	4004977a 	slli	r2,r8,29
  807a38:	8822d0fa 	srli	r17,r17,3
  807a3c:	4010d0fa 	srli	r8,r8,3
  807a40:	9007883a 	mov	r3,r18
  807a44:	1444b03a 	or	r2,r2,r17
  807a48:	0101ffc4 	movi	r4,2047
  807a4c:	81002426 	beq	r16,r4,807ae0 <__adddf3+0x2b8>
  807a50:	8120703a 	and	r16,r16,r4
  807a54:	01000434 	movhi	r4,16
  807a58:	213fffc4 	addi	r4,r4,-1
  807a5c:	4110703a 	and	r8,r8,r4
  807a60:	003fa806 	br	807904 <__alt_mem_onchip_mem+0xff7ff904>
  807a64:	8089c83a 	sub	r4,r16,r2
  807a68:	01005e0e 	bge	zero,r4,807be4 <__adddf3+0x3bc>
  807a6c:	10002b26 	beq	r2,zero,807b1c <__adddf3+0x2f4>
  807a70:	0081ffc4 	movi	r2,2047
  807a74:	80bf8b26 	beq	r16,r2,8078a4 <__alt_mem_onchip_mem+0xff7ff8a4>
  807a78:	4a402034 	orhi	r9,r9,128
  807a7c:	00800e04 	movi	r2,56
  807a80:	1100a40e 	bge	r2,r4,807d14 <__adddf3+0x4ec>
  807a84:	498cb03a 	or	r6,r9,r6
  807a88:	300ac03a 	cmpne	r5,r6,zero
  807a8c:	0013883a 	mov	r9,zero
  807a90:	2c4b883a 	add	r5,r5,r17
  807a94:	2c63803a 	cmpltu	r17,r5,r17
  807a98:	4a11883a 	add	r8,r9,r8
  807a9c:	8a11883a 	add	r8,r17,r8
  807aa0:	2823883a 	mov	r17,r5
  807aa4:	4080202c 	andhi	r2,r8,128
  807aa8:	103fe026 	beq	r2,zero,807a2c <__alt_mem_onchip_mem+0xff7ffa2c>
  807aac:	84000044 	addi	r16,r16,1
  807ab0:	0081ffc4 	movi	r2,2047
  807ab4:	8080d226 	beq	r16,r2,807e00 <__adddf3+0x5d8>
  807ab8:	00bfe034 	movhi	r2,65408
  807abc:	10bfffc4 	addi	r2,r2,-1
  807ac0:	4090703a 	and	r8,r8,r2
  807ac4:	880ad07a 	srli	r5,r17,1
  807ac8:	400897fa 	slli	r4,r8,31
  807acc:	88c0004c 	andi	r3,r17,1
  807ad0:	28e2b03a 	or	r17,r5,r3
  807ad4:	4010d07a 	srli	r8,r8,1
  807ad8:	2462b03a 	or	r17,r4,r17
  807adc:	003f7106 	br	8078a4 <__alt_mem_onchip_mem+0xff7ff8a4>
  807ae0:	4088b03a 	or	r4,r8,r2
  807ae4:	20014526 	beq	r4,zero,807ffc <__adddf3+0x7d4>
  807ae8:	01000434 	movhi	r4,16
  807aec:	42000234 	orhi	r8,r8,8
  807af0:	213fffc4 	addi	r4,r4,-1
  807af4:	4110703a 	and	r8,r8,r4
  807af8:	003f8206 	br	807904 <__alt_mem_onchip_mem+0xff7ff904>
  807afc:	18ffffc4 	addi	r3,r3,-1
  807b00:	1800491e 	bne	r3,zero,807c28 <__adddf3+0x400>
  807b04:	898bc83a 	sub	r5,r17,r6
  807b08:	8963803a 	cmpltu	r17,r17,r5
  807b0c:	4251c83a 	sub	r8,r8,r9
  807b10:	4451c83a 	sub	r8,r8,r17
  807b14:	2823883a 	mov	r17,r5
  807b18:	003f9f06 	br	807998 <__alt_mem_onchip_mem+0xff7ff998>
  807b1c:	4984b03a 	or	r2,r9,r6
  807b20:	103f6026 	beq	r2,zero,8078a4 <__alt_mem_onchip_mem+0xff7ff8a4>
  807b24:	213fffc4 	addi	r4,r4,-1
  807b28:	2000931e 	bne	r4,zero,807d78 <__adddf3+0x550>
  807b2c:	898d883a 	add	r6,r17,r6
  807b30:	3463803a 	cmpltu	r17,r6,r17
  807b34:	4251883a 	add	r8,r8,r9
  807b38:	8a11883a 	add	r8,r17,r8
  807b3c:	3023883a 	mov	r17,r6
  807b40:	003fd806 	br	807aa4 <__alt_mem_onchip_mem+0xff7ffaa4>
  807b44:	1800541e 	bne	r3,zero,807c98 <__adddf3+0x470>
  807b48:	80800044 	addi	r2,r16,1
  807b4c:	1081ffcc 	andi	r2,r2,2047
  807b50:	00c00044 	movi	r3,1
  807b54:	1880a00e 	bge	r3,r2,807dd8 <__adddf3+0x5b0>
  807b58:	8989c83a 	sub	r4,r17,r6
  807b5c:	8905803a 	cmpltu	r2,r17,r4
  807b60:	4267c83a 	sub	r19,r8,r9
  807b64:	98a7c83a 	sub	r19,r19,r2
  807b68:	9880202c 	andhi	r2,r19,128
  807b6c:	10006326 	beq	r2,zero,807cfc <__adddf3+0x4d4>
  807b70:	3463c83a 	sub	r17,r6,r17
  807b74:	4a07c83a 	sub	r3,r9,r8
  807b78:	344d803a 	cmpltu	r6,r6,r17
  807b7c:	19a7c83a 	sub	r19,r3,r6
  807b80:	3825883a 	mov	r18,r7
  807b84:	983f8a1e 	bne	r19,zero,8079b0 <__alt_mem_onchip_mem+0xff7ff9b0>
  807b88:	8809883a 	mov	r4,r17
  807b8c:	0808c7c0 	call	808c7c <__clzsi2>
  807b90:	10800804 	addi	r2,r2,32
  807b94:	10fffe04 	addi	r3,r2,-8
  807b98:	010007c4 	movi	r4,31
  807b9c:	20ff890e 	bge	r4,r3,8079c4 <__alt_mem_onchip_mem+0xff7ff9c4>
  807ba0:	10bff604 	addi	r2,r2,-40
  807ba4:	8884983a 	sll	r2,r17,r2
  807ba8:	0023883a 	mov	r17,zero
  807bac:	1c3f8c0e 	bge	r3,r16,8079e0 <__alt_mem_onchip_mem+0xff7ff9e0>
  807bb0:	023fe034 	movhi	r8,65408
  807bb4:	423fffc4 	addi	r8,r8,-1
  807bb8:	80e1c83a 	sub	r16,r16,r3
  807bbc:	1210703a 	and	r8,r2,r8
  807bc0:	003f3806 	br	8078a4 <__alt_mem_onchip_mem+0xff7ff8a4>
  807bc4:	9007883a 	mov	r3,r18
  807bc8:	0011883a 	mov	r8,zero
  807bcc:	0005883a 	mov	r2,zero
  807bd0:	003f4c06 	br	807904 <__alt_mem_onchip_mem+0xff7ff904>
  807bd4:	498cb03a 	or	r6,r9,r6
  807bd8:	300cc03a 	cmpne	r6,r6,zero
  807bdc:	0007883a 	mov	r3,zero
  807be0:	003f6806 	br	807984 <__alt_mem_onchip_mem+0xff7ff984>
  807be4:	20009c1e 	bne	r4,zero,807e58 <__adddf3+0x630>
  807be8:	80800044 	addi	r2,r16,1
  807bec:	1141ffcc 	andi	r5,r2,2047
  807bf0:	01000044 	movi	r4,1
  807bf4:	2140670e 	bge	r4,r5,807d94 <__adddf3+0x56c>
  807bf8:	0101ffc4 	movi	r4,2047
  807bfc:	11007f26 	beq	r2,r4,807dfc <__adddf3+0x5d4>
  807c00:	898d883a 	add	r6,r17,r6
  807c04:	4247883a 	add	r3,r8,r9
  807c08:	3451803a 	cmpltu	r8,r6,r17
  807c0c:	40d1883a 	add	r8,r8,r3
  807c10:	402297fa 	slli	r17,r8,31
  807c14:	300cd07a 	srli	r6,r6,1
  807c18:	4010d07a 	srli	r8,r8,1
  807c1c:	1021883a 	mov	r16,r2
  807c20:	89a2b03a 	or	r17,r17,r6
  807c24:	003f1f06 	br	8078a4 <__alt_mem_onchip_mem+0xff7ff8a4>
  807c28:	0081ffc4 	movi	r2,2047
  807c2c:	80bf481e 	bne	r16,r2,807950 <__alt_mem_onchip_mem+0xff7ff950>
  807c30:	003f1c06 	br	8078a4 <__alt_mem_onchip_mem+0xff7ff8a4>
  807c34:	843ff844 	addi	r16,r16,-31
  807c38:	01000804 	movi	r4,32
  807c3c:	1406d83a 	srl	r3,r2,r16
  807c40:	41005026 	beq	r8,r4,807d84 <__adddf3+0x55c>
  807c44:	01001004 	movi	r4,64
  807c48:	2211c83a 	sub	r8,r4,r8
  807c4c:	1204983a 	sll	r2,r2,r8
  807c50:	88a2b03a 	or	r17,r17,r2
  807c54:	8822c03a 	cmpne	r17,r17,zero
  807c58:	1c62b03a 	or	r17,r3,r17
  807c5c:	0011883a 	mov	r8,zero
  807c60:	0021883a 	mov	r16,zero
  807c64:	003f7106 	br	807a2c <__alt_mem_onchip_mem+0xff7ffa2c>
  807c68:	193ff804 	addi	r4,r3,-32
  807c6c:	00800804 	movi	r2,32
  807c70:	4908d83a 	srl	r4,r9,r4
  807c74:	18804526 	beq	r3,r2,807d8c <__adddf3+0x564>
  807c78:	00801004 	movi	r2,64
  807c7c:	10c5c83a 	sub	r2,r2,r3
  807c80:	4886983a 	sll	r3,r9,r2
  807c84:	198cb03a 	or	r6,r3,r6
  807c88:	300cc03a 	cmpne	r6,r6,zero
  807c8c:	218cb03a 	or	r6,r4,r6
  807c90:	0007883a 	mov	r3,zero
  807c94:	003f3b06 	br	807984 <__alt_mem_onchip_mem+0xff7ff984>
  807c98:	80002a26 	beq	r16,zero,807d44 <__adddf3+0x51c>
  807c9c:	0101ffc4 	movi	r4,2047
  807ca0:	11006826 	beq	r2,r4,807e44 <__adddf3+0x61c>
  807ca4:	00c7c83a 	sub	r3,zero,r3
  807ca8:	42002034 	orhi	r8,r8,128
  807cac:	01000e04 	movi	r4,56
  807cb0:	20c07c16 	blt	r4,r3,807ea4 <__adddf3+0x67c>
  807cb4:	010007c4 	movi	r4,31
  807cb8:	20c0da16 	blt	r4,r3,808024 <__adddf3+0x7fc>
  807cbc:	01000804 	movi	r4,32
  807cc0:	20c9c83a 	sub	r4,r4,r3
  807cc4:	4114983a 	sll	r10,r8,r4
  807cc8:	88cad83a 	srl	r5,r17,r3
  807ccc:	8908983a 	sll	r4,r17,r4
  807cd0:	40c6d83a 	srl	r3,r8,r3
  807cd4:	5162b03a 	or	r17,r10,r5
  807cd8:	2008c03a 	cmpne	r4,r4,zero
  807cdc:	8922b03a 	or	r17,r17,r4
  807ce0:	3463c83a 	sub	r17,r6,r17
  807ce4:	48c7c83a 	sub	r3,r9,r3
  807ce8:	344d803a 	cmpltu	r6,r6,r17
  807cec:	1991c83a 	sub	r8,r3,r6
  807cf0:	1021883a 	mov	r16,r2
  807cf4:	3825883a 	mov	r18,r7
  807cf8:	003f2706 	br	807998 <__alt_mem_onchip_mem+0xff7ff998>
  807cfc:	24d0b03a 	or	r8,r4,r19
  807d00:	40001b1e 	bne	r8,zero,807d70 <__adddf3+0x548>
  807d04:	0005883a 	mov	r2,zero
  807d08:	0007883a 	mov	r3,zero
  807d0c:	0021883a 	mov	r16,zero
  807d10:	003f4d06 	br	807a48 <__alt_mem_onchip_mem+0xff7ffa48>
  807d14:	008007c4 	movi	r2,31
  807d18:	11003c16 	blt	r2,r4,807e0c <__adddf3+0x5e4>
  807d1c:	00800804 	movi	r2,32
  807d20:	1105c83a 	sub	r2,r2,r4
  807d24:	488e983a 	sll	r7,r9,r2
  807d28:	310ad83a 	srl	r5,r6,r4
  807d2c:	3084983a 	sll	r2,r6,r2
  807d30:	4912d83a 	srl	r9,r9,r4
  807d34:	394ab03a 	or	r5,r7,r5
  807d38:	1004c03a 	cmpne	r2,r2,zero
  807d3c:	288ab03a 	or	r5,r5,r2
  807d40:	003f5306 	br	807a90 <__alt_mem_onchip_mem+0xff7ffa90>
  807d44:	4448b03a 	or	r4,r8,r17
  807d48:	20003e26 	beq	r4,zero,807e44 <__adddf3+0x61c>
  807d4c:	00c6303a 	nor	r3,zero,r3
  807d50:	18003a1e 	bne	r3,zero,807e3c <__adddf3+0x614>
  807d54:	3463c83a 	sub	r17,r6,r17
  807d58:	4a07c83a 	sub	r3,r9,r8
  807d5c:	344d803a 	cmpltu	r6,r6,r17
  807d60:	1991c83a 	sub	r8,r3,r6
  807d64:	1021883a 	mov	r16,r2
  807d68:	3825883a 	mov	r18,r7
  807d6c:	003f0a06 	br	807998 <__alt_mem_onchip_mem+0xff7ff998>
  807d70:	2023883a 	mov	r17,r4
  807d74:	003f0d06 	br	8079ac <__alt_mem_onchip_mem+0xff7ff9ac>
  807d78:	0081ffc4 	movi	r2,2047
  807d7c:	80bf3f1e 	bne	r16,r2,807a7c <__alt_mem_onchip_mem+0xff7ffa7c>
  807d80:	003ec806 	br	8078a4 <__alt_mem_onchip_mem+0xff7ff8a4>
  807d84:	0005883a 	mov	r2,zero
  807d88:	003fb106 	br	807c50 <__alt_mem_onchip_mem+0xff7ffc50>
  807d8c:	0007883a 	mov	r3,zero
  807d90:	003fbc06 	br	807c84 <__alt_mem_onchip_mem+0xff7ffc84>
  807d94:	4444b03a 	or	r2,r8,r17
  807d98:	8000871e 	bne	r16,zero,807fb8 <__adddf3+0x790>
  807d9c:	1000ba26 	beq	r2,zero,808088 <__adddf3+0x860>
  807da0:	4984b03a 	or	r2,r9,r6
  807da4:	103ebf26 	beq	r2,zero,8078a4 <__alt_mem_onchip_mem+0xff7ff8a4>
  807da8:	8985883a 	add	r2,r17,r6
  807dac:	4247883a 	add	r3,r8,r9
  807db0:	1451803a 	cmpltu	r8,r2,r17
  807db4:	40d1883a 	add	r8,r8,r3
  807db8:	40c0202c 	andhi	r3,r8,128
  807dbc:	1023883a 	mov	r17,r2
  807dc0:	183f1a26 	beq	r3,zero,807a2c <__alt_mem_onchip_mem+0xff7ffa2c>
  807dc4:	00bfe034 	movhi	r2,65408
  807dc8:	10bfffc4 	addi	r2,r2,-1
  807dcc:	2021883a 	mov	r16,r4
  807dd0:	4090703a 	and	r8,r8,r2
  807dd4:	003eb306 	br	8078a4 <__alt_mem_onchip_mem+0xff7ff8a4>
  807dd8:	4444b03a 	or	r2,r8,r17
  807ddc:	8000291e 	bne	r16,zero,807e84 <__adddf3+0x65c>
  807de0:	10004b1e 	bne	r2,zero,807f10 <__adddf3+0x6e8>
  807de4:	4990b03a 	or	r8,r9,r6
  807de8:	40008b26 	beq	r8,zero,808018 <__adddf3+0x7f0>
  807dec:	4811883a 	mov	r8,r9
  807df0:	3023883a 	mov	r17,r6
  807df4:	3825883a 	mov	r18,r7
  807df8:	003eaa06 	br	8078a4 <__alt_mem_onchip_mem+0xff7ff8a4>
  807dfc:	1021883a 	mov	r16,r2
  807e00:	0011883a 	mov	r8,zero
  807e04:	0005883a 	mov	r2,zero
  807e08:	003f0f06 	br	807a48 <__alt_mem_onchip_mem+0xff7ffa48>
  807e0c:	217ff804 	addi	r5,r4,-32
  807e10:	00800804 	movi	r2,32
  807e14:	494ad83a 	srl	r5,r9,r5
  807e18:	20807d26 	beq	r4,r2,808010 <__adddf3+0x7e8>
  807e1c:	00801004 	movi	r2,64
  807e20:	1109c83a 	sub	r4,r2,r4
  807e24:	4912983a 	sll	r9,r9,r4
  807e28:	498cb03a 	or	r6,r9,r6
  807e2c:	300cc03a 	cmpne	r6,r6,zero
  807e30:	298ab03a 	or	r5,r5,r6
  807e34:	0013883a 	mov	r9,zero
  807e38:	003f1506 	br	807a90 <__alt_mem_onchip_mem+0xff7ffa90>
  807e3c:	0101ffc4 	movi	r4,2047
  807e40:	113f9a1e 	bne	r2,r4,807cac <__alt_mem_onchip_mem+0xff7ffcac>
  807e44:	4811883a 	mov	r8,r9
  807e48:	3023883a 	mov	r17,r6
  807e4c:	1021883a 	mov	r16,r2
  807e50:	3825883a 	mov	r18,r7
  807e54:	003e9306 	br	8078a4 <__alt_mem_onchip_mem+0xff7ff8a4>
  807e58:	8000161e 	bne	r16,zero,807eb4 <__adddf3+0x68c>
  807e5c:	444ab03a 	or	r5,r8,r17
  807e60:	28005126 	beq	r5,zero,807fa8 <__adddf3+0x780>
  807e64:	0108303a 	nor	r4,zero,r4
  807e68:	20004d1e 	bne	r4,zero,807fa0 <__adddf3+0x778>
  807e6c:	89a3883a 	add	r17,r17,r6
  807e70:	4253883a 	add	r9,r8,r9
  807e74:	898d803a 	cmpltu	r6,r17,r6
  807e78:	3251883a 	add	r8,r6,r9
  807e7c:	1021883a 	mov	r16,r2
  807e80:	003f0806 	br	807aa4 <__alt_mem_onchip_mem+0xff7ffaa4>
  807e84:	1000301e 	bne	r2,zero,807f48 <__adddf3+0x720>
  807e88:	4984b03a 	or	r2,r9,r6
  807e8c:	10007126 	beq	r2,zero,808054 <__adddf3+0x82c>
  807e90:	4811883a 	mov	r8,r9
  807e94:	3023883a 	mov	r17,r6
  807e98:	3825883a 	mov	r18,r7
  807e9c:	0401ffc4 	movi	r16,2047
  807ea0:	003e8006 	br	8078a4 <__alt_mem_onchip_mem+0xff7ff8a4>
  807ea4:	4462b03a 	or	r17,r8,r17
  807ea8:	8822c03a 	cmpne	r17,r17,zero
  807eac:	0007883a 	mov	r3,zero
  807eb0:	003f8b06 	br	807ce0 <__alt_mem_onchip_mem+0xff7ffce0>
  807eb4:	0141ffc4 	movi	r5,2047
  807eb8:	11403b26 	beq	r2,r5,807fa8 <__adddf3+0x780>
  807ebc:	0109c83a 	sub	r4,zero,r4
  807ec0:	42002034 	orhi	r8,r8,128
  807ec4:	01400e04 	movi	r5,56
  807ec8:	29006716 	blt	r5,r4,808068 <__adddf3+0x840>
  807ecc:	014007c4 	movi	r5,31
  807ed0:	29007016 	blt	r5,r4,808094 <__adddf3+0x86c>
  807ed4:	01400804 	movi	r5,32
  807ed8:	290bc83a 	sub	r5,r5,r4
  807edc:	4154983a 	sll	r10,r8,r5
  807ee0:	890ed83a 	srl	r7,r17,r4
  807ee4:	894a983a 	sll	r5,r17,r5
  807ee8:	4108d83a 	srl	r4,r8,r4
  807eec:	51e2b03a 	or	r17,r10,r7
  807ef0:	280ac03a 	cmpne	r5,r5,zero
  807ef4:	8962b03a 	or	r17,r17,r5
  807ef8:	89a3883a 	add	r17,r17,r6
  807efc:	2253883a 	add	r9,r4,r9
  807f00:	898d803a 	cmpltu	r6,r17,r6
  807f04:	3251883a 	add	r8,r6,r9
  807f08:	1021883a 	mov	r16,r2
  807f0c:	003ee506 	br	807aa4 <__alt_mem_onchip_mem+0xff7ffaa4>
  807f10:	4984b03a 	or	r2,r9,r6
  807f14:	103e6326 	beq	r2,zero,8078a4 <__alt_mem_onchip_mem+0xff7ff8a4>
  807f18:	8987c83a 	sub	r3,r17,r6
  807f1c:	88c9803a 	cmpltu	r4,r17,r3
  807f20:	4245c83a 	sub	r2,r8,r9
  807f24:	1105c83a 	sub	r2,r2,r4
  807f28:	1100202c 	andhi	r4,r2,128
  807f2c:	203ebb26 	beq	r4,zero,807a1c <__alt_mem_onchip_mem+0xff7ffa1c>
  807f30:	3463c83a 	sub	r17,r6,r17
  807f34:	4a07c83a 	sub	r3,r9,r8
  807f38:	344d803a 	cmpltu	r6,r6,r17
  807f3c:	1991c83a 	sub	r8,r3,r6
  807f40:	3825883a 	mov	r18,r7
  807f44:	003e5706 	br	8078a4 <__alt_mem_onchip_mem+0xff7ff8a4>
  807f48:	4984b03a 	or	r2,r9,r6
  807f4c:	10002e26 	beq	r2,zero,808008 <__adddf3+0x7e0>
  807f50:	4004d0fa 	srli	r2,r8,3
  807f54:	8822d0fa 	srli	r17,r17,3
  807f58:	4010977a 	slli	r8,r8,29
  807f5c:	10c0022c 	andhi	r3,r2,8
  807f60:	4462b03a 	or	r17,r8,r17
  807f64:	18000826 	beq	r3,zero,807f88 <__adddf3+0x760>
  807f68:	4808d0fa 	srli	r4,r9,3
  807f6c:	20c0022c 	andhi	r3,r4,8
  807f70:	1800051e 	bne	r3,zero,807f88 <__adddf3+0x760>
  807f74:	300cd0fa 	srli	r6,r6,3
  807f78:	4806977a 	slli	r3,r9,29
  807f7c:	2005883a 	mov	r2,r4
  807f80:	3825883a 	mov	r18,r7
  807f84:	19a2b03a 	or	r17,r3,r6
  807f88:	8810d77a 	srli	r8,r17,29
  807f8c:	100490fa 	slli	r2,r2,3
  807f90:	882290fa 	slli	r17,r17,3
  807f94:	0401ffc4 	movi	r16,2047
  807f98:	4090b03a 	or	r8,r8,r2
  807f9c:	003e4106 	br	8078a4 <__alt_mem_onchip_mem+0xff7ff8a4>
  807fa0:	0141ffc4 	movi	r5,2047
  807fa4:	117fc71e 	bne	r2,r5,807ec4 <__alt_mem_onchip_mem+0xff7ffec4>
  807fa8:	4811883a 	mov	r8,r9
  807fac:	3023883a 	mov	r17,r6
  807fb0:	1021883a 	mov	r16,r2
  807fb4:	003e3b06 	br	8078a4 <__alt_mem_onchip_mem+0xff7ff8a4>
  807fb8:	10002f26 	beq	r2,zero,808078 <__adddf3+0x850>
  807fbc:	4984b03a 	or	r2,r9,r6
  807fc0:	10001126 	beq	r2,zero,808008 <__adddf3+0x7e0>
  807fc4:	4004d0fa 	srli	r2,r8,3
  807fc8:	8822d0fa 	srli	r17,r17,3
  807fcc:	4010977a 	slli	r8,r8,29
  807fd0:	10c0022c 	andhi	r3,r2,8
  807fd4:	4462b03a 	or	r17,r8,r17
  807fd8:	183feb26 	beq	r3,zero,807f88 <__alt_mem_onchip_mem+0xff7fff88>
  807fdc:	4808d0fa 	srli	r4,r9,3
  807fe0:	20c0022c 	andhi	r3,r4,8
  807fe4:	183fe81e 	bne	r3,zero,807f88 <__alt_mem_onchip_mem+0xff7fff88>
  807fe8:	300cd0fa 	srli	r6,r6,3
  807fec:	4806977a 	slli	r3,r9,29
  807ff0:	2005883a 	mov	r2,r4
  807ff4:	19a2b03a 	or	r17,r3,r6
  807ff8:	003fe306 	br	807f88 <__alt_mem_onchip_mem+0xff7fff88>
  807ffc:	0011883a 	mov	r8,zero
  808000:	0005883a 	mov	r2,zero
  808004:	003e3f06 	br	807904 <__alt_mem_onchip_mem+0xff7ff904>
  808008:	0401ffc4 	movi	r16,2047
  80800c:	003e2506 	br	8078a4 <__alt_mem_onchip_mem+0xff7ff8a4>
  808010:	0013883a 	mov	r9,zero
  808014:	003f8406 	br	807e28 <__alt_mem_onchip_mem+0xff7ffe28>
  808018:	0005883a 	mov	r2,zero
  80801c:	0007883a 	mov	r3,zero
  808020:	003e8906 	br	807a48 <__alt_mem_onchip_mem+0xff7ffa48>
  808024:	197ff804 	addi	r5,r3,-32
  808028:	01000804 	movi	r4,32
  80802c:	414ad83a 	srl	r5,r8,r5
  808030:	19002426 	beq	r3,r4,8080c4 <__adddf3+0x89c>
  808034:	01001004 	movi	r4,64
  808038:	20c7c83a 	sub	r3,r4,r3
  80803c:	40c6983a 	sll	r3,r8,r3
  808040:	1c46b03a 	or	r3,r3,r17
  808044:	1806c03a 	cmpne	r3,r3,zero
  808048:	28e2b03a 	or	r17,r5,r3
  80804c:	0007883a 	mov	r3,zero
  808050:	003f2306 	br	807ce0 <__alt_mem_onchip_mem+0xff7ffce0>
  808054:	0007883a 	mov	r3,zero
  808058:	5811883a 	mov	r8,r11
  80805c:	00bfffc4 	movi	r2,-1
  808060:	0401ffc4 	movi	r16,2047
  808064:	003e7806 	br	807a48 <__alt_mem_onchip_mem+0xff7ffa48>
  808068:	4462b03a 	or	r17,r8,r17
  80806c:	8822c03a 	cmpne	r17,r17,zero
  808070:	0009883a 	mov	r4,zero
  808074:	003fa006 	br	807ef8 <__alt_mem_onchip_mem+0xff7ffef8>
  808078:	4811883a 	mov	r8,r9
  80807c:	3023883a 	mov	r17,r6
  808080:	0401ffc4 	movi	r16,2047
  808084:	003e0706 	br	8078a4 <__alt_mem_onchip_mem+0xff7ff8a4>
  808088:	4811883a 	mov	r8,r9
  80808c:	3023883a 	mov	r17,r6
  808090:	003e0406 	br	8078a4 <__alt_mem_onchip_mem+0xff7ff8a4>
  808094:	21fff804 	addi	r7,r4,-32
  808098:	01400804 	movi	r5,32
  80809c:	41ced83a 	srl	r7,r8,r7
  8080a0:	21400a26 	beq	r4,r5,8080cc <__adddf3+0x8a4>
  8080a4:	01401004 	movi	r5,64
  8080a8:	2909c83a 	sub	r4,r5,r4
  8080ac:	4108983a 	sll	r4,r8,r4
  8080b0:	2448b03a 	or	r4,r4,r17
  8080b4:	2008c03a 	cmpne	r4,r4,zero
  8080b8:	3922b03a 	or	r17,r7,r4
  8080bc:	0009883a 	mov	r4,zero
  8080c0:	003f8d06 	br	807ef8 <__alt_mem_onchip_mem+0xff7ffef8>
  8080c4:	0007883a 	mov	r3,zero
  8080c8:	003fdd06 	br	808040 <__alt_mem_onchip_mem+0xff800040>
  8080cc:	0009883a 	mov	r4,zero
  8080d0:	003ff706 	br	8080b0 <__alt_mem_onchip_mem+0xff8000b0>

008080d4 <__gedf2>:
  8080d4:	2804d53a 	srli	r2,r5,20
  8080d8:	3806d53a 	srli	r3,r7,20
  8080dc:	02000434 	movhi	r8,16
  8080e0:	423fffc4 	addi	r8,r8,-1
  8080e4:	1081ffcc 	andi	r2,r2,2047
  8080e8:	0241ffc4 	movi	r9,2047
  8080ec:	2a14703a 	and	r10,r5,r8
  8080f0:	18c1ffcc 	andi	r3,r3,2047
  8080f4:	3a10703a 	and	r8,r7,r8
  8080f8:	280ad7fa 	srli	r5,r5,31
  8080fc:	380ed7fa 	srli	r7,r7,31
  808100:	12401d26 	beq	r2,r9,808178 <__gedf2+0xa4>
  808104:	0241ffc4 	movi	r9,2047
  808108:	1a401226 	beq	r3,r9,808154 <__gedf2+0x80>
  80810c:	1000081e 	bne	r2,zero,808130 <__gedf2+0x5c>
  808110:	2296b03a 	or	r11,r4,r10
  808114:	5813003a 	cmpeq	r9,r11,zero
  808118:	1800091e 	bne	r3,zero,808140 <__gedf2+0x6c>
  80811c:	3218b03a 	or	r12,r6,r8
  808120:	6000071e 	bne	r12,zero,808140 <__gedf2+0x6c>
  808124:	0005883a 	mov	r2,zero
  808128:	5800101e 	bne	r11,zero,80816c <__gedf2+0x98>
  80812c:	f800283a 	ret
  808130:	18000c1e 	bne	r3,zero,808164 <__gedf2+0x90>
  808134:	3212b03a 	or	r9,r6,r8
  808138:	48000c26 	beq	r9,zero,80816c <__gedf2+0x98>
  80813c:	0013883a 	mov	r9,zero
  808140:	39c03fcc 	andi	r7,r7,255
  808144:	48000826 	beq	r9,zero,808168 <__gedf2+0x94>
  808148:	38000926 	beq	r7,zero,808170 <__gedf2+0x9c>
  80814c:	00800044 	movi	r2,1
  808150:	f800283a 	ret
  808154:	3212b03a 	or	r9,r6,r8
  808158:	483fec26 	beq	r9,zero,80810c <__alt_mem_onchip_mem+0xff80010c>
  80815c:	00bfff84 	movi	r2,-2
  808160:	f800283a 	ret
  808164:	39c03fcc 	andi	r7,r7,255
  808168:	29c00626 	beq	r5,r7,808184 <__gedf2+0xb0>
  80816c:	283ff726 	beq	r5,zero,80814c <__alt_mem_onchip_mem+0xff80014c>
  808170:	00bfffc4 	movi	r2,-1
  808174:	f800283a 	ret
  808178:	2292b03a 	or	r9,r4,r10
  80817c:	483fe126 	beq	r9,zero,808104 <__alt_mem_onchip_mem+0xff800104>
  808180:	003ff606 	br	80815c <__alt_mem_onchip_mem+0xff80015c>
  808184:	18bff916 	blt	r3,r2,80816c <__alt_mem_onchip_mem+0xff80016c>
  808188:	10c00316 	blt	r2,r3,808198 <__gedf2+0xc4>
  80818c:	42bff736 	bltu	r8,r10,80816c <__alt_mem_onchip_mem+0xff80016c>
  808190:	52000326 	beq	r10,r8,8081a0 <__gedf2+0xcc>
  808194:	5200042e 	bgeu	r10,r8,8081a8 <__gedf2+0xd4>
  808198:	283fec1e 	bne	r5,zero,80814c <__alt_mem_onchip_mem+0xff80014c>
  80819c:	003ff406 	br	808170 <__alt_mem_onchip_mem+0xff800170>
  8081a0:	313ff236 	bltu	r6,r4,80816c <__alt_mem_onchip_mem+0xff80016c>
  8081a4:	21bffc36 	bltu	r4,r6,808198 <__alt_mem_onchip_mem+0xff800198>
  8081a8:	0005883a 	mov	r2,zero
  8081ac:	f800283a 	ret

008081b0 <__ledf2>:
  8081b0:	2804d53a 	srli	r2,r5,20
  8081b4:	3810d53a 	srli	r8,r7,20
  8081b8:	00c00434 	movhi	r3,16
  8081bc:	18ffffc4 	addi	r3,r3,-1
  8081c0:	1081ffcc 	andi	r2,r2,2047
  8081c4:	0241ffc4 	movi	r9,2047
  8081c8:	28d4703a 	and	r10,r5,r3
  8081cc:	4201ffcc 	andi	r8,r8,2047
  8081d0:	38c6703a 	and	r3,r7,r3
  8081d4:	280ad7fa 	srli	r5,r5,31
  8081d8:	380ed7fa 	srli	r7,r7,31
  8081dc:	12401f26 	beq	r2,r9,80825c <__ledf2+0xac>
  8081e0:	0241ffc4 	movi	r9,2047
  8081e4:	42401426 	beq	r8,r9,808238 <__ledf2+0x88>
  8081e8:	1000091e 	bne	r2,zero,808210 <__ledf2+0x60>
  8081ec:	2296b03a 	or	r11,r4,r10
  8081f0:	5813003a 	cmpeq	r9,r11,zero
  8081f4:	29403fcc 	andi	r5,r5,255
  8081f8:	40000a1e 	bne	r8,zero,808224 <__ledf2+0x74>
  8081fc:	30d8b03a 	or	r12,r6,r3
  808200:	6000081e 	bne	r12,zero,808224 <__ledf2+0x74>
  808204:	0005883a 	mov	r2,zero
  808208:	5800111e 	bne	r11,zero,808250 <__ledf2+0xa0>
  80820c:	f800283a 	ret
  808210:	29403fcc 	andi	r5,r5,255
  808214:	40000c1e 	bne	r8,zero,808248 <__ledf2+0x98>
  808218:	30d2b03a 	or	r9,r6,r3
  80821c:	48000c26 	beq	r9,zero,808250 <__ledf2+0xa0>
  808220:	0013883a 	mov	r9,zero
  808224:	39c03fcc 	andi	r7,r7,255
  808228:	48000826 	beq	r9,zero,80824c <__ledf2+0x9c>
  80822c:	38001126 	beq	r7,zero,808274 <__ledf2+0xc4>
  808230:	00800044 	movi	r2,1
  808234:	f800283a 	ret
  808238:	30d2b03a 	or	r9,r6,r3
  80823c:	483fea26 	beq	r9,zero,8081e8 <__alt_mem_onchip_mem+0xff8001e8>
  808240:	00800084 	movi	r2,2
  808244:	f800283a 	ret
  808248:	39c03fcc 	andi	r7,r7,255
  80824c:	39400726 	beq	r7,r5,80826c <__ledf2+0xbc>
  808250:	2800081e 	bne	r5,zero,808274 <__ledf2+0xc4>
  808254:	00800044 	movi	r2,1
  808258:	f800283a 	ret
  80825c:	2292b03a 	or	r9,r4,r10
  808260:	483fdf26 	beq	r9,zero,8081e0 <__alt_mem_onchip_mem+0xff8001e0>
  808264:	00800084 	movi	r2,2
  808268:	f800283a 	ret
  80826c:	4080030e 	bge	r8,r2,80827c <__ledf2+0xcc>
  808270:	383fef26 	beq	r7,zero,808230 <__alt_mem_onchip_mem+0xff800230>
  808274:	00bfffc4 	movi	r2,-1
  808278:	f800283a 	ret
  80827c:	123feb16 	blt	r2,r8,80822c <__alt_mem_onchip_mem+0xff80022c>
  808280:	1abff336 	bltu	r3,r10,808250 <__alt_mem_onchip_mem+0xff800250>
  808284:	50c00326 	beq	r10,r3,808294 <__ledf2+0xe4>
  808288:	50c0042e 	bgeu	r10,r3,80829c <__ledf2+0xec>
  80828c:	283fe81e 	bne	r5,zero,808230 <__alt_mem_onchip_mem+0xff800230>
  808290:	003ff806 	br	808274 <__alt_mem_onchip_mem+0xff800274>
  808294:	313fee36 	bltu	r6,r4,808250 <__alt_mem_onchip_mem+0xff800250>
  808298:	21bffc36 	bltu	r4,r6,80828c <__alt_mem_onchip_mem+0xff80028c>
  80829c:	0005883a 	mov	r2,zero
  8082a0:	f800283a 	ret

008082a4 <__subdf3>:
  8082a4:	02000434 	movhi	r8,16
  8082a8:	423fffc4 	addi	r8,r8,-1
  8082ac:	defffb04 	addi	sp,sp,-20
  8082b0:	2a14703a 	and	r10,r5,r8
  8082b4:	3812d53a 	srli	r9,r7,20
  8082b8:	3a10703a 	and	r8,r7,r8
  8082bc:	2006d77a 	srli	r3,r4,29
  8082c0:	3004d77a 	srli	r2,r6,29
  8082c4:	dc000015 	stw	r16,0(sp)
  8082c8:	501490fa 	slli	r10,r10,3
  8082cc:	2820d53a 	srli	r16,r5,20
  8082d0:	401090fa 	slli	r8,r8,3
  8082d4:	dc800215 	stw	r18,8(sp)
  8082d8:	dc400115 	stw	r17,4(sp)
  8082dc:	dfc00415 	stw	ra,16(sp)
  8082e0:	202290fa 	slli	r17,r4,3
  8082e4:	dcc00315 	stw	r19,12(sp)
  8082e8:	4a41ffcc 	andi	r9,r9,2047
  8082ec:	0101ffc4 	movi	r4,2047
  8082f0:	2824d7fa 	srli	r18,r5,31
  8082f4:	8401ffcc 	andi	r16,r16,2047
  8082f8:	50c6b03a 	or	r3,r10,r3
  8082fc:	380ed7fa 	srli	r7,r7,31
  808300:	408ab03a 	or	r5,r8,r2
  808304:	300c90fa 	slli	r6,r6,3
  808308:	49009626 	beq	r9,r4,808564 <__subdf3+0x2c0>
  80830c:	39c0005c 	xori	r7,r7,1
  808310:	8245c83a 	sub	r2,r16,r9
  808314:	3c807426 	beq	r7,r18,8084e8 <__subdf3+0x244>
  808318:	0080af0e 	bge	zero,r2,8085d8 <__subdf3+0x334>
  80831c:	48002a1e 	bne	r9,zero,8083c8 <__subdf3+0x124>
  808320:	2988b03a 	or	r4,r5,r6
  808324:	20009a1e 	bne	r4,zero,808590 <__subdf3+0x2ec>
  808328:	888001cc 	andi	r2,r17,7
  80832c:	10000726 	beq	r2,zero,80834c <__subdf3+0xa8>
  808330:	888003cc 	andi	r2,r17,15
  808334:	01000104 	movi	r4,4
  808338:	11000426 	beq	r2,r4,80834c <__subdf3+0xa8>
  80833c:	890b883a 	add	r5,r17,r4
  808340:	2c63803a 	cmpltu	r17,r5,r17
  808344:	1c47883a 	add	r3,r3,r17
  808348:	2823883a 	mov	r17,r5
  80834c:	1880202c 	andhi	r2,r3,128
  808350:	10005926 	beq	r2,zero,8084b8 <__subdf3+0x214>
  808354:	84000044 	addi	r16,r16,1
  808358:	0081ffc4 	movi	r2,2047
  80835c:	8080be26 	beq	r16,r2,808658 <__subdf3+0x3b4>
  808360:	017fe034 	movhi	r5,65408
  808364:	297fffc4 	addi	r5,r5,-1
  808368:	1946703a 	and	r3,r3,r5
  80836c:	1804977a 	slli	r2,r3,29
  808370:	1806927a 	slli	r3,r3,9
  808374:	8822d0fa 	srli	r17,r17,3
  808378:	8401ffcc 	andi	r16,r16,2047
  80837c:	180ad33a 	srli	r5,r3,12
  808380:	9100004c 	andi	r4,r18,1
  808384:	1444b03a 	or	r2,r2,r17
  808388:	80c1ffcc 	andi	r3,r16,2047
  80838c:	1820953a 	slli	r16,r3,20
  808390:	20c03fcc 	andi	r3,r4,255
  808394:	180897fa 	slli	r4,r3,31
  808398:	00c00434 	movhi	r3,16
  80839c:	18ffffc4 	addi	r3,r3,-1
  8083a0:	28c6703a 	and	r3,r5,r3
  8083a4:	1c06b03a 	or	r3,r3,r16
  8083a8:	1906b03a 	or	r3,r3,r4
  8083ac:	dfc00417 	ldw	ra,16(sp)
  8083b0:	dcc00317 	ldw	r19,12(sp)
  8083b4:	dc800217 	ldw	r18,8(sp)
  8083b8:	dc400117 	ldw	r17,4(sp)
  8083bc:	dc000017 	ldw	r16,0(sp)
  8083c0:	dec00504 	addi	sp,sp,20
  8083c4:	f800283a 	ret
  8083c8:	0101ffc4 	movi	r4,2047
  8083cc:	813fd626 	beq	r16,r4,808328 <__alt_mem_onchip_mem+0xff800328>
  8083d0:	29402034 	orhi	r5,r5,128
  8083d4:	01000e04 	movi	r4,56
  8083d8:	2080a316 	blt	r4,r2,808668 <__subdf3+0x3c4>
  8083dc:	010007c4 	movi	r4,31
  8083e0:	2080c616 	blt	r4,r2,8086fc <__subdf3+0x458>
  8083e4:	01000804 	movi	r4,32
  8083e8:	2089c83a 	sub	r4,r4,r2
  8083ec:	2910983a 	sll	r8,r5,r4
  8083f0:	308ed83a 	srl	r7,r6,r2
  8083f4:	3108983a 	sll	r4,r6,r4
  8083f8:	2884d83a 	srl	r2,r5,r2
  8083fc:	41ccb03a 	or	r6,r8,r7
  808400:	2008c03a 	cmpne	r4,r4,zero
  808404:	310cb03a 	or	r6,r6,r4
  808408:	898dc83a 	sub	r6,r17,r6
  80840c:	89a3803a 	cmpltu	r17,r17,r6
  808410:	1887c83a 	sub	r3,r3,r2
  808414:	1c47c83a 	sub	r3,r3,r17
  808418:	3023883a 	mov	r17,r6
  80841c:	1880202c 	andhi	r2,r3,128
  808420:	10002326 	beq	r2,zero,8084b0 <__subdf3+0x20c>
  808424:	04c02034 	movhi	r19,128
  808428:	9cffffc4 	addi	r19,r19,-1
  80842c:	1ce6703a 	and	r19,r3,r19
  808430:	98007a26 	beq	r19,zero,80861c <__subdf3+0x378>
  808434:	9809883a 	mov	r4,r19
  808438:	0808c7c0 	call	808c7c <__clzsi2>
  80843c:	113ffe04 	addi	r4,r2,-8
  808440:	00c007c4 	movi	r3,31
  808444:	19007b16 	blt	r3,r4,808634 <__subdf3+0x390>
  808448:	00800804 	movi	r2,32
  80844c:	1105c83a 	sub	r2,r2,r4
  808450:	8884d83a 	srl	r2,r17,r2
  808454:	9906983a 	sll	r3,r19,r4
  808458:	8922983a 	sll	r17,r17,r4
  80845c:	10c4b03a 	or	r2,r2,r3
  808460:	24007816 	blt	r4,r16,808644 <__subdf3+0x3a0>
  808464:	2421c83a 	sub	r16,r4,r16
  808468:	80c00044 	addi	r3,r16,1
  80846c:	010007c4 	movi	r4,31
  808470:	20c09516 	blt	r4,r3,8086c8 <__subdf3+0x424>
  808474:	01400804 	movi	r5,32
  808478:	28cbc83a 	sub	r5,r5,r3
  80847c:	88c8d83a 	srl	r4,r17,r3
  808480:	8962983a 	sll	r17,r17,r5
  808484:	114a983a 	sll	r5,r2,r5
  808488:	10c6d83a 	srl	r3,r2,r3
  80848c:	8804c03a 	cmpne	r2,r17,zero
  808490:	290ab03a 	or	r5,r5,r4
  808494:	28a2b03a 	or	r17,r5,r2
  808498:	0021883a 	mov	r16,zero
  80849c:	003fa206 	br	808328 <__alt_mem_onchip_mem+0xff800328>
  8084a0:	2090b03a 	or	r8,r4,r2
  8084a4:	40018e26 	beq	r8,zero,808ae0 <__subdf3+0x83c>
  8084a8:	1007883a 	mov	r3,r2
  8084ac:	2023883a 	mov	r17,r4
  8084b0:	888001cc 	andi	r2,r17,7
  8084b4:	103f9e1e 	bne	r2,zero,808330 <__alt_mem_onchip_mem+0xff800330>
  8084b8:	1804977a 	slli	r2,r3,29
  8084bc:	8822d0fa 	srli	r17,r17,3
  8084c0:	1810d0fa 	srli	r8,r3,3
  8084c4:	9100004c 	andi	r4,r18,1
  8084c8:	1444b03a 	or	r2,r2,r17
  8084cc:	00c1ffc4 	movi	r3,2047
  8084d0:	80c02826 	beq	r16,r3,808574 <__subdf3+0x2d0>
  8084d4:	01400434 	movhi	r5,16
  8084d8:	297fffc4 	addi	r5,r5,-1
  8084dc:	80e0703a 	and	r16,r16,r3
  8084e0:	414a703a 	and	r5,r8,r5
  8084e4:	003fa806 	br	808388 <__alt_mem_onchip_mem+0xff800388>
  8084e8:	0080630e 	bge	zero,r2,808678 <__subdf3+0x3d4>
  8084ec:	48003026 	beq	r9,zero,8085b0 <__subdf3+0x30c>
  8084f0:	0101ffc4 	movi	r4,2047
  8084f4:	813f8c26 	beq	r16,r4,808328 <__alt_mem_onchip_mem+0xff800328>
  8084f8:	29402034 	orhi	r5,r5,128
  8084fc:	01000e04 	movi	r4,56
  808500:	2080a90e 	bge	r4,r2,8087a8 <__subdf3+0x504>
  808504:	298cb03a 	or	r6,r5,r6
  808508:	3012c03a 	cmpne	r9,r6,zero
  80850c:	0005883a 	mov	r2,zero
  808510:	4c53883a 	add	r9,r9,r17
  808514:	4c63803a 	cmpltu	r17,r9,r17
  808518:	10c7883a 	add	r3,r2,r3
  80851c:	88c7883a 	add	r3,r17,r3
  808520:	4823883a 	mov	r17,r9
  808524:	1880202c 	andhi	r2,r3,128
  808528:	1000d026 	beq	r2,zero,80886c <__subdf3+0x5c8>
  80852c:	84000044 	addi	r16,r16,1
  808530:	0081ffc4 	movi	r2,2047
  808534:	8080fe26 	beq	r16,r2,808930 <__subdf3+0x68c>
  808538:	00bfe034 	movhi	r2,65408
  80853c:	10bfffc4 	addi	r2,r2,-1
  808540:	1886703a 	and	r3,r3,r2
  808544:	880ad07a 	srli	r5,r17,1
  808548:	180497fa 	slli	r2,r3,31
  80854c:	8900004c 	andi	r4,r17,1
  808550:	2922b03a 	or	r17,r5,r4
  808554:	1806d07a 	srli	r3,r3,1
  808558:	1462b03a 	or	r17,r2,r17
  80855c:	3825883a 	mov	r18,r7
  808560:	003f7106 	br	808328 <__alt_mem_onchip_mem+0xff800328>
  808564:	2984b03a 	or	r2,r5,r6
  808568:	103f6826 	beq	r2,zero,80830c <__alt_mem_onchip_mem+0xff80030c>
  80856c:	39c03fcc 	andi	r7,r7,255
  808570:	003f6706 	br	808310 <__alt_mem_onchip_mem+0xff800310>
  808574:	4086b03a 	or	r3,r8,r2
  808578:	18015226 	beq	r3,zero,808ac4 <__subdf3+0x820>
  80857c:	00c00434 	movhi	r3,16
  808580:	41400234 	orhi	r5,r8,8
  808584:	18ffffc4 	addi	r3,r3,-1
  808588:	28ca703a 	and	r5,r5,r3
  80858c:	003f7e06 	br	808388 <__alt_mem_onchip_mem+0xff800388>
  808590:	10bfffc4 	addi	r2,r2,-1
  808594:	1000491e 	bne	r2,zero,8086bc <__subdf3+0x418>
  808598:	898fc83a 	sub	r7,r17,r6
  80859c:	89e3803a 	cmpltu	r17,r17,r7
  8085a0:	1947c83a 	sub	r3,r3,r5
  8085a4:	1c47c83a 	sub	r3,r3,r17
  8085a8:	3823883a 	mov	r17,r7
  8085ac:	003f9b06 	br	80841c <__alt_mem_onchip_mem+0xff80041c>
  8085b0:	2988b03a 	or	r4,r5,r6
  8085b4:	203f5c26 	beq	r4,zero,808328 <__alt_mem_onchip_mem+0xff800328>
  8085b8:	10bfffc4 	addi	r2,r2,-1
  8085bc:	1000931e 	bne	r2,zero,80880c <__subdf3+0x568>
  8085c0:	898d883a 	add	r6,r17,r6
  8085c4:	3463803a 	cmpltu	r17,r6,r17
  8085c8:	1947883a 	add	r3,r3,r5
  8085cc:	88c7883a 	add	r3,r17,r3
  8085d0:	3023883a 	mov	r17,r6
  8085d4:	003fd306 	br	808524 <__alt_mem_onchip_mem+0xff800524>
  8085d8:	1000541e 	bne	r2,zero,80872c <__subdf3+0x488>
  8085dc:	80800044 	addi	r2,r16,1
  8085e0:	1081ffcc 	andi	r2,r2,2047
  8085e4:	01000044 	movi	r4,1
  8085e8:	2080a20e 	bge	r4,r2,808874 <__subdf3+0x5d0>
  8085ec:	8989c83a 	sub	r4,r17,r6
  8085f0:	8905803a 	cmpltu	r2,r17,r4
  8085f4:	1967c83a 	sub	r19,r3,r5
  8085f8:	98a7c83a 	sub	r19,r19,r2
  8085fc:	9880202c 	andhi	r2,r19,128
  808600:	10006326 	beq	r2,zero,808790 <__subdf3+0x4ec>
  808604:	3463c83a 	sub	r17,r6,r17
  808608:	28c7c83a 	sub	r3,r5,r3
  80860c:	344d803a 	cmpltu	r6,r6,r17
  808610:	19a7c83a 	sub	r19,r3,r6
  808614:	3825883a 	mov	r18,r7
  808618:	983f861e 	bne	r19,zero,808434 <__alt_mem_onchip_mem+0xff800434>
  80861c:	8809883a 	mov	r4,r17
  808620:	0808c7c0 	call	808c7c <__clzsi2>
  808624:	10800804 	addi	r2,r2,32
  808628:	113ffe04 	addi	r4,r2,-8
  80862c:	00c007c4 	movi	r3,31
  808630:	193f850e 	bge	r3,r4,808448 <__alt_mem_onchip_mem+0xff800448>
  808634:	10bff604 	addi	r2,r2,-40
  808638:	8884983a 	sll	r2,r17,r2
  80863c:	0023883a 	mov	r17,zero
  808640:	243f880e 	bge	r4,r16,808464 <__alt_mem_onchip_mem+0xff800464>
  808644:	00ffe034 	movhi	r3,65408
  808648:	18ffffc4 	addi	r3,r3,-1
  80864c:	8121c83a 	sub	r16,r16,r4
  808650:	10c6703a 	and	r3,r2,r3
  808654:	003f3406 	br	808328 <__alt_mem_onchip_mem+0xff800328>
  808658:	9100004c 	andi	r4,r18,1
  80865c:	000b883a 	mov	r5,zero
  808660:	0005883a 	mov	r2,zero
  808664:	003f4806 	br	808388 <__alt_mem_onchip_mem+0xff800388>
  808668:	298cb03a 	or	r6,r5,r6
  80866c:	300cc03a 	cmpne	r6,r6,zero
  808670:	0005883a 	mov	r2,zero
  808674:	003f6406 	br	808408 <__alt_mem_onchip_mem+0xff800408>
  808678:	10009a1e 	bne	r2,zero,8088e4 <__subdf3+0x640>
  80867c:	82400044 	addi	r9,r16,1
  808680:	4881ffcc 	andi	r2,r9,2047
  808684:	02800044 	movi	r10,1
  808688:	5080670e 	bge	r10,r2,808828 <__subdf3+0x584>
  80868c:	0081ffc4 	movi	r2,2047
  808690:	4880af26 	beq	r9,r2,808950 <__subdf3+0x6ac>
  808694:	898d883a 	add	r6,r17,r6
  808698:	1945883a 	add	r2,r3,r5
  80869c:	3447803a 	cmpltu	r3,r6,r17
  8086a0:	1887883a 	add	r3,r3,r2
  8086a4:	182297fa 	slli	r17,r3,31
  8086a8:	300cd07a 	srli	r6,r6,1
  8086ac:	1806d07a 	srli	r3,r3,1
  8086b0:	4821883a 	mov	r16,r9
  8086b4:	89a2b03a 	or	r17,r17,r6
  8086b8:	003f1b06 	br	808328 <__alt_mem_onchip_mem+0xff800328>
  8086bc:	0101ffc4 	movi	r4,2047
  8086c0:	813f441e 	bne	r16,r4,8083d4 <__alt_mem_onchip_mem+0xff8003d4>
  8086c4:	003f1806 	br	808328 <__alt_mem_onchip_mem+0xff800328>
  8086c8:	843ff844 	addi	r16,r16,-31
  8086cc:	01400804 	movi	r5,32
  8086d0:	1408d83a 	srl	r4,r2,r16
  8086d4:	19405026 	beq	r3,r5,808818 <__subdf3+0x574>
  8086d8:	01401004 	movi	r5,64
  8086dc:	28c7c83a 	sub	r3,r5,r3
  8086e0:	10c4983a 	sll	r2,r2,r3
  8086e4:	88a2b03a 	or	r17,r17,r2
  8086e8:	8822c03a 	cmpne	r17,r17,zero
  8086ec:	2462b03a 	or	r17,r4,r17
  8086f0:	0007883a 	mov	r3,zero
  8086f4:	0021883a 	mov	r16,zero
  8086f8:	003f6d06 	br	8084b0 <__alt_mem_onchip_mem+0xff8004b0>
  8086fc:	11fff804 	addi	r7,r2,-32
  808700:	01000804 	movi	r4,32
  808704:	29ced83a 	srl	r7,r5,r7
  808708:	11004526 	beq	r2,r4,808820 <__subdf3+0x57c>
  80870c:	01001004 	movi	r4,64
  808710:	2089c83a 	sub	r4,r4,r2
  808714:	2904983a 	sll	r2,r5,r4
  808718:	118cb03a 	or	r6,r2,r6
  80871c:	300cc03a 	cmpne	r6,r6,zero
  808720:	398cb03a 	or	r6,r7,r6
  808724:	0005883a 	mov	r2,zero
  808728:	003f3706 	br	808408 <__alt_mem_onchip_mem+0xff800408>
  80872c:	80002a26 	beq	r16,zero,8087d8 <__subdf3+0x534>
  808730:	0101ffc4 	movi	r4,2047
  808734:	49006626 	beq	r9,r4,8088d0 <__subdf3+0x62c>
  808738:	0085c83a 	sub	r2,zero,r2
  80873c:	18c02034 	orhi	r3,r3,128
  808740:	01000e04 	movi	r4,56
  808744:	20807e16 	blt	r4,r2,808940 <__subdf3+0x69c>
  808748:	010007c4 	movi	r4,31
  80874c:	2080e716 	blt	r4,r2,808aec <__subdf3+0x848>
  808750:	01000804 	movi	r4,32
  808754:	2089c83a 	sub	r4,r4,r2
  808758:	1914983a 	sll	r10,r3,r4
  80875c:	8890d83a 	srl	r8,r17,r2
  808760:	8908983a 	sll	r4,r17,r4
  808764:	1884d83a 	srl	r2,r3,r2
  808768:	5222b03a 	or	r17,r10,r8
  80876c:	2006c03a 	cmpne	r3,r4,zero
  808770:	88e2b03a 	or	r17,r17,r3
  808774:	3463c83a 	sub	r17,r6,r17
  808778:	2885c83a 	sub	r2,r5,r2
  80877c:	344d803a 	cmpltu	r6,r6,r17
  808780:	1187c83a 	sub	r3,r2,r6
  808784:	4821883a 	mov	r16,r9
  808788:	3825883a 	mov	r18,r7
  80878c:	003f2306 	br	80841c <__alt_mem_onchip_mem+0xff80041c>
  808790:	24d0b03a 	or	r8,r4,r19
  808794:	40001b1e 	bne	r8,zero,808804 <__subdf3+0x560>
  808798:	0005883a 	mov	r2,zero
  80879c:	0009883a 	mov	r4,zero
  8087a0:	0021883a 	mov	r16,zero
  8087a4:	003f4906 	br	8084cc <__alt_mem_onchip_mem+0xff8004cc>
  8087a8:	010007c4 	movi	r4,31
  8087ac:	20803a16 	blt	r4,r2,808898 <__subdf3+0x5f4>
  8087b0:	01000804 	movi	r4,32
  8087b4:	2089c83a 	sub	r4,r4,r2
  8087b8:	2912983a 	sll	r9,r5,r4
  8087bc:	3090d83a 	srl	r8,r6,r2
  8087c0:	3108983a 	sll	r4,r6,r4
  8087c4:	2884d83a 	srl	r2,r5,r2
  8087c8:	4a12b03a 	or	r9,r9,r8
  8087cc:	2008c03a 	cmpne	r4,r4,zero
  8087d0:	4912b03a 	or	r9,r9,r4
  8087d4:	003f4e06 	br	808510 <__alt_mem_onchip_mem+0xff800510>
  8087d8:	1c48b03a 	or	r4,r3,r17
  8087dc:	20003c26 	beq	r4,zero,8088d0 <__subdf3+0x62c>
  8087e0:	0084303a 	nor	r2,zero,r2
  8087e4:	1000381e 	bne	r2,zero,8088c8 <__subdf3+0x624>
  8087e8:	3463c83a 	sub	r17,r6,r17
  8087ec:	28c5c83a 	sub	r2,r5,r3
  8087f0:	344d803a 	cmpltu	r6,r6,r17
  8087f4:	1187c83a 	sub	r3,r2,r6
  8087f8:	4821883a 	mov	r16,r9
  8087fc:	3825883a 	mov	r18,r7
  808800:	003f0606 	br	80841c <__alt_mem_onchip_mem+0xff80041c>
  808804:	2023883a 	mov	r17,r4
  808808:	003f0906 	br	808430 <__alt_mem_onchip_mem+0xff800430>
  80880c:	0101ffc4 	movi	r4,2047
  808810:	813f3a1e 	bne	r16,r4,8084fc <__alt_mem_onchip_mem+0xff8004fc>
  808814:	003ec406 	br	808328 <__alt_mem_onchip_mem+0xff800328>
  808818:	0005883a 	mov	r2,zero
  80881c:	003fb106 	br	8086e4 <__alt_mem_onchip_mem+0xff8006e4>
  808820:	0005883a 	mov	r2,zero
  808824:	003fbc06 	br	808718 <__alt_mem_onchip_mem+0xff800718>
  808828:	1c44b03a 	or	r2,r3,r17
  80882c:	80008e1e 	bne	r16,zero,808a68 <__subdf3+0x7c4>
  808830:	1000c826 	beq	r2,zero,808b54 <__subdf3+0x8b0>
  808834:	2984b03a 	or	r2,r5,r6
  808838:	103ebb26 	beq	r2,zero,808328 <__alt_mem_onchip_mem+0xff800328>
  80883c:	8989883a 	add	r4,r17,r6
  808840:	1945883a 	add	r2,r3,r5
  808844:	2447803a 	cmpltu	r3,r4,r17
  808848:	1887883a 	add	r3,r3,r2
  80884c:	1880202c 	andhi	r2,r3,128
  808850:	2023883a 	mov	r17,r4
  808854:	103f1626 	beq	r2,zero,8084b0 <__alt_mem_onchip_mem+0xff8004b0>
  808858:	00bfe034 	movhi	r2,65408
  80885c:	10bfffc4 	addi	r2,r2,-1
  808860:	5021883a 	mov	r16,r10
  808864:	1886703a 	and	r3,r3,r2
  808868:	003eaf06 	br	808328 <__alt_mem_onchip_mem+0xff800328>
  80886c:	3825883a 	mov	r18,r7
  808870:	003f0f06 	br	8084b0 <__alt_mem_onchip_mem+0xff8004b0>
  808874:	1c44b03a 	or	r2,r3,r17
  808878:	8000251e 	bne	r16,zero,808910 <__subdf3+0x66c>
  80887c:	1000661e 	bne	r2,zero,808a18 <__subdf3+0x774>
  808880:	2990b03a 	or	r8,r5,r6
  808884:	40009626 	beq	r8,zero,808ae0 <__subdf3+0x83c>
  808888:	2807883a 	mov	r3,r5
  80888c:	3023883a 	mov	r17,r6
  808890:	3825883a 	mov	r18,r7
  808894:	003ea406 	br	808328 <__alt_mem_onchip_mem+0xff800328>
  808898:	127ff804 	addi	r9,r2,-32
  80889c:	01000804 	movi	r4,32
  8088a0:	2a52d83a 	srl	r9,r5,r9
  8088a4:	11008c26 	beq	r2,r4,808ad8 <__subdf3+0x834>
  8088a8:	01001004 	movi	r4,64
  8088ac:	2085c83a 	sub	r2,r4,r2
  8088b0:	2884983a 	sll	r2,r5,r2
  8088b4:	118cb03a 	or	r6,r2,r6
  8088b8:	300cc03a 	cmpne	r6,r6,zero
  8088bc:	4992b03a 	or	r9,r9,r6
  8088c0:	0005883a 	mov	r2,zero
  8088c4:	003f1206 	br	808510 <__alt_mem_onchip_mem+0xff800510>
  8088c8:	0101ffc4 	movi	r4,2047
  8088cc:	493f9c1e 	bne	r9,r4,808740 <__alt_mem_onchip_mem+0xff800740>
  8088d0:	2807883a 	mov	r3,r5
  8088d4:	3023883a 	mov	r17,r6
  8088d8:	4821883a 	mov	r16,r9
  8088dc:	3825883a 	mov	r18,r7
  8088e0:	003e9106 	br	808328 <__alt_mem_onchip_mem+0xff800328>
  8088e4:	80001f1e 	bne	r16,zero,808964 <__subdf3+0x6c0>
  8088e8:	1c48b03a 	or	r4,r3,r17
  8088ec:	20005a26 	beq	r4,zero,808a58 <__subdf3+0x7b4>
  8088f0:	0084303a 	nor	r2,zero,r2
  8088f4:	1000561e 	bne	r2,zero,808a50 <__subdf3+0x7ac>
  8088f8:	89a3883a 	add	r17,r17,r6
  8088fc:	1945883a 	add	r2,r3,r5
  808900:	898d803a 	cmpltu	r6,r17,r6
  808904:	3087883a 	add	r3,r6,r2
  808908:	4821883a 	mov	r16,r9
  80890c:	003f0506 	br	808524 <__alt_mem_onchip_mem+0xff800524>
  808910:	10002b1e 	bne	r2,zero,8089c0 <__subdf3+0x71c>
  808914:	2984b03a 	or	r2,r5,r6
  808918:	10008026 	beq	r2,zero,808b1c <__subdf3+0x878>
  80891c:	2807883a 	mov	r3,r5
  808920:	3023883a 	mov	r17,r6
  808924:	3825883a 	mov	r18,r7
  808928:	0401ffc4 	movi	r16,2047
  80892c:	003e7e06 	br	808328 <__alt_mem_onchip_mem+0xff800328>
  808930:	3809883a 	mov	r4,r7
  808934:	0011883a 	mov	r8,zero
  808938:	0005883a 	mov	r2,zero
  80893c:	003ee306 	br	8084cc <__alt_mem_onchip_mem+0xff8004cc>
  808940:	1c62b03a 	or	r17,r3,r17
  808944:	8822c03a 	cmpne	r17,r17,zero
  808948:	0005883a 	mov	r2,zero
  80894c:	003f8906 	br	808774 <__alt_mem_onchip_mem+0xff800774>
  808950:	3809883a 	mov	r4,r7
  808954:	4821883a 	mov	r16,r9
  808958:	0011883a 	mov	r8,zero
  80895c:	0005883a 	mov	r2,zero
  808960:	003eda06 	br	8084cc <__alt_mem_onchip_mem+0xff8004cc>
  808964:	0101ffc4 	movi	r4,2047
  808968:	49003b26 	beq	r9,r4,808a58 <__subdf3+0x7b4>
  80896c:	0085c83a 	sub	r2,zero,r2
  808970:	18c02034 	orhi	r3,r3,128
  808974:	01000e04 	movi	r4,56
  808978:	20806e16 	blt	r4,r2,808b34 <__subdf3+0x890>
  80897c:	010007c4 	movi	r4,31
  808980:	20807716 	blt	r4,r2,808b60 <__subdf3+0x8bc>
  808984:	01000804 	movi	r4,32
  808988:	2089c83a 	sub	r4,r4,r2
  80898c:	1914983a 	sll	r10,r3,r4
  808990:	8890d83a 	srl	r8,r17,r2
  808994:	8908983a 	sll	r4,r17,r4
  808998:	1884d83a 	srl	r2,r3,r2
  80899c:	5222b03a 	or	r17,r10,r8
  8089a0:	2006c03a 	cmpne	r3,r4,zero
  8089a4:	88e2b03a 	or	r17,r17,r3
  8089a8:	89a3883a 	add	r17,r17,r6
  8089ac:	1145883a 	add	r2,r2,r5
  8089b0:	898d803a 	cmpltu	r6,r17,r6
  8089b4:	3087883a 	add	r3,r6,r2
  8089b8:	4821883a 	mov	r16,r9
  8089bc:	003ed906 	br	808524 <__alt_mem_onchip_mem+0xff800524>
  8089c0:	2984b03a 	or	r2,r5,r6
  8089c4:	10004226 	beq	r2,zero,808ad0 <__subdf3+0x82c>
  8089c8:	1808d0fa 	srli	r4,r3,3
  8089cc:	8822d0fa 	srli	r17,r17,3
  8089d0:	1806977a 	slli	r3,r3,29
  8089d4:	2080022c 	andhi	r2,r4,8
  8089d8:	1c62b03a 	or	r17,r3,r17
  8089dc:	10000826 	beq	r2,zero,808a00 <__subdf3+0x75c>
  8089e0:	2812d0fa 	srli	r9,r5,3
  8089e4:	4880022c 	andhi	r2,r9,8
  8089e8:	1000051e 	bne	r2,zero,808a00 <__subdf3+0x75c>
  8089ec:	300cd0fa 	srli	r6,r6,3
  8089f0:	2804977a 	slli	r2,r5,29
  8089f4:	4809883a 	mov	r4,r9
  8089f8:	3825883a 	mov	r18,r7
  8089fc:	11a2b03a 	or	r17,r2,r6
  808a00:	8806d77a 	srli	r3,r17,29
  808a04:	200890fa 	slli	r4,r4,3
  808a08:	882290fa 	slli	r17,r17,3
  808a0c:	0401ffc4 	movi	r16,2047
  808a10:	1906b03a 	or	r3,r3,r4
  808a14:	003e4406 	br	808328 <__alt_mem_onchip_mem+0xff800328>
  808a18:	2984b03a 	or	r2,r5,r6
  808a1c:	103e4226 	beq	r2,zero,808328 <__alt_mem_onchip_mem+0xff800328>
  808a20:	8989c83a 	sub	r4,r17,r6
  808a24:	8911803a 	cmpltu	r8,r17,r4
  808a28:	1945c83a 	sub	r2,r3,r5
  808a2c:	1205c83a 	sub	r2,r2,r8
  808a30:	1200202c 	andhi	r8,r2,128
  808a34:	403e9a26 	beq	r8,zero,8084a0 <__alt_mem_onchip_mem+0xff8004a0>
  808a38:	3463c83a 	sub	r17,r6,r17
  808a3c:	28c5c83a 	sub	r2,r5,r3
  808a40:	344d803a 	cmpltu	r6,r6,r17
  808a44:	1187c83a 	sub	r3,r2,r6
  808a48:	3825883a 	mov	r18,r7
  808a4c:	003e3606 	br	808328 <__alt_mem_onchip_mem+0xff800328>
  808a50:	0101ffc4 	movi	r4,2047
  808a54:	493fc71e 	bne	r9,r4,808974 <__alt_mem_onchip_mem+0xff800974>
  808a58:	2807883a 	mov	r3,r5
  808a5c:	3023883a 	mov	r17,r6
  808a60:	4821883a 	mov	r16,r9
  808a64:	003e3006 	br	808328 <__alt_mem_onchip_mem+0xff800328>
  808a68:	10003626 	beq	r2,zero,808b44 <__subdf3+0x8a0>
  808a6c:	2984b03a 	or	r2,r5,r6
  808a70:	10001726 	beq	r2,zero,808ad0 <__subdf3+0x82c>
  808a74:	1808d0fa 	srli	r4,r3,3
  808a78:	8822d0fa 	srli	r17,r17,3
  808a7c:	1806977a 	slli	r3,r3,29
  808a80:	2080022c 	andhi	r2,r4,8
  808a84:	1c62b03a 	or	r17,r3,r17
  808a88:	10000726 	beq	r2,zero,808aa8 <__subdf3+0x804>
  808a8c:	2812d0fa 	srli	r9,r5,3
  808a90:	4880022c 	andhi	r2,r9,8
  808a94:	1000041e 	bne	r2,zero,808aa8 <__subdf3+0x804>
  808a98:	300cd0fa 	srli	r6,r6,3
  808a9c:	2804977a 	slli	r2,r5,29
  808aa0:	4809883a 	mov	r4,r9
  808aa4:	11a2b03a 	or	r17,r2,r6
  808aa8:	8806d77a 	srli	r3,r17,29
  808aac:	200890fa 	slli	r4,r4,3
  808ab0:	882290fa 	slli	r17,r17,3
  808ab4:	3825883a 	mov	r18,r7
  808ab8:	1906b03a 	or	r3,r3,r4
  808abc:	0401ffc4 	movi	r16,2047
  808ac0:	003e1906 	br	808328 <__alt_mem_onchip_mem+0xff800328>
  808ac4:	000b883a 	mov	r5,zero
  808ac8:	0005883a 	mov	r2,zero
  808acc:	003e2e06 	br	808388 <__alt_mem_onchip_mem+0xff800388>
  808ad0:	0401ffc4 	movi	r16,2047
  808ad4:	003e1406 	br	808328 <__alt_mem_onchip_mem+0xff800328>
  808ad8:	0005883a 	mov	r2,zero
  808adc:	003f7506 	br	8088b4 <__alt_mem_onchip_mem+0xff8008b4>
  808ae0:	0005883a 	mov	r2,zero
  808ae4:	0009883a 	mov	r4,zero
  808ae8:	003e7806 	br	8084cc <__alt_mem_onchip_mem+0xff8004cc>
  808aec:	123ff804 	addi	r8,r2,-32
  808af0:	01000804 	movi	r4,32
  808af4:	1a10d83a 	srl	r8,r3,r8
  808af8:	11002526 	beq	r2,r4,808b90 <__subdf3+0x8ec>
  808afc:	01001004 	movi	r4,64
  808b00:	2085c83a 	sub	r2,r4,r2
  808b04:	1884983a 	sll	r2,r3,r2
  808b08:	1444b03a 	or	r2,r2,r17
  808b0c:	1004c03a 	cmpne	r2,r2,zero
  808b10:	40a2b03a 	or	r17,r8,r2
  808b14:	0005883a 	mov	r2,zero
  808b18:	003f1606 	br	808774 <__alt_mem_onchip_mem+0xff800774>
  808b1c:	02000434 	movhi	r8,16
  808b20:	0009883a 	mov	r4,zero
  808b24:	423fffc4 	addi	r8,r8,-1
  808b28:	00bfffc4 	movi	r2,-1
  808b2c:	0401ffc4 	movi	r16,2047
  808b30:	003e6606 	br	8084cc <__alt_mem_onchip_mem+0xff8004cc>
  808b34:	1c62b03a 	or	r17,r3,r17
  808b38:	8822c03a 	cmpne	r17,r17,zero
  808b3c:	0005883a 	mov	r2,zero
  808b40:	003f9906 	br	8089a8 <__alt_mem_onchip_mem+0xff8009a8>
  808b44:	2807883a 	mov	r3,r5
  808b48:	3023883a 	mov	r17,r6
  808b4c:	0401ffc4 	movi	r16,2047
  808b50:	003df506 	br	808328 <__alt_mem_onchip_mem+0xff800328>
  808b54:	2807883a 	mov	r3,r5
  808b58:	3023883a 	mov	r17,r6
  808b5c:	003df206 	br	808328 <__alt_mem_onchip_mem+0xff800328>
  808b60:	123ff804 	addi	r8,r2,-32
  808b64:	01000804 	movi	r4,32
  808b68:	1a10d83a 	srl	r8,r3,r8
  808b6c:	11000a26 	beq	r2,r4,808b98 <__subdf3+0x8f4>
  808b70:	01001004 	movi	r4,64
  808b74:	2085c83a 	sub	r2,r4,r2
  808b78:	1884983a 	sll	r2,r3,r2
  808b7c:	1444b03a 	or	r2,r2,r17
  808b80:	1004c03a 	cmpne	r2,r2,zero
  808b84:	40a2b03a 	or	r17,r8,r2
  808b88:	0005883a 	mov	r2,zero
  808b8c:	003f8606 	br	8089a8 <__alt_mem_onchip_mem+0xff8009a8>
  808b90:	0005883a 	mov	r2,zero
  808b94:	003fdc06 	br	808b08 <__alt_mem_onchip_mem+0xff800b08>
  808b98:	0005883a 	mov	r2,zero
  808b9c:	003ff706 	br	808b7c <__alt_mem_onchip_mem+0xff800b7c>

00808ba0 <__floatsidf>:
  808ba0:	defffd04 	addi	sp,sp,-12
  808ba4:	dfc00215 	stw	ra,8(sp)
  808ba8:	dc400115 	stw	r17,4(sp)
  808bac:	dc000015 	stw	r16,0(sp)
  808bb0:	20002b26 	beq	r4,zero,808c60 <__floatsidf+0xc0>
  808bb4:	2023883a 	mov	r17,r4
  808bb8:	2020d7fa 	srli	r16,r4,31
  808bbc:	20002d16 	blt	r4,zero,808c74 <__floatsidf+0xd4>
  808bc0:	8809883a 	mov	r4,r17
  808bc4:	0808c7c0 	call	808c7c <__clzsi2>
  808bc8:	01410784 	movi	r5,1054
  808bcc:	288bc83a 	sub	r5,r5,r2
  808bd0:	01010cc4 	movi	r4,1075
  808bd4:	2149c83a 	sub	r4,r4,r5
  808bd8:	00c007c4 	movi	r3,31
  808bdc:	1900160e 	bge	r3,r4,808c38 <__floatsidf+0x98>
  808be0:	00c104c4 	movi	r3,1043
  808be4:	1947c83a 	sub	r3,r3,r5
  808be8:	88c6983a 	sll	r3,r17,r3
  808bec:	00800434 	movhi	r2,16
  808bf0:	10bfffc4 	addi	r2,r2,-1
  808bf4:	1886703a 	and	r3,r3,r2
  808bf8:	2941ffcc 	andi	r5,r5,2047
  808bfc:	800d883a 	mov	r6,r16
  808c00:	0005883a 	mov	r2,zero
  808c04:	280a953a 	slli	r5,r5,20
  808c08:	31803fcc 	andi	r6,r6,255
  808c0c:	01000434 	movhi	r4,16
  808c10:	300c97fa 	slli	r6,r6,31
  808c14:	213fffc4 	addi	r4,r4,-1
  808c18:	1906703a 	and	r3,r3,r4
  808c1c:	1946b03a 	or	r3,r3,r5
  808c20:	1986b03a 	or	r3,r3,r6
  808c24:	dfc00217 	ldw	ra,8(sp)
  808c28:	dc400117 	ldw	r17,4(sp)
  808c2c:	dc000017 	ldw	r16,0(sp)
  808c30:	dec00304 	addi	sp,sp,12
  808c34:	f800283a 	ret
  808c38:	00c002c4 	movi	r3,11
  808c3c:	1887c83a 	sub	r3,r3,r2
  808c40:	88c6d83a 	srl	r3,r17,r3
  808c44:	8904983a 	sll	r2,r17,r4
  808c48:	01000434 	movhi	r4,16
  808c4c:	213fffc4 	addi	r4,r4,-1
  808c50:	2941ffcc 	andi	r5,r5,2047
  808c54:	1906703a 	and	r3,r3,r4
  808c58:	800d883a 	mov	r6,r16
  808c5c:	003fe906 	br	808c04 <__alt_mem_onchip_mem+0xff800c04>
  808c60:	000d883a 	mov	r6,zero
  808c64:	000b883a 	mov	r5,zero
  808c68:	0007883a 	mov	r3,zero
  808c6c:	0005883a 	mov	r2,zero
  808c70:	003fe406 	br	808c04 <__alt_mem_onchip_mem+0xff800c04>
  808c74:	0123c83a 	sub	r17,zero,r4
  808c78:	003fd106 	br	808bc0 <__alt_mem_onchip_mem+0xff800bc0>

00808c7c <__clzsi2>:
  808c7c:	00bfffd4 	movui	r2,65535
  808c80:	11000536 	bltu	r2,r4,808c98 <__clzsi2+0x1c>
  808c84:	00803fc4 	movi	r2,255
  808c88:	11000f36 	bltu	r2,r4,808cc8 <__clzsi2+0x4c>
  808c8c:	00800804 	movi	r2,32
  808c90:	0007883a 	mov	r3,zero
  808c94:	00000506 	br	808cac <__clzsi2+0x30>
  808c98:	00804034 	movhi	r2,256
  808c9c:	10bfffc4 	addi	r2,r2,-1
  808ca0:	11000c2e 	bgeu	r2,r4,808cd4 <__clzsi2+0x58>
  808ca4:	00800204 	movi	r2,8
  808ca8:	00c00604 	movi	r3,24
  808cac:	20c8d83a 	srl	r4,r4,r3
  808cb0:	00c02074 	movhi	r3,129
  808cb4:	18c16084 	addi	r3,r3,1410
  808cb8:	1909883a 	add	r4,r3,r4
  808cbc:	20c00003 	ldbu	r3,0(r4)
  808cc0:	10c5c83a 	sub	r2,r2,r3
  808cc4:	f800283a 	ret
  808cc8:	00800604 	movi	r2,24
  808ccc:	00c00204 	movi	r3,8
  808cd0:	003ff606 	br	808cac <__alt_mem_onchip_mem+0xff800cac>
  808cd4:	00800404 	movi	r2,16
  808cd8:	1007883a 	mov	r3,r2
  808cdc:	003ff306 	br	808cac <__alt_mem_onchip_mem+0xff800cac>

00808ce0 <_fopen_r>:
  808ce0:	defffa04 	addi	sp,sp,-24
  808ce4:	3005883a 	mov	r2,r6
  808ce8:	dcc00415 	stw	r19,16(sp)
  808cec:	d80d883a 	mov	r6,sp
  808cf0:	2827883a 	mov	r19,r5
  808cf4:	100b883a 	mov	r5,r2
  808cf8:	dc800315 	stw	r18,12(sp)
  808cfc:	dfc00515 	stw	ra,20(sp)
  808d00:	dc400215 	stw	r17,8(sp)
  808d04:	dc000115 	stw	r16,4(sp)
  808d08:	2025883a 	mov	r18,r4
  808d0c:	080ab000 	call	80ab00 <__sflags>
  808d10:	10002726 	beq	r2,zero,808db0 <_fopen_r+0xd0>
  808d14:	9009883a 	mov	r4,r18
  808d18:	1023883a 	mov	r17,r2
  808d1c:	080a9800 	call	80a980 <__sfp>
  808d20:	1021883a 	mov	r16,r2
  808d24:	10002226 	beq	r2,zero,808db0 <_fopen_r+0xd0>
  808d28:	d9800017 	ldw	r6,0(sp)
  808d2c:	01c06d84 	movi	r7,438
  808d30:	980b883a 	mov	r5,r19
  808d34:	9009883a 	mov	r4,r18
  808d38:	0809eb80 	call	809eb8 <_open_r>
  808d3c:	10001916 	blt	r2,zero,808da4 <_fopen_r+0xc4>
  808d40:	8080038d 	sth	r2,14(r16)
  808d44:	00802074 	movhi	r2,129
  808d48:	10a88c04 	addi	r2,r2,-24016
  808d4c:	80800815 	stw	r2,32(r16)
  808d50:	00802074 	movhi	r2,129
  808d54:	10a8a304 	addi	r2,r2,-23924
  808d58:	80800915 	stw	r2,36(r16)
  808d5c:	00802074 	movhi	r2,129
  808d60:	10a8c204 	addi	r2,r2,-23800
  808d64:	80800a15 	stw	r2,40(r16)
  808d68:	00802074 	movhi	r2,129
  808d6c:	10a8d904 	addi	r2,r2,-23708
  808d70:	8440030d 	sth	r17,12(r16)
  808d74:	84000715 	stw	r16,28(r16)
  808d78:	80800b15 	stw	r2,44(r16)
  808d7c:	8c40400c 	andi	r17,r17,256
  808d80:	88000d1e 	bne	r17,zero,808db8 <_fopen_r+0xd8>
  808d84:	8005883a 	mov	r2,r16
  808d88:	dfc00517 	ldw	ra,20(sp)
  808d8c:	dcc00417 	ldw	r19,16(sp)
  808d90:	dc800317 	ldw	r18,12(sp)
  808d94:	dc400217 	ldw	r17,8(sp)
  808d98:	dc000117 	ldw	r16,4(sp)
  808d9c:	dec00604 	addi	sp,sp,24
  808da0:	f800283a 	ret
  808da4:	080aac00 	call	80aac0 <__sfp_lock_acquire>
  808da8:	8000030d 	sth	zero,12(r16)
  808dac:	080aac40 	call	80aac4 <__sfp_lock_release>
  808db0:	0005883a 	mov	r2,zero
  808db4:	003ff406 	br	808d88 <__alt_mem_onchip_mem+0xff800d88>
  808db8:	01c00084 	movi	r7,2
  808dbc:	000d883a 	mov	r6,zero
  808dc0:	800b883a 	mov	r5,r16
  808dc4:	9009883a 	mov	r4,r18
  808dc8:	0808dec0 	call	808dec <_fseek_r>
  808dcc:	8005883a 	mov	r2,r16
  808dd0:	003fed06 	br	808d88 <__alt_mem_onchip_mem+0xff800d88>

00808dd4 <fopen>:
  808dd4:	00802074 	movhi	r2,129
  808dd8:	10895c04 	addi	r2,r2,9584
  808ddc:	280d883a 	mov	r6,r5
  808de0:	200b883a 	mov	r5,r4
  808de4:	11000017 	ldw	r4,0(r2)
  808de8:	0808ce01 	jmpi	808ce0 <_fopen_r>

00808dec <_fseek_r>:
  808dec:	0808e0c1 	jmpi	808e0c <_fseeko_r>

00808df0 <fseek>:
  808df0:	00802074 	movhi	r2,129
  808df4:	10895c04 	addi	r2,r2,9584
  808df8:	300f883a 	mov	r7,r6
  808dfc:	280d883a 	mov	r6,r5
  808e00:	200b883a 	mov	r5,r4
  808e04:	11000017 	ldw	r4,0(r2)
  808e08:	0808e0c1 	jmpi	808e0c <_fseeko_r>

00808e0c <_fseeko_r>:
  808e0c:	deffe804 	addi	sp,sp,-96
  808e10:	dd401415 	stw	r21,80(sp)
  808e14:	dc801115 	stw	r18,68(sp)
  808e18:	dc401015 	stw	r17,64(sp)
  808e1c:	dc000f15 	stw	r16,60(sp)
  808e20:	dfc01715 	stw	ra,92(sp)
  808e24:	ddc01615 	stw	r23,88(sp)
  808e28:	dd801515 	stw	r22,84(sp)
  808e2c:	dd001315 	stw	r20,76(sp)
  808e30:	dcc01215 	stw	r19,72(sp)
  808e34:	2023883a 	mov	r17,r4
  808e38:	2821883a 	mov	r16,r5
  808e3c:	302b883a 	mov	r21,r6
  808e40:	3825883a 	mov	r18,r7
  808e44:	20000226 	beq	r4,zero,808e50 <_fseeko_r+0x44>
  808e48:	20800e17 	ldw	r2,56(r4)
  808e4c:	10005a26 	beq	r2,zero,808fb8 <_fseeko_r+0x1ac>
  808e50:	8080030b 	ldhu	r2,12(r16)
  808e54:	00c04204 	movi	r3,264
  808e58:	1080420c 	andi	r2,r2,264
  808e5c:	10c05b26 	beq	r2,r3,808fcc <_fseeko_r+0x1c0>
  808e60:	85000a17 	ldw	r20,40(r16)
  808e64:	a000f626 	beq	r20,zero,809240 <_fseeko_r+0x434>
  808e68:	00800044 	movi	r2,1
  808e6c:	90803e26 	beq	r18,r2,808f68 <_fseeko_r+0x15c>
  808e70:	00800084 	movi	r2,2
  808e74:	90801026 	beq	r18,r2,808eb8 <_fseeko_r+0xac>
  808e78:	90000f26 	beq	r18,zero,808eb8 <_fseeko_r+0xac>
  808e7c:	00800584 	movi	r2,22
  808e80:	88800015 	stw	r2,0(r17)
  808e84:	04ffffc4 	movi	r19,-1
  808e88:	9805883a 	mov	r2,r19
  808e8c:	dfc01717 	ldw	ra,92(sp)
  808e90:	ddc01617 	ldw	r23,88(sp)
  808e94:	dd801517 	ldw	r22,84(sp)
  808e98:	dd401417 	ldw	r21,80(sp)
  808e9c:	dd001317 	ldw	r20,76(sp)
  808ea0:	dcc01217 	ldw	r19,72(sp)
  808ea4:	dc801117 	ldw	r18,68(sp)
  808ea8:	dc401017 	ldw	r17,64(sp)
  808eac:	dc000f17 	ldw	r16,60(sp)
  808eb0:	dec01804 	addi	sp,sp,96
  808eb4:	f800283a 	ret
  808eb8:	80800417 	ldw	r2,16(r16)
  808ebc:	002f883a 	mov	r23,zero
  808ec0:	0027883a 	mov	r19,zero
  808ec4:	1000cb26 	beq	r2,zero,8091f4 <_fseeko_r+0x3e8>
  808ec8:	8080030b 	ldhu	r2,12(r16)
  808ecc:	10c2068c 	andi	r3,r2,2074
  808ed0:	1800071e 	bne	r3,zero,808ef0 <_fseeko_r+0xe4>
  808ed4:	10c1000c 	andi	r3,r2,1024
  808ed8:	1800451e 	bne	r3,zero,808ff0 <_fseeko_r+0x1e4>
  808edc:	00c02074 	movhi	r3,129
  808ee0:	18e8c204 	addi	r3,r3,-23800
  808ee4:	a0c0b726 	beq	r20,r3,8091c4 <_fseeko_r+0x3b8>
  808ee8:	10820014 	ori	r2,r2,2048
  808eec:	8080030d 	sth	r2,12(r16)
  808ef0:	800b883a 	mov	r5,r16
  808ef4:	8809883a 	mov	r4,r17
  808ef8:	080a6d40 	call	80a6d4 <_fflush_r>
  808efc:	1027883a 	mov	r19,r2
  808f00:	103fe01e 	bne	r2,zero,808e84 <__alt_mem_onchip_mem+0xff800e84>
  808f04:	81400717 	ldw	r5,28(r16)
  808f08:	900f883a 	mov	r7,r18
  808f0c:	a80d883a 	mov	r6,r21
  808f10:	8809883a 	mov	r4,r17
  808f14:	a03ee83a 	callr	r20
  808f18:	00ffffc4 	movi	r3,-1
  808f1c:	10ffd926 	beq	r2,r3,808e84 <__alt_mem_onchip_mem+0xff800e84>
  808f20:	81400c17 	ldw	r5,48(r16)
  808f24:	28000526 	beq	r5,zero,808f3c <_fseeko_r+0x130>
  808f28:	80801004 	addi	r2,r16,64
  808f2c:	28800226 	beq	r5,r2,808f38 <_fseeko_r+0x12c>
  808f30:	8809883a 	mov	r4,r17
  808f34:	080acd00 	call	80acd0 <_free_r>
  808f38:	80000c15 	stw	zero,48(r16)
  808f3c:	8080030b 	ldhu	r2,12(r16)
  808f40:	80c00417 	ldw	r3,16(r16)
  808f44:	80000115 	stw	zero,4(r16)
  808f48:	10bdf7cc 	andi	r2,r2,63455
  808f4c:	80c00015 	stw	r3,0(r16)
  808f50:	8080030d 	sth	r2,12(r16)
  808f54:	01800204 	movi	r6,8
  808f58:	000b883a 	mov	r5,zero
  808f5c:	81001704 	addi	r4,r16,92
  808f60:	0809d900 	call	809d90 <memset>
  808f64:	003fc806 	br	808e88 <__alt_mem_onchip_mem+0xff800e88>
  808f68:	800b883a 	mov	r5,r16
  808f6c:	8809883a 	mov	r4,r17
  808f70:	080a6d40 	call	80a6d4 <_fflush_r>
  808f74:	8080030b 	ldhu	r2,12(r16)
  808f78:	10c4000c 	andi	r3,r2,4096
  808f7c:	18008726 	beq	r3,zero,80919c <_fseeko_r+0x390>
  808f80:	84c01417 	ldw	r19,80(r16)
  808f84:	10c0010c 	andi	r3,r2,4
  808f88:	1800431e 	bne	r3,zero,809098 <_fseeko_r+0x28c>
  808f8c:	1080020c 	andi	r2,r2,8
  808f90:	10008026 	beq	r2,zero,809194 <_fseeko_r+0x388>
  808f94:	80c00017 	ldw	r3,0(r16)
  808f98:	80800417 	ldw	r2,16(r16)
  808f9c:	18000226 	beq	r3,zero,808fa8 <_fseeko_r+0x19c>
  808fa0:	1887c83a 	sub	r3,r3,r2
  808fa4:	98e7883a 	add	r19,r19,r3
  808fa8:	aceb883a 	add	r21,r21,r19
  808fac:	05c00044 	movi	r23,1
  808fb0:	0025883a 	mov	r18,zero
  808fb4:	003fc306 	br	808ec4 <__alt_mem_onchip_mem+0xff800ec4>
  808fb8:	080aab00 	call	80aab0 <__sinit>
  808fbc:	8080030b 	ldhu	r2,12(r16)
  808fc0:	00c04204 	movi	r3,264
  808fc4:	1080420c 	andi	r2,r2,264
  808fc8:	10ffa51e 	bne	r2,r3,808e60 <__alt_mem_onchip_mem+0xff800e60>
  808fcc:	800b883a 	mov	r5,r16
  808fd0:	8809883a 	mov	r4,r17
  808fd4:	080a6d40 	call	80a6d4 <_fflush_r>
  808fd8:	003fa106 	br	808e60 <__alt_mem_onchip_mem+0xff800e60>
  808fdc:	8080030b 	ldhu	r2,12(r16)
  808fe0:	00c10004 	movi	r3,1024
  808fe4:	80c01315 	stw	r3,76(r16)
  808fe8:	10c4b03a 	or	r2,r2,r3
  808fec:	8080030d 	sth	r2,12(r16)
  808ff0:	9000311e 	bne	r18,zero,8090b8 <_fseeko_r+0x2ac>
  808ff4:	a82d883a 	mov	r22,r21
  808ff8:	b800371e 	bne	r23,zero,8090d8 <_fseeko_r+0x2cc>
  808ffc:	8080030b 	ldhu	r2,12(r16)
  809000:	1084000c 	andi	r2,r2,4096
  809004:	10007f26 	beq	r2,zero,809204 <_fseeko_r+0x3f8>
  809008:	80801417 	ldw	r2,80(r16)
  80900c:	81800117 	ldw	r6,4(r16)
  809010:	81400c17 	ldw	r5,48(r16)
  809014:	11a7c83a 	sub	r19,r2,r6
  809018:	28008226 	beq	r5,zero,809224 <_fseeko_r+0x418>
  80901c:	81c00f17 	ldw	r7,60(r16)
  809020:	99e7c83a 	sub	r19,r19,r7
  809024:	81000e17 	ldw	r4,56(r16)
  809028:	80800417 	ldw	r2,16(r16)
  80902c:	99a7883a 	add	r19,r19,r6
  809030:	2087c83a 	sub	r3,r4,r2
  809034:	98e7c83a 	sub	r19,r19,r3
  809038:	38c7883a 	add	r3,r7,r3
  80903c:	b4c02b16 	blt	r22,r19,8090ec <_fseeko_r+0x2e0>
  809040:	98c9883a 	add	r4,r19,r3
  809044:	b100292e 	bgeu	r22,r4,8090ec <_fseeko_r+0x2e0>
  809048:	b4e7c83a 	sub	r19,r22,r19
  80904c:	14c5883a 	add	r2,r2,r19
  809050:	1ce7c83a 	sub	r19,r3,r19
  809054:	80800015 	stw	r2,0(r16)
  809058:	84c00115 	stw	r19,4(r16)
  80905c:	28000526 	beq	r5,zero,809074 <_fseeko_r+0x268>
  809060:	80801004 	addi	r2,r16,64
  809064:	28800226 	beq	r5,r2,809070 <_fseeko_r+0x264>
  809068:	8809883a 	mov	r4,r17
  80906c:	080acd00 	call	80acd0 <_free_r>
  809070:	80000c15 	stw	zero,48(r16)
  809074:	8080030b 	ldhu	r2,12(r16)
  809078:	01800204 	movi	r6,8
  80907c:	000b883a 	mov	r5,zero
  809080:	10bff7cc 	andi	r2,r2,65503
  809084:	8080030d 	sth	r2,12(r16)
  809088:	81001704 	addi	r4,r16,92
  80908c:	0809d900 	call	809d90 <memset>
  809090:	0027883a 	mov	r19,zero
  809094:	003f7c06 	br	808e88 <__alt_mem_onchip_mem+0xff800e88>
  809098:	80c00117 	ldw	r3,4(r16)
  80909c:	80800c17 	ldw	r2,48(r16)
  8090a0:	98e7c83a 	sub	r19,r19,r3
  8090a4:	10003b26 	beq	r2,zero,809194 <_fseeko_r+0x388>
  8090a8:	80c00f17 	ldw	r3,60(r16)
  8090ac:	80800417 	ldw	r2,16(r16)
  8090b0:	98e7c83a 	sub	r19,r19,r3
  8090b4:	003fbc06 	br	808fa8 <__alt_mem_onchip_mem+0xff800fa8>
  8090b8:	8140038f 	ldh	r5,14(r16)
  8090bc:	d80d883a 	mov	r6,sp
  8090c0:	8809883a 	mov	r4,r17
  8090c4:	080926c0 	call	80926c <_fstat_r>
  8090c8:	103f891e 	bne	r2,zero,808ef0 <__alt_mem_onchip_mem+0xff800ef0>
  8090cc:	dd800417 	ldw	r22,16(sp)
  8090d0:	adad883a 	add	r22,r21,r22
  8090d4:	b83fc926 	beq	r23,zero,808ffc <__alt_mem_onchip_mem+0xff800ffc>
  8090d8:	81400c17 	ldw	r5,48(r16)
  8090dc:	81800117 	ldw	r6,4(r16)
  8090e0:	28005026 	beq	r5,zero,809224 <_fseeko_r+0x418>
  8090e4:	81c00f17 	ldw	r7,60(r16)
  8090e8:	003fce06 	br	809024 <__alt_mem_onchip_mem+0xff801024>
  8090ec:	84c01317 	ldw	r19,76(r16)
  8090f0:	81400717 	ldw	r5,28(r16)
  8090f4:	000f883a 	mov	r7,zero
  8090f8:	04e7c83a 	sub	r19,zero,r19
  8090fc:	9da6703a 	and	r19,r19,r22
  809100:	980d883a 	mov	r6,r19
  809104:	8809883a 	mov	r4,r17
  809108:	a03ee83a 	callr	r20
  80910c:	00ffffc4 	movi	r3,-1
  809110:	10ff7726 	beq	r2,r3,808ef0 <__alt_mem_onchip_mem+0xff800ef0>
  809114:	80800417 	ldw	r2,16(r16)
  809118:	81400c17 	ldw	r5,48(r16)
  80911c:	80000115 	stw	zero,4(r16)
  809120:	80800015 	stw	r2,0(r16)
  809124:	28000526 	beq	r5,zero,80913c <_fseeko_r+0x330>
  809128:	80801004 	addi	r2,r16,64
  80912c:	28800226 	beq	r5,r2,809138 <_fseeko_r+0x32c>
  809130:	8809883a 	mov	r4,r17
  809134:	080acd00 	call	80acd0 <_free_r>
  809138:	80000c15 	stw	zero,48(r16)
  80913c:	8080030b 	ldhu	r2,12(r16)
  809140:	b4e7c83a 	sub	r19,r22,r19
  809144:	10bff7cc 	andi	r2,r2,65503
  809148:	8080030d 	sth	r2,12(r16)
  80914c:	98000b26 	beq	r19,zero,80917c <_fseeko_r+0x370>
  809150:	800b883a 	mov	r5,r16
  809154:	8809883a 	mov	r4,r17
  809158:	080a0080 	call	80a008 <__srefill_r>
  80915c:	103f641e 	bne	r2,zero,808ef0 <__alt_mem_onchip_mem+0xff800ef0>
  809160:	80800117 	ldw	r2,4(r16)
  809164:	14ff6236 	bltu	r2,r19,808ef0 <__alt_mem_onchip_mem+0xff800ef0>
  809168:	80c00017 	ldw	r3,0(r16)
  80916c:	14c5c83a 	sub	r2,r2,r19
  809170:	80800115 	stw	r2,4(r16)
  809174:	1ce7883a 	add	r19,r3,r19
  809178:	84c00015 	stw	r19,0(r16)
  80917c:	01800204 	movi	r6,8
  809180:	000b883a 	mov	r5,zero
  809184:	81001704 	addi	r4,r16,92
  809188:	0809d900 	call	809d90 <memset>
  80918c:	0027883a 	mov	r19,zero
  809190:	003f3d06 	br	808e88 <__alt_mem_onchip_mem+0xff800e88>
  809194:	80800417 	ldw	r2,16(r16)
  809198:	003f8306 	br	808fa8 <__alt_mem_onchip_mem+0xff800fa8>
  80919c:	81400717 	ldw	r5,28(r16)
  8091a0:	900f883a 	mov	r7,r18
  8091a4:	000d883a 	mov	r6,zero
  8091a8:	8809883a 	mov	r4,r17
  8091ac:	a03ee83a 	callr	r20
  8091b0:	1027883a 	mov	r19,r2
  8091b4:	00bfffc4 	movi	r2,-1
  8091b8:	98bf3226 	beq	r19,r2,808e84 <__alt_mem_onchip_mem+0xff800e84>
  8091bc:	8080030b 	ldhu	r2,12(r16)
  8091c0:	003f7006 	br	808f84 <__alt_mem_onchip_mem+0xff800f84>
  8091c4:	8140038f 	ldh	r5,14(r16)
  8091c8:	283f4716 	blt	r5,zero,808ee8 <__alt_mem_onchip_mem+0xff800ee8>
  8091cc:	d80d883a 	mov	r6,sp
  8091d0:	8809883a 	mov	r4,r17
  8091d4:	080926c0 	call	80926c <_fstat_r>
  8091d8:	1000041e 	bne	r2,zero,8091ec <_fseeko_r+0x3e0>
  8091dc:	d8800117 	ldw	r2,4(sp)
  8091e0:	00e00014 	movui	r3,32768
  8091e4:	10bc000c 	andi	r2,r2,61440
  8091e8:	10ff7c26 	beq	r2,r3,808fdc <__alt_mem_onchip_mem+0xff800fdc>
  8091ec:	8080030b 	ldhu	r2,12(r16)
  8091f0:	003f3d06 	br	808ee8 <__alt_mem_onchip_mem+0xff800ee8>
  8091f4:	800b883a 	mov	r5,r16
  8091f8:	8809883a 	mov	r4,r17
  8091fc:	08093c80 	call	8093c8 <__smakebuf_r>
  809200:	003f3106 	br	808ec8 <__alt_mem_onchip_mem+0xff800ec8>
  809204:	81400717 	ldw	r5,28(r16)
  809208:	01c00044 	movi	r7,1
  80920c:	000d883a 	mov	r6,zero
  809210:	8809883a 	mov	r4,r17
  809214:	a03ee83a 	callr	r20
  809218:	00ffffc4 	movi	r3,-1
  80921c:	10ff7b1e 	bne	r2,r3,80900c <__alt_mem_onchip_mem+0xff80100c>
  809220:	003f3306 	br	808ef0 <__alt_mem_onchip_mem+0xff800ef0>
  809224:	80c00017 	ldw	r3,0(r16)
  809228:	80800417 	ldw	r2,16(r16)
  80922c:	000b883a 	mov	r5,zero
  809230:	1887c83a 	sub	r3,r3,r2
  809234:	98e7c83a 	sub	r19,r19,r3
  809238:	30c7883a 	add	r3,r6,r3
  80923c:	003f7f06 	br	80903c <__alt_mem_onchip_mem+0xff80103c>
  809240:	00800744 	movi	r2,29
  809244:	88800015 	stw	r2,0(r17)
  809248:	04ffffc4 	movi	r19,-1
  80924c:	003f0e06 	br	808e88 <__alt_mem_onchip_mem+0xff800e88>

00809250 <fseeko>:
  809250:	00802074 	movhi	r2,129
  809254:	10895c04 	addi	r2,r2,9584
  809258:	300f883a 	mov	r7,r6
  80925c:	280d883a 	mov	r6,r5
  809260:	200b883a 	mov	r5,r4
  809264:	11000017 	ldw	r4,0(r2)
  809268:	0808e0c1 	jmpi	808e0c <_fseeko_r>

0080926c <_fstat_r>:
  80926c:	defffd04 	addi	sp,sp,-12
  809270:	2805883a 	mov	r2,r5
  809274:	dc000015 	stw	r16,0(sp)
  809278:	04002074 	movhi	r16,129
  80927c:	dc400115 	stw	r17,4(sp)
  809280:	84108604 	addi	r16,r16,16920
  809284:	2023883a 	mov	r17,r4
  809288:	300b883a 	mov	r5,r6
  80928c:	1009883a 	mov	r4,r2
  809290:	dfc00215 	stw	ra,8(sp)
  809294:	80000015 	stw	zero,0(r16)
  809298:	080c6d00 	call	80c6d0 <fstat>
  80929c:	00ffffc4 	movi	r3,-1
  8092a0:	10c00526 	beq	r2,r3,8092b8 <_fstat_r+0x4c>
  8092a4:	dfc00217 	ldw	ra,8(sp)
  8092a8:	dc400117 	ldw	r17,4(sp)
  8092ac:	dc000017 	ldw	r16,0(sp)
  8092b0:	dec00304 	addi	sp,sp,12
  8092b4:	f800283a 	ret
  8092b8:	80c00017 	ldw	r3,0(r16)
  8092bc:	183ff926 	beq	r3,zero,8092a4 <__alt_mem_onchip_mem+0xff8012a4>
  8092c0:	88c00015 	stw	r3,0(r17)
  8092c4:	003ff706 	br	8092a4 <__alt_mem_onchip_mem+0xff8012a4>

008092c8 <_fwrite_r>:
  8092c8:	defff504 	addi	sp,sp,-44
  8092cc:	dc800815 	stw	r18,32(sp)
  8092d0:	39a5383a 	mul	r18,r7,r6
  8092d4:	d8800304 	addi	r2,sp,12
  8092d8:	d8800015 	stw	r2,0(sp)
  8092dc:	00800044 	movi	r2,1
  8092e0:	dcc00915 	stw	r19,36(sp)
  8092e4:	dc400715 	stw	r17,28(sp)
  8092e8:	dc000615 	stw	r16,24(sp)
  8092ec:	d9400315 	stw	r5,12(sp)
  8092f0:	dfc00a15 	stw	ra,40(sp)
  8092f4:	dc800415 	stw	r18,16(sp)
  8092f8:	dc800215 	stw	r18,8(sp)
  8092fc:	d8800115 	stw	r2,4(sp)
  809300:	3027883a 	mov	r19,r6
  809304:	3821883a 	mov	r16,r7
  809308:	2023883a 	mov	r17,r4
  80930c:	d9400b17 	ldw	r5,44(sp)
  809310:	20000226 	beq	r4,zero,80931c <_fwrite_r+0x54>
  809314:	20800e17 	ldw	r2,56(r4)
  809318:	10001a26 	beq	r2,zero,809384 <_fwrite_r+0xbc>
  80931c:	2880030b 	ldhu	r2,12(r5)
  809320:	10c8000c 	andi	r3,r2,8192
  809324:	1800061e 	bne	r3,zero,809340 <_fwrite_r+0x78>
  809328:	29001917 	ldw	r4,100(r5)
  80932c:	00f7ffc4 	movi	r3,-8193
  809330:	10880014 	ori	r2,r2,8192
  809334:	20c6703a 	and	r3,r4,r3
  809338:	2880030d 	sth	r2,12(r5)
  80933c:	28c01915 	stw	r3,100(r5)
  809340:	d80d883a 	mov	r6,sp
  809344:	8809883a 	mov	r4,r17
  809348:	080afe00 	call	80afe0 <__sfvwrite_r>
  80934c:	10000b26 	beq	r2,zero,80937c <_fwrite_r+0xb4>
  809350:	d9000217 	ldw	r4,8(sp)
  809354:	980b883a 	mov	r5,r19
  809358:	9109c83a 	sub	r4,r18,r4
  80935c:	080c3740 	call	80c374 <__udivsi3>
  809360:	dfc00a17 	ldw	ra,40(sp)
  809364:	dcc00917 	ldw	r19,36(sp)
  809368:	dc800817 	ldw	r18,32(sp)
  80936c:	dc400717 	ldw	r17,28(sp)
  809370:	dc000617 	ldw	r16,24(sp)
  809374:	dec00b04 	addi	sp,sp,44
  809378:	f800283a 	ret
  80937c:	8005883a 	mov	r2,r16
  809380:	003ff706 	br	809360 <__alt_mem_onchip_mem+0xff801360>
  809384:	d9400515 	stw	r5,20(sp)
  809388:	080aab00 	call	80aab0 <__sinit>
  80938c:	d9400517 	ldw	r5,20(sp)
  809390:	003fe206 	br	80931c <__alt_mem_onchip_mem+0xff80131c>

00809394 <fwrite>:
  809394:	defffe04 	addi	sp,sp,-8
  809398:	00802074 	movhi	r2,129
  80939c:	d9c00015 	stw	r7,0(sp)
  8093a0:	10895c04 	addi	r2,r2,9584
  8093a4:	300f883a 	mov	r7,r6
  8093a8:	280d883a 	mov	r6,r5
  8093ac:	200b883a 	mov	r5,r4
  8093b0:	11000017 	ldw	r4,0(r2)
  8093b4:	dfc00115 	stw	ra,4(sp)
  8093b8:	08092c80 	call	8092c8 <_fwrite_r>
  8093bc:	dfc00117 	ldw	ra,4(sp)
  8093c0:	dec00204 	addi	sp,sp,8
  8093c4:	f800283a 	ret

008093c8 <__smakebuf_r>:
  8093c8:	2880030b 	ldhu	r2,12(r5)
  8093cc:	10c0008c 	andi	r3,r2,2
  8093d0:	1800411e 	bne	r3,zero,8094d8 <__smakebuf_r+0x110>
  8093d4:	deffec04 	addi	sp,sp,-80
  8093d8:	dc000f15 	stw	r16,60(sp)
  8093dc:	2821883a 	mov	r16,r5
  8093e0:	2940038f 	ldh	r5,14(r5)
  8093e4:	dc401015 	stw	r17,64(sp)
  8093e8:	dfc01315 	stw	ra,76(sp)
  8093ec:	dcc01215 	stw	r19,72(sp)
  8093f0:	dc801115 	stw	r18,68(sp)
  8093f4:	2023883a 	mov	r17,r4
  8093f8:	28001c16 	blt	r5,zero,80946c <__smakebuf_r+0xa4>
  8093fc:	d80d883a 	mov	r6,sp
  809400:	080926c0 	call	80926c <_fstat_r>
  809404:	10001816 	blt	r2,zero,809468 <__smakebuf_r+0xa0>
  809408:	d8800117 	ldw	r2,4(sp)
  80940c:	00e00014 	movui	r3,32768
  809410:	10bc000c 	andi	r2,r2,61440
  809414:	14c80020 	cmpeqi	r19,r2,8192
  809418:	10c03726 	beq	r2,r3,8094f8 <__smakebuf_r+0x130>
  80941c:	80c0030b 	ldhu	r3,12(r16)
  809420:	18c20014 	ori	r3,r3,2048
  809424:	80c0030d 	sth	r3,12(r16)
  809428:	00c80004 	movi	r3,8192
  80942c:	10c0521e 	bne	r2,r3,809578 <__smakebuf_r+0x1b0>
  809430:	8140038f 	ldh	r5,14(r16)
  809434:	8809883a 	mov	r4,r17
  809438:	080b6240 	call	80b624 <_isatty_r>
  80943c:	10004c26 	beq	r2,zero,809570 <__smakebuf_r+0x1a8>
  809440:	8080030b 	ldhu	r2,12(r16)
  809444:	80c010c4 	addi	r3,r16,67
  809448:	80c00015 	stw	r3,0(r16)
  80944c:	10800054 	ori	r2,r2,1
  809450:	8080030d 	sth	r2,12(r16)
  809454:	00800044 	movi	r2,1
  809458:	80c00415 	stw	r3,16(r16)
  80945c:	80800515 	stw	r2,20(r16)
  809460:	04810004 	movi	r18,1024
  809464:	00000706 	br	809484 <__smakebuf_r+0xbc>
  809468:	8080030b 	ldhu	r2,12(r16)
  80946c:	10c0200c 	andi	r3,r2,128
  809470:	18001f1e 	bne	r3,zero,8094f0 <__smakebuf_r+0x128>
  809474:	04810004 	movi	r18,1024
  809478:	10820014 	ori	r2,r2,2048
  80947c:	8080030d 	sth	r2,12(r16)
  809480:	0027883a 	mov	r19,zero
  809484:	900b883a 	mov	r5,r18
  809488:	8809883a 	mov	r4,r17
  80948c:	08095840 	call	809584 <_malloc_r>
  809490:	10002c26 	beq	r2,zero,809544 <__smakebuf_r+0x17c>
  809494:	80c0030b 	ldhu	r3,12(r16)
  809498:	01002074 	movhi	r4,129
  80949c:	2129da04 	addi	r4,r4,-22680
  8094a0:	89000f15 	stw	r4,60(r17)
  8094a4:	18c02014 	ori	r3,r3,128
  8094a8:	80c0030d 	sth	r3,12(r16)
  8094ac:	80800015 	stw	r2,0(r16)
  8094b0:	80800415 	stw	r2,16(r16)
  8094b4:	84800515 	stw	r18,20(r16)
  8094b8:	98001a1e 	bne	r19,zero,809524 <__smakebuf_r+0x15c>
  8094bc:	dfc01317 	ldw	ra,76(sp)
  8094c0:	dcc01217 	ldw	r19,72(sp)
  8094c4:	dc801117 	ldw	r18,68(sp)
  8094c8:	dc401017 	ldw	r17,64(sp)
  8094cc:	dc000f17 	ldw	r16,60(sp)
  8094d0:	dec01404 	addi	sp,sp,80
  8094d4:	f800283a 	ret
  8094d8:	288010c4 	addi	r2,r5,67
  8094dc:	28800015 	stw	r2,0(r5)
  8094e0:	28800415 	stw	r2,16(r5)
  8094e4:	00800044 	movi	r2,1
  8094e8:	28800515 	stw	r2,20(r5)
  8094ec:	f800283a 	ret
  8094f0:	04801004 	movi	r18,64
  8094f4:	003fe006 	br	809478 <__alt_mem_onchip_mem+0xff801478>
  8094f8:	81000a17 	ldw	r4,40(r16)
  8094fc:	00c02074 	movhi	r3,129
  809500:	18e8c204 	addi	r3,r3,-23800
  809504:	20ffc51e 	bne	r4,r3,80941c <__alt_mem_onchip_mem+0xff80141c>
  809508:	8080030b 	ldhu	r2,12(r16)
  80950c:	04810004 	movi	r18,1024
  809510:	84801315 	stw	r18,76(r16)
  809514:	1484b03a 	or	r2,r2,r18
  809518:	8080030d 	sth	r2,12(r16)
  80951c:	0027883a 	mov	r19,zero
  809520:	003fd806 	br	809484 <__alt_mem_onchip_mem+0xff801484>
  809524:	8140038f 	ldh	r5,14(r16)
  809528:	8809883a 	mov	r4,r17
  80952c:	080b6240 	call	80b624 <_isatty_r>
  809530:	103fe226 	beq	r2,zero,8094bc <__alt_mem_onchip_mem+0xff8014bc>
  809534:	8080030b 	ldhu	r2,12(r16)
  809538:	10800054 	ori	r2,r2,1
  80953c:	8080030d 	sth	r2,12(r16)
  809540:	003fde06 	br	8094bc <__alt_mem_onchip_mem+0xff8014bc>
  809544:	8080030b 	ldhu	r2,12(r16)
  809548:	10c0800c 	andi	r3,r2,512
  80954c:	183fdb1e 	bne	r3,zero,8094bc <__alt_mem_onchip_mem+0xff8014bc>
  809550:	10800094 	ori	r2,r2,2
  809554:	80c010c4 	addi	r3,r16,67
  809558:	8080030d 	sth	r2,12(r16)
  80955c:	00800044 	movi	r2,1
  809560:	80c00015 	stw	r3,0(r16)
  809564:	80c00415 	stw	r3,16(r16)
  809568:	80800515 	stw	r2,20(r16)
  80956c:	003fd306 	br	8094bc <__alt_mem_onchip_mem+0xff8014bc>
  809570:	04810004 	movi	r18,1024
  809574:	003fc306 	br	809484 <__alt_mem_onchip_mem+0xff801484>
  809578:	0027883a 	mov	r19,zero
  80957c:	04810004 	movi	r18,1024
  809580:	003fc006 	br	809484 <__alt_mem_onchip_mem+0xff801484>

00809584 <_malloc_r>:
  809584:	defff504 	addi	sp,sp,-44
  809588:	dc800315 	stw	r18,12(sp)
  80958c:	dfc00a15 	stw	ra,40(sp)
  809590:	df000915 	stw	fp,36(sp)
  809594:	ddc00815 	stw	r23,32(sp)
  809598:	dd800715 	stw	r22,28(sp)
  80959c:	dd400615 	stw	r21,24(sp)
  8095a0:	dd000515 	stw	r20,20(sp)
  8095a4:	dcc00415 	stw	r19,16(sp)
  8095a8:	dc400215 	stw	r17,8(sp)
  8095ac:	dc000115 	stw	r16,4(sp)
  8095b0:	288002c4 	addi	r2,r5,11
  8095b4:	00c00584 	movi	r3,22
  8095b8:	2025883a 	mov	r18,r4
  8095bc:	18807f2e 	bgeu	r3,r2,8097bc <_malloc_r+0x238>
  8095c0:	047ffe04 	movi	r17,-8
  8095c4:	1462703a 	and	r17,r2,r17
  8095c8:	8800a316 	blt	r17,zero,809858 <_malloc_r+0x2d4>
  8095cc:	8940a236 	bltu	r17,r5,809858 <_malloc_r+0x2d4>
  8095d0:	080cad80 	call	80cad8 <__malloc_lock>
  8095d4:	00807dc4 	movi	r2,503
  8095d8:	1441e92e 	bgeu	r2,r17,809d80 <_malloc_r+0x7fc>
  8095dc:	8804d27a 	srli	r2,r17,9
  8095e0:	1000a126 	beq	r2,zero,809868 <_malloc_r+0x2e4>
  8095e4:	00c00104 	movi	r3,4
  8095e8:	18811e36 	bltu	r3,r2,809a64 <_malloc_r+0x4e0>
  8095ec:	8804d1ba 	srli	r2,r17,6
  8095f0:	12000e44 	addi	r8,r2,57
  8095f4:	11c00e04 	addi	r7,r2,56
  8095f8:	4209883a 	add	r4,r8,r8
  8095fc:	04c02074 	movhi	r19,129
  809600:	2109883a 	add	r4,r4,r4
  809604:	9cc35d04 	addi	r19,r19,3444
  809608:	2109883a 	add	r4,r4,r4
  80960c:	9909883a 	add	r4,r19,r4
  809610:	24000117 	ldw	r16,4(r4)
  809614:	213ffe04 	addi	r4,r4,-8
  809618:	24009726 	beq	r4,r16,809878 <_malloc_r+0x2f4>
  80961c:	80800117 	ldw	r2,4(r16)
  809620:	01bfff04 	movi	r6,-4
  809624:	014003c4 	movi	r5,15
  809628:	1184703a 	and	r2,r2,r6
  80962c:	1447c83a 	sub	r3,r2,r17
  809630:	28c00716 	blt	r5,r3,809650 <_malloc_r+0xcc>
  809634:	1800920e 	bge	r3,zero,809880 <_malloc_r+0x2fc>
  809638:	84000317 	ldw	r16,12(r16)
  80963c:	24008e26 	beq	r4,r16,809878 <_malloc_r+0x2f4>
  809640:	80800117 	ldw	r2,4(r16)
  809644:	1184703a 	and	r2,r2,r6
  809648:	1447c83a 	sub	r3,r2,r17
  80964c:	28fff90e 	bge	r5,r3,809634 <__alt_mem_onchip_mem+0xff801634>
  809650:	3809883a 	mov	r4,r7
  809654:	01802074 	movhi	r6,129
  809658:	9c000417 	ldw	r16,16(r19)
  80965c:	31835d04 	addi	r6,r6,3444
  809660:	32000204 	addi	r8,r6,8
  809664:	82013426 	beq	r16,r8,809b38 <_malloc_r+0x5b4>
  809668:	80c00117 	ldw	r3,4(r16)
  80966c:	00bfff04 	movi	r2,-4
  809670:	188e703a 	and	r7,r3,r2
  809674:	3c45c83a 	sub	r2,r7,r17
  809678:	00c003c4 	movi	r3,15
  80967c:	18811f16 	blt	r3,r2,809afc <_malloc_r+0x578>
  809680:	32000515 	stw	r8,20(r6)
  809684:	32000415 	stw	r8,16(r6)
  809688:	10007f0e 	bge	r2,zero,809888 <_malloc_r+0x304>
  80968c:	00807fc4 	movi	r2,511
  809690:	11c0fd36 	bltu	r2,r7,809a88 <_malloc_r+0x504>
  809694:	3806d0fa 	srli	r3,r7,3
  809698:	01c00044 	movi	r7,1
  80969c:	30800117 	ldw	r2,4(r6)
  8096a0:	19400044 	addi	r5,r3,1
  8096a4:	294b883a 	add	r5,r5,r5
  8096a8:	1807d0ba 	srai	r3,r3,2
  8096ac:	294b883a 	add	r5,r5,r5
  8096b0:	294b883a 	add	r5,r5,r5
  8096b4:	298b883a 	add	r5,r5,r6
  8096b8:	38c6983a 	sll	r3,r7,r3
  8096bc:	29c00017 	ldw	r7,0(r5)
  8096c0:	2a7ffe04 	addi	r9,r5,-8
  8096c4:	1886b03a 	or	r3,r3,r2
  8096c8:	82400315 	stw	r9,12(r16)
  8096cc:	81c00215 	stw	r7,8(r16)
  8096d0:	30c00115 	stw	r3,4(r6)
  8096d4:	2c000015 	stw	r16,0(r5)
  8096d8:	3c000315 	stw	r16,12(r7)
  8096dc:	2005d0ba 	srai	r2,r4,2
  8096e0:	01400044 	movi	r5,1
  8096e4:	288a983a 	sll	r5,r5,r2
  8096e8:	19406f36 	bltu	r3,r5,8098a8 <_malloc_r+0x324>
  8096ec:	28c4703a 	and	r2,r5,r3
  8096f0:	10000a1e 	bne	r2,zero,80971c <_malloc_r+0x198>
  8096f4:	00bfff04 	movi	r2,-4
  8096f8:	294b883a 	add	r5,r5,r5
  8096fc:	2088703a 	and	r4,r4,r2
  809700:	28c4703a 	and	r2,r5,r3
  809704:	21000104 	addi	r4,r4,4
  809708:	1000041e 	bne	r2,zero,80971c <_malloc_r+0x198>
  80970c:	294b883a 	add	r5,r5,r5
  809710:	28c4703a 	and	r2,r5,r3
  809714:	21000104 	addi	r4,r4,4
  809718:	103ffc26 	beq	r2,zero,80970c <__alt_mem_onchip_mem+0xff80170c>
  80971c:	02bfff04 	movi	r10,-4
  809720:	024003c4 	movi	r9,15
  809724:	21800044 	addi	r6,r4,1
  809728:	318d883a 	add	r6,r6,r6
  80972c:	318d883a 	add	r6,r6,r6
  809730:	318d883a 	add	r6,r6,r6
  809734:	998d883a 	add	r6,r19,r6
  809738:	333ffe04 	addi	r12,r6,-8
  80973c:	2017883a 	mov	r11,r4
  809740:	31800104 	addi	r6,r6,4
  809744:	34000017 	ldw	r16,0(r6)
  809748:	31fffd04 	addi	r7,r6,-12
  80974c:	81c0041e 	bne	r16,r7,809760 <_malloc_r+0x1dc>
  809750:	0000fb06 	br	809b40 <_malloc_r+0x5bc>
  809754:	1801030e 	bge	r3,zero,809b64 <_malloc_r+0x5e0>
  809758:	84000317 	ldw	r16,12(r16)
  80975c:	81c0f826 	beq	r16,r7,809b40 <_malloc_r+0x5bc>
  809760:	80800117 	ldw	r2,4(r16)
  809764:	1284703a 	and	r2,r2,r10
  809768:	1447c83a 	sub	r3,r2,r17
  80976c:	48fff90e 	bge	r9,r3,809754 <__alt_mem_onchip_mem+0xff801754>
  809770:	80800317 	ldw	r2,12(r16)
  809774:	81000217 	ldw	r4,8(r16)
  809778:	89400054 	ori	r5,r17,1
  80977c:	81400115 	stw	r5,4(r16)
  809780:	20800315 	stw	r2,12(r4)
  809784:	11000215 	stw	r4,8(r2)
  809788:	8463883a 	add	r17,r16,r17
  80978c:	9c400515 	stw	r17,20(r19)
  809790:	9c400415 	stw	r17,16(r19)
  809794:	18800054 	ori	r2,r3,1
  809798:	88800115 	stw	r2,4(r17)
  80979c:	8a000315 	stw	r8,12(r17)
  8097a0:	8a000215 	stw	r8,8(r17)
  8097a4:	88e3883a 	add	r17,r17,r3
  8097a8:	88c00015 	stw	r3,0(r17)
  8097ac:	9009883a 	mov	r4,r18
  8097b0:	080cafc0 	call	80cafc <__malloc_unlock>
  8097b4:	80800204 	addi	r2,r16,8
  8097b8:	00001b06 	br	809828 <_malloc_r+0x2a4>
  8097bc:	04400404 	movi	r17,16
  8097c0:	89402536 	bltu	r17,r5,809858 <_malloc_r+0x2d4>
  8097c4:	080cad80 	call	80cad8 <__malloc_lock>
  8097c8:	00800184 	movi	r2,6
  8097cc:	01000084 	movi	r4,2
  8097d0:	04c02074 	movhi	r19,129
  8097d4:	1085883a 	add	r2,r2,r2
  8097d8:	9cc35d04 	addi	r19,r19,3444
  8097dc:	1085883a 	add	r2,r2,r2
  8097e0:	9885883a 	add	r2,r19,r2
  8097e4:	14000117 	ldw	r16,4(r2)
  8097e8:	10fffe04 	addi	r3,r2,-8
  8097ec:	80c0d926 	beq	r16,r3,809b54 <_malloc_r+0x5d0>
  8097f0:	80c00117 	ldw	r3,4(r16)
  8097f4:	81000317 	ldw	r4,12(r16)
  8097f8:	00bfff04 	movi	r2,-4
  8097fc:	1884703a 	and	r2,r3,r2
  809800:	81400217 	ldw	r5,8(r16)
  809804:	8085883a 	add	r2,r16,r2
  809808:	10c00117 	ldw	r3,4(r2)
  80980c:	29000315 	stw	r4,12(r5)
  809810:	21400215 	stw	r5,8(r4)
  809814:	18c00054 	ori	r3,r3,1
  809818:	10c00115 	stw	r3,4(r2)
  80981c:	9009883a 	mov	r4,r18
  809820:	080cafc0 	call	80cafc <__malloc_unlock>
  809824:	80800204 	addi	r2,r16,8
  809828:	dfc00a17 	ldw	ra,40(sp)
  80982c:	df000917 	ldw	fp,36(sp)
  809830:	ddc00817 	ldw	r23,32(sp)
  809834:	dd800717 	ldw	r22,28(sp)
  809838:	dd400617 	ldw	r21,24(sp)
  80983c:	dd000517 	ldw	r20,20(sp)
  809840:	dcc00417 	ldw	r19,16(sp)
  809844:	dc800317 	ldw	r18,12(sp)
  809848:	dc400217 	ldw	r17,8(sp)
  80984c:	dc000117 	ldw	r16,4(sp)
  809850:	dec00b04 	addi	sp,sp,44
  809854:	f800283a 	ret
  809858:	00800304 	movi	r2,12
  80985c:	90800015 	stw	r2,0(r18)
  809860:	0005883a 	mov	r2,zero
  809864:	003ff006 	br	809828 <__alt_mem_onchip_mem+0xff801828>
  809868:	01002004 	movi	r4,128
  80986c:	02001004 	movi	r8,64
  809870:	01c00fc4 	movi	r7,63
  809874:	003f6106 	br	8095fc <__alt_mem_onchip_mem+0xff8015fc>
  809878:	4009883a 	mov	r4,r8
  80987c:	003f7506 	br	809654 <__alt_mem_onchip_mem+0xff801654>
  809880:	81000317 	ldw	r4,12(r16)
  809884:	003fde06 	br	809800 <__alt_mem_onchip_mem+0xff801800>
  809888:	81c5883a 	add	r2,r16,r7
  80988c:	11400117 	ldw	r5,4(r2)
  809890:	9009883a 	mov	r4,r18
  809894:	29400054 	ori	r5,r5,1
  809898:	11400115 	stw	r5,4(r2)
  80989c:	080cafc0 	call	80cafc <__malloc_unlock>
  8098a0:	80800204 	addi	r2,r16,8
  8098a4:	003fe006 	br	809828 <__alt_mem_onchip_mem+0xff801828>
  8098a8:	9c000217 	ldw	r16,8(r19)
  8098ac:	00bfff04 	movi	r2,-4
  8098b0:	85800117 	ldw	r22,4(r16)
  8098b4:	b0ac703a 	and	r22,r22,r2
  8098b8:	b4400336 	bltu	r22,r17,8098c8 <_malloc_r+0x344>
  8098bc:	b445c83a 	sub	r2,r22,r17
  8098c0:	00c003c4 	movi	r3,15
  8098c4:	18805d16 	blt	r3,r2,809a3c <_malloc_r+0x4b8>
  8098c8:	05c02074 	movhi	r23,129
  8098cc:	00802074 	movhi	r2,129
  8098d0:	10908904 	addi	r2,r2,16932
  8098d4:	bdc95d04 	addi	r23,r23,9588
  8098d8:	15400017 	ldw	r21,0(r2)
  8098dc:	b8c00017 	ldw	r3,0(r23)
  8098e0:	00bfffc4 	movi	r2,-1
  8098e4:	858d883a 	add	r6,r16,r22
  8098e8:	8d6b883a 	add	r21,r17,r21
  8098ec:	1880ea26 	beq	r3,r2,809c98 <_malloc_r+0x714>
  8098f0:	ad4403c4 	addi	r21,r21,4111
  8098f4:	00bc0004 	movi	r2,-4096
  8098f8:	a8aa703a 	and	r21,r21,r2
  8098fc:	a80b883a 	mov	r5,r21
  809900:	9009883a 	mov	r4,r18
  809904:	d9800015 	stw	r6,0(sp)
  809908:	080a1dc0 	call	80a1dc <_sbrk_r>
  80990c:	1029883a 	mov	r20,r2
  809910:	00bfffc4 	movi	r2,-1
  809914:	d9800017 	ldw	r6,0(sp)
  809918:	a080e826 	beq	r20,r2,809cbc <_malloc_r+0x738>
  80991c:	a180a636 	bltu	r20,r6,809bb8 <_malloc_r+0x634>
  809920:	07002074 	movhi	fp,129
  809924:	e7109104 	addi	fp,fp,16964
  809928:	e0800017 	ldw	r2,0(fp)
  80992c:	a887883a 	add	r3,r21,r2
  809930:	e0c00015 	stw	r3,0(fp)
  809934:	3500e626 	beq	r6,r20,809cd0 <_malloc_r+0x74c>
  809938:	b9000017 	ldw	r4,0(r23)
  80993c:	00bfffc4 	movi	r2,-1
  809940:	2080ee26 	beq	r4,r2,809cfc <_malloc_r+0x778>
  809944:	a185c83a 	sub	r2,r20,r6
  809948:	10c5883a 	add	r2,r2,r3
  80994c:	e0800015 	stw	r2,0(fp)
  809950:	a0c001cc 	andi	r3,r20,7
  809954:	1800bc26 	beq	r3,zero,809c48 <_malloc_r+0x6c4>
  809958:	a0e9c83a 	sub	r20,r20,r3
  80995c:	00840204 	movi	r2,4104
  809960:	a5000204 	addi	r20,r20,8
  809964:	10c7c83a 	sub	r3,r2,r3
  809968:	a545883a 	add	r2,r20,r21
  80996c:	1083ffcc 	andi	r2,r2,4095
  809970:	18abc83a 	sub	r21,r3,r2
  809974:	a80b883a 	mov	r5,r21
  809978:	9009883a 	mov	r4,r18
  80997c:	080a1dc0 	call	80a1dc <_sbrk_r>
  809980:	00ffffc4 	movi	r3,-1
  809984:	10c0e126 	beq	r2,r3,809d0c <_malloc_r+0x788>
  809988:	1505c83a 	sub	r2,r2,r20
  80998c:	1545883a 	add	r2,r2,r21
  809990:	10800054 	ori	r2,r2,1
  809994:	e0c00017 	ldw	r3,0(fp)
  809998:	9d000215 	stw	r20,8(r19)
  80999c:	a0800115 	stw	r2,4(r20)
  8099a0:	a8c7883a 	add	r3,r21,r3
  8099a4:	e0c00015 	stw	r3,0(fp)
  8099a8:	84c00e26 	beq	r16,r19,8099e4 <_malloc_r+0x460>
  8099ac:	018003c4 	movi	r6,15
  8099b0:	3580a72e 	bgeu	r6,r22,809c50 <_malloc_r+0x6cc>
  8099b4:	81400117 	ldw	r5,4(r16)
  8099b8:	013ffe04 	movi	r4,-8
  8099bc:	b0bffd04 	addi	r2,r22,-12
  8099c0:	1104703a 	and	r2,r2,r4
  8099c4:	2900004c 	andi	r4,r5,1
  8099c8:	2088b03a 	or	r4,r4,r2
  8099cc:	81000115 	stw	r4,4(r16)
  8099d0:	01400144 	movi	r5,5
  8099d4:	8089883a 	add	r4,r16,r2
  8099d8:	21400115 	stw	r5,4(r4)
  8099dc:	21400215 	stw	r5,8(r4)
  8099e0:	3080cd36 	bltu	r6,r2,809d18 <_malloc_r+0x794>
  8099e4:	00802074 	movhi	r2,129
  8099e8:	10908804 	addi	r2,r2,16928
  8099ec:	11000017 	ldw	r4,0(r2)
  8099f0:	20c0012e 	bgeu	r4,r3,8099f8 <_malloc_r+0x474>
  8099f4:	10c00015 	stw	r3,0(r2)
  8099f8:	00802074 	movhi	r2,129
  8099fc:	10908704 	addi	r2,r2,16924
  809a00:	11000017 	ldw	r4,0(r2)
  809a04:	9c000217 	ldw	r16,8(r19)
  809a08:	20c0012e 	bgeu	r4,r3,809a10 <_malloc_r+0x48c>
  809a0c:	10c00015 	stw	r3,0(r2)
  809a10:	80c00117 	ldw	r3,4(r16)
  809a14:	00bfff04 	movi	r2,-4
  809a18:	1886703a 	and	r3,r3,r2
  809a1c:	1c45c83a 	sub	r2,r3,r17
  809a20:	1c400236 	bltu	r3,r17,809a2c <_malloc_r+0x4a8>
  809a24:	00c003c4 	movi	r3,15
  809a28:	18800416 	blt	r3,r2,809a3c <_malloc_r+0x4b8>
  809a2c:	9009883a 	mov	r4,r18
  809a30:	080cafc0 	call	80cafc <__malloc_unlock>
  809a34:	0005883a 	mov	r2,zero
  809a38:	003f7b06 	br	809828 <__alt_mem_onchip_mem+0xff801828>
  809a3c:	88c00054 	ori	r3,r17,1
  809a40:	80c00115 	stw	r3,4(r16)
  809a44:	8463883a 	add	r17,r16,r17
  809a48:	10800054 	ori	r2,r2,1
  809a4c:	9c400215 	stw	r17,8(r19)
  809a50:	88800115 	stw	r2,4(r17)
  809a54:	9009883a 	mov	r4,r18
  809a58:	080cafc0 	call	80cafc <__malloc_unlock>
  809a5c:	80800204 	addi	r2,r16,8
  809a60:	003f7106 	br	809828 <__alt_mem_onchip_mem+0xff801828>
  809a64:	00c00504 	movi	r3,20
  809a68:	18804a2e 	bgeu	r3,r2,809b94 <_malloc_r+0x610>
  809a6c:	00c01504 	movi	r3,84
  809a70:	18806e36 	bltu	r3,r2,809c2c <_malloc_r+0x6a8>
  809a74:	8804d33a 	srli	r2,r17,12
  809a78:	12001bc4 	addi	r8,r2,111
  809a7c:	11c01b84 	addi	r7,r2,110
  809a80:	4209883a 	add	r4,r8,r8
  809a84:	003edd06 	br	8095fc <__alt_mem_onchip_mem+0xff8015fc>
  809a88:	3804d27a 	srli	r2,r7,9
  809a8c:	00c00104 	movi	r3,4
  809a90:	1880442e 	bgeu	r3,r2,809ba4 <_malloc_r+0x620>
  809a94:	00c00504 	movi	r3,20
  809a98:	18808136 	bltu	r3,r2,809ca0 <_malloc_r+0x71c>
  809a9c:	11401704 	addi	r5,r2,92
  809aa0:	10c016c4 	addi	r3,r2,91
  809aa4:	294b883a 	add	r5,r5,r5
  809aa8:	294b883a 	add	r5,r5,r5
  809aac:	294b883a 	add	r5,r5,r5
  809ab0:	994b883a 	add	r5,r19,r5
  809ab4:	28800017 	ldw	r2,0(r5)
  809ab8:	01802074 	movhi	r6,129
  809abc:	297ffe04 	addi	r5,r5,-8
  809ac0:	31835d04 	addi	r6,r6,3444
  809ac4:	28806526 	beq	r5,r2,809c5c <_malloc_r+0x6d8>
  809ac8:	01bfff04 	movi	r6,-4
  809acc:	10c00117 	ldw	r3,4(r2)
  809ad0:	1986703a 	and	r3,r3,r6
  809ad4:	38c0022e 	bgeu	r7,r3,809ae0 <_malloc_r+0x55c>
  809ad8:	10800217 	ldw	r2,8(r2)
  809adc:	28bffb1e 	bne	r5,r2,809acc <__alt_mem_onchip_mem+0xff801acc>
  809ae0:	11400317 	ldw	r5,12(r2)
  809ae4:	98c00117 	ldw	r3,4(r19)
  809ae8:	81400315 	stw	r5,12(r16)
  809aec:	80800215 	stw	r2,8(r16)
  809af0:	2c000215 	stw	r16,8(r5)
  809af4:	14000315 	stw	r16,12(r2)
  809af8:	003ef806 	br	8096dc <__alt_mem_onchip_mem+0xff8016dc>
  809afc:	88c00054 	ori	r3,r17,1
  809b00:	80c00115 	stw	r3,4(r16)
  809b04:	8463883a 	add	r17,r16,r17
  809b08:	34400515 	stw	r17,20(r6)
  809b0c:	34400415 	stw	r17,16(r6)
  809b10:	10c00054 	ori	r3,r2,1
  809b14:	8a000315 	stw	r8,12(r17)
  809b18:	8a000215 	stw	r8,8(r17)
  809b1c:	88c00115 	stw	r3,4(r17)
  809b20:	88a3883a 	add	r17,r17,r2
  809b24:	88800015 	stw	r2,0(r17)
  809b28:	9009883a 	mov	r4,r18
  809b2c:	080cafc0 	call	80cafc <__malloc_unlock>
  809b30:	80800204 	addi	r2,r16,8
  809b34:	003f3c06 	br	809828 <__alt_mem_onchip_mem+0xff801828>
  809b38:	30c00117 	ldw	r3,4(r6)
  809b3c:	003ee706 	br	8096dc <__alt_mem_onchip_mem+0xff8016dc>
  809b40:	5ac00044 	addi	r11,r11,1
  809b44:	588000cc 	andi	r2,r11,3
  809b48:	31800204 	addi	r6,r6,8
  809b4c:	103efd1e 	bne	r2,zero,809744 <__alt_mem_onchip_mem+0xff801744>
  809b50:	00002406 	br	809be4 <_malloc_r+0x660>
  809b54:	14000317 	ldw	r16,12(r2)
  809b58:	143f251e 	bne	r2,r16,8097f0 <__alt_mem_onchip_mem+0xff8017f0>
  809b5c:	21000084 	addi	r4,r4,2
  809b60:	003ebc06 	br	809654 <__alt_mem_onchip_mem+0xff801654>
  809b64:	8085883a 	add	r2,r16,r2
  809b68:	10c00117 	ldw	r3,4(r2)
  809b6c:	81000317 	ldw	r4,12(r16)
  809b70:	81400217 	ldw	r5,8(r16)
  809b74:	18c00054 	ori	r3,r3,1
  809b78:	10c00115 	stw	r3,4(r2)
  809b7c:	29000315 	stw	r4,12(r5)
  809b80:	21400215 	stw	r5,8(r4)
  809b84:	9009883a 	mov	r4,r18
  809b88:	080cafc0 	call	80cafc <__malloc_unlock>
  809b8c:	80800204 	addi	r2,r16,8
  809b90:	003f2506 	br	809828 <__alt_mem_onchip_mem+0xff801828>
  809b94:	12001704 	addi	r8,r2,92
  809b98:	11c016c4 	addi	r7,r2,91
  809b9c:	4209883a 	add	r4,r8,r8
  809ba0:	003e9606 	br	8095fc <__alt_mem_onchip_mem+0xff8015fc>
  809ba4:	3804d1ba 	srli	r2,r7,6
  809ba8:	11400e44 	addi	r5,r2,57
  809bac:	10c00e04 	addi	r3,r2,56
  809bb0:	294b883a 	add	r5,r5,r5
  809bb4:	003fbc06 	br	809aa8 <__alt_mem_onchip_mem+0xff801aa8>
  809bb8:	84ff5926 	beq	r16,r19,809920 <__alt_mem_onchip_mem+0xff801920>
  809bbc:	00802074 	movhi	r2,129
  809bc0:	10835d04 	addi	r2,r2,3444
  809bc4:	14000217 	ldw	r16,8(r2)
  809bc8:	00bfff04 	movi	r2,-4
  809bcc:	80c00117 	ldw	r3,4(r16)
  809bd0:	1886703a 	and	r3,r3,r2
  809bd4:	003f9106 	br	809a1c <__alt_mem_onchip_mem+0xff801a1c>
  809bd8:	60800217 	ldw	r2,8(r12)
  809bdc:	213fffc4 	addi	r4,r4,-1
  809be0:	1300651e 	bne	r2,r12,809d78 <_malloc_r+0x7f4>
  809be4:	208000cc 	andi	r2,r4,3
  809be8:	633ffe04 	addi	r12,r12,-8
  809bec:	103ffa1e 	bne	r2,zero,809bd8 <__alt_mem_onchip_mem+0xff801bd8>
  809bf0:	98800117 	ldw	r2,4(r19)
  809bf4:	0146303a 	nor	r3,zero,r5
  809bf8:	1884703a 	and	r2,r3,r2
  809bfc:	98800115 	stw	r2,4(r19)
  809c00:	294b883a 	add	r5,r5,r5
  809c04:	117f2836 	bltu	r2,r5,8098a8 <__alt_mem_onchip_mem+0xff8018a8>
  809c08:	283f2726 	beq	r5,zero,8098a8 <__alt_mem_onchip_mem+0xff8018a8>
  809c0c:	2886703a 	and	r3,r5,r2
  809c10:	5809883a 	mov	r4,r11
  809c14:	183ec31e 	bne	r3,zero,809724 <__alt_mem_onchip_mem+0xff801724>
  809c18:	294b883a 	add	r5,r5,r5
  809c1c:	2886703a 	and	r3,r5,r2
  809c20:	21000104 	addi	r4,r4,4
  809c24:	183ffc26 	beq	r3,zero,809c18 <__alt_mem_onchip_mem+0xff801c18>
  809c28:	003ebe06 	br	809724 <__alt_mem_onchip_mem+0xff801724>
  809c2c:	00c05504 	movi	r3,340
  809c30:	18801236 	bltu	r3,r2,809c7c <_malloc_r+0x6f8>
  809c34:	8804d3fa 	srli	r2,r17,15
  809c38:	12001e04 	addi	r8,r2,120
  809c3c:	11c01dc4 	addi	r7,r2,119
  809c40:	4209883a 	add	r4,r8,r8
  809c44:	003e6d06 	br	8095fc <__alt_mem_onchip_mem+0xff8015fc>
  809c48:	00c40004 	movi	r3,4096
  809c4c:	003f4606 	br	809968 <__alt_mem_onchip_mem+0xff801968>
  809c50:	00800044 	movi	r2,1
  809c54:	a0800115 	stw	r2,4(r20)
  809c58:	003f7406 	br	809a2c <__alt_mem_onchip_mem+0xff801a2c>
  809c5c:	1805d0ba 	srai	r2,r3,2
  809c60:	01c00044 	movi	r7,1
  809c64:	30c00117 	ldw	r3,4(r6)
  809c68:	388e983a 	sll	r7,r7,r2
  809c6c:	2805883a 	mov	r2,r5
  809c70:	38c6b03a 	or	r3,r7,r3
  809c74:	30c00115 	stw	r3,4(r6)
  809c78:	003f9b06 	br	809ae8 <__alt_mem_onchip_mem+0xff801ae8>
  809c7c:	00c15504 	movi	r3,1364
  809c80:	18801a36 	bltu	r3,r2,809cec <_malloc_r+0x768>
  809c84:	8804d4ba 	srli	r2,r17,18
  809c88:	12001f44 	addi	r8,r2,125
  809c8c:	11c01f04 	addi	r7,r2,124
  809c90:	4209883a 	add	r4,r8,r8
  809c94:	003e5906 	br	8095fc <__alt_mem_onchip_mem+0xff8015fc>
  809c98:	ad400404 	addi	r21,r21,16
  809c9c:	003f1706 	br	8098fc <__alt_mem_onchip_mem+0xff8018fc>
  809ca0:	00c01504 	movi	r3,84
  809ca4:	18802336 	bltu	r3,r2,809d34 <_malloc_r+0x7b0>
  809ca8:	3804d33a 	srli	r2,r7,12
  809cac:	11401bc4 	addi	r5,r2,111
  809cb0:	10c01b84 	addi	r3,r2,110
  809cb4:	294b883a 	add	r5,r5,r5
  809cb8:	003f7b06 	br	809aa8 <__alt_mem_onchip_mem+0xff801aa8>
  809cbc:	9c000217 	ldw	r16,8(r19)
  809cc0:	00bfff04 	movi	r2,-4
  809cc4:	80c00117 	ldw	r3,4(r16)
  809cc8:	1886703a 	and	r3,r3,r2
  809ccc:	003f5306 	br	809a1c <__alt_mem_onchip_mem+0xff801a1c>
  809cd0:	3083ffcc 	andi	r2,r6,4095
  809cd4:	103f181e 	bne	r2,zero,809938 <__alt_mem_onchip_mem+0xff801938>
  809cd8:	99000217 	ldw	r4,8(r19)
  809cdc:	b545883a 	add	r2,r22,r21
  809ce0:	10800054 	ori	r2,r2,1
  809ce4:	20800115 	stw	r2,4(r4)
  809ce8:	003f3e06 	br	8099e4 <__alt_mem_onchip_mem+0xff8019e4>
  809cec:	01003f84 	movi	r4,254
  809cf0:	02001fc4 	movi	r8,127
  809cf4:	01c01f84 	movi	r7,126
  809cf8:	003e4006 	br	8095fc <__alt_mem_onchip_mem+0xff8015fc>
  809cfc:	00802074 	movhi	r2,129
  809d00:	10895d04 	addi	r2,r2,9588
  809d04:	15000015 	stw	r20,0(r2)
  809d08:	003f1106 	br	809950 <__alt_mem_onchip_mem+0xff801950>
  809d0c:	00800044 	movi	r2,1
  809d10:	002b883a 	mov	r21,zero
  809d14:	003f1f06 	br	809994 <__alt_mem_onchip_mem+0xff801994>
  809d18:	81400204 	addi	r5,r16,8
  809d1c:	9009883a 	mov	r4,r18
  809d20:	080acd00 	call	80acd0 <_free_r>
  809d24:	00802074 	movhi	r2,129
  809d28:	10909104 	addi	r2,r2,16964
  809d2c:	10c00017 	ldw	r3,0(r2)
  809d30:	003f2c06 	br	8099e4 <__alt_mem_onchip_mem+0xff8019e4>
  809d34:	00c05504 	movi	r3,340
  809d38:	18800536 	bltu	r3,r2,809d50 <_malloc_r+0x7cc>
  809d3c:	3804d3fa 	srli	r2,r7,15
  809d40:	11401e04 	addi	r5,r2,120
  809d44:	10c01dc4 	addi	r3,r2,119
  809d48:	294b883a 	add	r5,r5,r5
  809d4c:	003f5606 	br	809aa8 <__alt_mem_onchip_mem+0xff801aa8>
  809d50:	00c15504 	movi	r3,1364
  809d54:	18800536 	bltu	r3,r2,809d6c <_malloc_r+0x7e8>
  809d58:	3804d4ba 	srli	r2,r7,18
  809d5c:	11401f44 	addi	r5,r2,125
  809d60:	10c01f04 	addi	r3,r2,124
  809d64:	294b883a 	add	r5,r5,r5
  809d68:	003f4f06 	br	809aa8 <__alt_mem_onchip_mem+0xff801aa8>
  809d6c:	01403f84 	movi	r5,254
  809d70:	00c01f84 	movi	r3,126
  809d74:	003f4c06 	br	809aa8 <__alt_mem_onchip_mem+0xff801aa8>
  809d78:	98800117 	ldw	r2,4(r19)
  809d7c:	003fa006 	br	809c00 <__alt_mem_onchip_mem+0xff801c00>
  809d80:	8808d0fa 	srli	r4,r17,3
  809d84:	20800044 	addi	r2,r4,1
  809d88:	1085883a 	add	r2,r2,r2
  809d8c:	003e9006 	br	8097d0 <__alt_mem_onchip_mem+0xff8017d0>

00809d90 <memset>:
  809d90:	20c000cc 	andi	r3,r4,3
  809d94:	2005883a 	mov	r2,r4
  809d98:	18004426 	beq	r3,zero,809eac <memset+0x11c>
  809d9c:	31ffffc4 	addi	r7,r6,-1
  809da0:	30004026 	beq	r6,zero,809ea4 <memset+0x114>
  809da4:	2813883a 	mov	r9,r5
  809da8:	200d883a 	mov	r6,r4
  809dac:	2007883a 	mov	r3,r4
  809db0:	00000406 	br	809dc4 <memset+0x34>
  809db4:	3a3fffc4 	addi	r8,r7,-1
  809db8:	31800044 	addi	r6,r6,1
  809dbc:	38003926 	beq	r7,zero,809ea4 <memset+0x114>
  809dc0:	400f883a 	mov	r7,r8
  809dc4:	18c00044 	addi	r3,r3,1
  809dc8:	32400005 	stb	r9,0(r6)
  809dcc:	1a0000cc 	andi	r8,r3,3
  809dd0:	403ff81e 	bne	r8,zero,809db4 <__alt_mem_onchip_mem+0xff801db4>
  809dd4:	010000c4 	movi	r4,3
  809dd8:	21c02d2e 	bgeu	r4,r7,809e90 <memset+0x100>
  809ddc:	29003fcc 	andi	r4,r5,255
  809de0:	200c923a 	slli	r6,r4,8
  809de4:	3108b03a 	or	r4,r6,r4
  809de8:	200c943a 	slli	r6,r4,16
  809dec:	218cb03a 	or	r6,r4,r6
  809df0:	010003c4 	movi	r4,15
  809df4:	21c0182e 	bgeu	r4,r7,809e58 <memset+0xc8>
  809df8:	3b3ffc04 	addi	r12,r7,-16
  809dfc:	6018d13a 	srli	r12,r12,4
  809e00:	1a000104 	addi	r8,r3,4
  809e04:	1ac00204 	addi	r11,r3,8
  809e08:	6008913a 	slli	r4,r12,4
  809e0c:	1a800304 	addi	r10,r3,12
  809e10:	1813883a 	mov	r9,r3
  809e14:	21000504 	addi	r4,r4,20
  809e18:	1909883a 	add	r4,r3,r4
  809e1c:	49800015 	stw	r6,0(r9)
  809e20:	41800015 	stw	r6,0(r8)
  809e24:	59800015 	stw	r6,0(r11)
  809e28:	51800015 	stw	r6,0(r10)
  809e2c:	42000404 	addi	r8,r8,16
  809e30:	4a400404 	addi	r9,r9,16
  809e34:	5ac00404 	addi	r11,r11,16
  809e38:	52800404 	addi	r10,r10,16
  809e3c:	413ff71e 	bne	r8,r4,809e1c <__alt_mem_onchip_mem+0xff801e1c>
  809e40:	63000044 	addi	r12,r12,1
  809e44:	6018913a 	slli	r12,r12,4
  809e48:	39c003cc 	andi	r7,r7,15
  809e4c:	010000c4 	movi	r4,3
  809e50:	1b07883a 	add	r3,r3,r12
  809e54:	21c00e2e 	bgeu	r4,r7,809e90 <memset+0x100>
  809e58:	1813883a 	mov	r9,r3
  809e5c:	3811883a 	mov	r8,r7
  809e60:	010000c4 	movi	r4,3
  809e64:	49800015 	stw	r6,0(r9)
  809e68:	423fff04 	addi	r8,r8,-4
  809e6c:	4a400104 	addi	r9,r9,4
  809e70:	223ffc36 	bltu	r4,r8,809e64 <__alt_mem_onchip_mem+0xff801e64>
  809e74:	393fff04 	addi	r4,r7,-4
  809e78:	2008d0ba 	srli	r4,r4,2
  809e7c:	39c000cc 	andi	r7,r7,3
  809e80:	21000044 	addi	r4,r4,1
  809e84:	2109883a 	add	r4,r4,r4
  809e88:	2109883a 	add	r4,r4,r4
  809e8c:	1907883a 	add	r3,r3,r4
  809e90:	38000526 	beq	r7,zero,809ea8 <memset+0x118>
  809e94:	19cf883a 	add	r7,r3,r7
  809e98:	19400005 	stb	r5,0(r3)
  809e9c:	18c00044 	addi	r3,r3,1
  809ea0:	38fffd1e 	bne	r7,r3,809e98 <__alt_mem_onchip_mem+0xff801e98>
  809ea4:	f800283a 	ret
  809ea8:	f800283a 	ret
  809eac:	2007883a 	mov	r3,r4
  809eb0:	300f883a 	mov	r7,r6
  809eb4:	003fc706 	br	809dd4 <__alt_mem_onchip_mem+0xff801dd4>

00809eb8 <_open_r>:
  809eb8:	defffd04 	addi	sp,sp,-12
  809ebc:	2805883a 	mov	r2,r5
  809ec0:	dc000015 	stw	r16,0(sp)
  809ec4:	04002074 	movhi	r16,129
  809ec8:	dc400115 	stw	r17,4(sp)
  809ecc:	300b883a 	mov	r5,r6
  809ed0:	84108604 	addi	r16,r16,16920
  809ed4:	2023883a 	mov	r17,r4
  809ed8:	380d883a 	mov	r6,r7
  809edc:	1009883a 	mov	r4,r2
  809ee0:	dfc00215 	stw	ra,8(sp)
  809ee4:	80000015 	stw	zero,0(r16)
  809ee8:	080cc200 	call	80cc20 <open>
  809eec:	00ffffc4 	movi	r3,-1
  809ef0:	10c00526 	beq	r2,r3,809f08 <_open_r+0x50>
  809ef4:	dfc00217 	ldw	ra,8(sp)
  809ef8:	dc400117 	ldw	r17,4(sp)
  809efc:	dc000017 	ldw	r16,0(sp)
  809f00:	dec00304 	addi	sp,sp,12
  809f04:	f800283a 	ret
  809f08:	80c00017 	ldw	r3,0(r16)
  809f0c:	183ff926 	beq	r3,zero,809ef4 <__alt_mem_onchip_mem+0xff801ef4>
  809f10:	88c00015 	stw	r3,0(r17)
  809f14:	003ff706 	br	809ef4 <__alt_mem_onchip_mem+0xff801ef4>

00809f18 <_puts_r>:
  809f18:	defff604 	addi	sp,sp,-40
  809f1c:	dc000715 	stw	r16,28(sp)
  809f20:	2021883a 	mov	r16,r4
  809f24:	2809883a 	mov	r4,r5
  809f28:	dc400815 	stw	r17,32(sp)
  809f2c:	dfc00915 	stw	ra,36(sp)
  809f30:	2823883a 	mov	r17,r5
  809f34:	080a36c0 	call	80a36c <strlen>
  809f38:	10c00044 	addi	r3,r2,1
  809f3c:	d8800115 	stw	r2,4(sp)
  809f40:	00802074 	movhi	r2,129
  809f44:	1081a204 	addi	r2,r2,1672
  809f48:	d8800215 	stw	r2,8(sp)
  809f4c:	00800044 	movi	r2,1
  809f50:	d8800315 	stw	r2,12(sp)
  809f54:	00800084 	movi	r2,2
  809f58:	dc400015 	stw	r17,0(sp)
  809f5c:	d8c00615 	stw	r3,24(sp)
  809f60:	dec00415 	stw	sp,16(sp)
  809f64:	d8800515 	stw	r2,20(sp)
  809f68:	80000226 	beq	r16,zero,809f74 <_puts_r+0x5c>
  809f6c:	80800e17 	ldw	r2,56(r16)
  809f70:	10001426 	beq	r2,zero,809fc4 <_puts_r+0xac>
  809f74:	81400217 	ldw	r5,8(r16)
  809f78:	2880030b 	ldhu	r2,12(r5)
  809f7c:	10c8000c 	andi	r3,r2,8192
  809f80:	1800061e 	bne	r3,zero,809f9c <_puts_r+0x84>
  809f84:	29001917 	ldw	r4,100(r5)
  809f88:	00f7ffc4 	movi	r3,-8193
  809f8c:	10880014 	ori	r2,r2,8192
  809f90:	20c6703a 	and	r3,r4,r3
  809f94:	2880030d 	sth	r2,12(r5)
  809f98:	28c01915 	stw	r3,100(r5)
  809f9c:	d9800404 	addi	r6,sp,16
  809fa0:	8009883a 	mov	r4,r16
  809fa4:	080afe00 	call	80afe0 <__sfvwrite_r>
  809fa8:	1000091e 	bne	r2,zero,809fd0 <_puts_r+0xb8>
  809fac:	00800284 	movi	r2,10
  809fb0:	dfc00917 	ldw	ra,36(sp)
  809fb4:	dc400817 	ldw	r17,32(sp)
  809fb8:	dc000717 	ldw	r16,28(sp)
  809fbc:	dec00a04 	addi	sp,sp,40
  809fc0:	f800283a 	ret
  809fc4:	8009883a 	mov	r4,r16
  809fc8:	080aab00 	call	80aab0 <__sinit>
  809fcc:	003fe906 	br	809f74 <__alt_mem_onchip_mem+0xff801f74>
  809fd0:	00bfffc4 	movi	r2,-1
  809fd4:	003ff606 	br	809fb0 <__alt_mem_onchip_mem+0xff801fb0>

00809fd8 <puts>:
  809fd8:	00802074 	movhi	r2,129
  809fdc:	10895c04 	addi	r2,r2,9584
  809fe0:	200b883a 	mov	r5,r4
  809fe4:	11000017 	ldw	r4,0(r2)
  809fe8:	0809f181 	jmpi	809f18 <_puts_r>

00809fec <lflush>:
  809fec:	2080030b 	ldhu	r2,12(r4)
  809ff0:	00c00244 	movi	r3,9
  809ff4:	1080024c 	andi	r2,r2,9
  809ff8:	10c00226 	beq	r2,r3,80a004 <lflush+0x18>
  809ffc:	0005883a 	mov	r2,zero
  80a000:	f800283a 	ret
  80a004:	080a7301 	jmpi	80a730 <fflush>

0080a008 <__srefill_r>:
  80a008:	defffc04 	addi	sp,sp,-16
  80a00c:	dc400115 	stw	r17,4(sp)
  80a010:	dc000015 	stw	r16,0(sp)
  80a014:	dfc00315 	stw	ra,12(sp)
  80a018:	dc800215 	stw	r18,8(sp)
  80a01c:	2023883a 	mov	r17,r4
  80a020:	2821883a 	mov	r16,r5
  80a024:	20000226 	beq	r4,zero,80a030 <__srefill_r+0x28>
  80a028:	20800e17 	ldw	r2,56(r4)
  80a02c:	10003c26 	beq	r2,zero,80a120 <__srefill_r+0x118>
  80a030:	80c0030b 	ldhu	r3,12(r16)
  80a034:	1908000c 	andi	r4,r3,8192
  80a038:	1805883a 	mov	r2,r3
  80a03c:	2000071e 	bne	r4,zero,80a05c <__srefill_r+0x54>
  80a040:	81001917 	ldw	r4,100(r16)
  80a044:	18880014 	ori	r2,r3,8192
  80a048:	00f7ffc4 	movi	r3,-8193
  80a04c:	20c8703a 	and	r4,r4,r3
  80a050:	8080030d 	sth	r2,12(r16)
  80a054:	1007883a 	mov	r3,r2
  80a058:	81001915 	stw	r4,100(r16)
  80a05c:	80000115 	stw	zero,4(r16)
  80a060:	1100080c 	andi	r4,r2,32
  80a064:	2000571e 	bne	r4,zero,80a1c4 <__srefill_r+0x1bc>
  80a068:	1100010c 	andi	r4,r2,4
  80a06c:	20001f26 	beq	r4,zero,80a0ec <__srefill_r+0xe4>
  80a070:	81400c17 	ldw	r5,48(r16)
  80a074:	28000826 	beq	r5,zero,80a098 <__srefill_r+0x90>
  80a078:	80801004 	addi	r2,r16,64
  80a07c:	28800226 	beq	r5,r2,80a088 <__srefill_r+0x80>
  80a080:	8809883a 	mov	r4,r17
  80a084:	080acd00 	call	80acd0 <_free_r>
  80a088:	80800f17 	ldw	r2,60(r16)
  80a08c:	80000c15 	stw	zero,48(r16)
  80a090:	80800115 	stw	r2,4(r16)
  80a094:	1000391e 	bne	r2,zero,80a17c <__srefill_r+0x174>
  80a098:	80800417 	ldw	r2,16(r16)
  80a09c:	10004b26 	beq	r2,zero,80a1cc <__srefill_r+0x1c4>
  80a0a0:	8480030b 	ldhu	r18,12(r16)
  80a0a4:	908000cc 	andi	r2,r18,3
  80a0a8:	10001f1e 	bne	r2,zero,80a128 <__srefill_r+0x120>
  80a0ac:	81800417 	ldw	r6,16(r16)
  80a0b0:	80800817 	ldw	r2,32(r16)
  80a0b4:	81c00517 	ldw	r7,20(r16)
  80a0b8:	81400717 	ldw	r5,28(r16)
  80a0bc:	81800015 	stw	r6,0(r16)
  80a0c0:	8809883a 	mov	r4,r17
  80a0c4:	103ee83a 	callr	r2
  80a0c8:	80800115 	stw	r2,4(r16)
  80a0cc:	00800e0e 	bge	zero,r2,80a108 <__srefill_r+0x100>
  80a0d0:	0005883a 	mov	r2,zero
  80a0d4:	dfc00317 	ldw	ra,12(sp)
  80a0d8:	dc800217 	ldw	r18,8(sp)
  80a0dc:	dc400117 	ldw	r17,4(sp)
  80a0e0:	dc000017 	ldw	r16,0(sp)
  80a0e4:	dec00404 	addi	sp,sp,16
  80a0e8:	f800283a 	ret
  80a0ec:	1100040c 	andi	r4,r2,16
  80a0f0:	20003026 	beq	r4,zero,80a1b4 <__srefill_r+0x1ac>
  80a0f4:	1080020c 	andi	r2,r2,8
  80a0f8:	1000241e 	bne	r2,zero,80a18c <__srefill_r+0x184>
  80a0fc:	18c00114 	ori	r3,r3,4
  80a100:	80c0030d 	sth	r3,12(r16)
  80a104:	003fe406 	br	80a098 <__alt_mem_onchip_mem+0xff802098>
  80a108:	80c0030b 	ldhu	r3,12(r16)
  80a10c:	1000161e 	bne	r2,zero,80a168 <__srefill_r+0x160>
  80a110:	18c00814 	ori	r3,r3,32
  80a114:	00bfffc4 	movi	r2,-1
  80a118:	80c0030d 	sth	r3,12(r16)
  80a11c:	003fed06 	br	80a0d4 <__alt_mem_onchip_mem+0xff8020d4>
  80a120:	080aab00 	call	80aab0 <__sinit>
  80a124:	003fc206 	br	80a030 <__alt_mem_onchip_mem+0xff802030>
  80a128:	00802074 	movhi	r2,129
  80a12c:	10895b04 	addi	r2,r2,9580
  80a130:	11000017 	ldw	r4,0(r2)
  80a134:	01402074 	movhi	r5,129
  80a138:	00800044 	movi	r2,1
  80a13c:	2967fb04 	addi	r5,r5,-24596
  80a140:	8080030d 	sth	r2,12(r16)
  80a144:	080b49c0 	call	80b49c <_fwalk>
  80a148:	00800244 	movi	r2,9
  80a14c:	8480030d 	sth	r18,12(r16)
  80a150:	9480024c 	andi	r18,r18,9
  80a154:	90bfd51e 	bne	r18,r2,80a0ac <__alt_mem_onchip_mem+0xff8020ac>
  80a158:	800b883a 	mov	r5,r16
  80a15c:	8809883a 	mov	r4,r17
  80a160:	080a4b80 	call	80a4b8 <__sflush_r>
  80a164:	003fd106 	br	80a0ac <__alt_mem_onchip_mem+0xff8020ac>
  80a168:	18c01014 	ori	r3,r3,64
  80a16c:	80000115 	stw	zero,4(r16)
  80a170:	00bfffc4 	movi	r2,-1
  80a174:	80c0030d 	sth	r3,12(r16)
  80a178:	003fd606 	br	80a0d4 <__alt_mem_onchip_mem+0xff8020d4>
  80a17c:	80c00e17 	ldw	r3,56(r16)
  80a180:	0005883a 	mov	r2,zero
  80a184:	80c00015 	stw	r3,0(r16)
  80a188:	003fd206 	br	80a0d4 <__alt_mem_onchip_mem+0xff8020d4>
  80a18c:	800b883a 	mov	r5,r16
  80a190:	8809883a 	mov	r4,r17
  80a194:	080a6d40 	call	80a6d4 <_fflush_r>
  80a198:	10000a1e 	bne	r2,zero,80a1c4 <__srefill_r+0x1bc>
  80a19c:	8080030b 	ldhu	r2,12(r16)
  80a1a0:	00fffdc4 	movi	r3,-9
  80a1a4:	80000215 	stw	zero,8(r16)
  80a1a8:	1886703a 	and	r3,r3,r2
  80a1ac:	80000615 	stw	zero,24(r16)
  80a1b0:	003fd206 	br	80a0fc <__alt_mem_onchip_mem+0xff8020fc>
  80a1b4:	00800244 	movi	r2,9
  80a1b8:	88800015 	stw	r2,0(r17)
  80a1bc:	18c01014 	ori	r3,r3,64
  80a1c0:	80c0030d 	sth	r3,12(r16)
  80a1c4:	00bfffc4 	movi	r2,-1
  80a1c8:	003fc206 	br	80a0d4 <__alt_mem_onchip_mem+0xff8020d4>
  80a1cc:	800b883a 	mov	r5,r16
  80a1d0:	8809883a 	mov	r4,r17
  80a1d4:	08093c80 	call	8093c8 <__smakebuf_r>
  80a1d8:	003fb106 	br	80a0a0 <__alt_mem_onchip_mem+0xff8020a0>

0080a1dc <_sbrk_r>:
  80a1dc:	defffd04 	addi	sp,sp,-12
  80a1e0:	dc000015 	stw	r16,0(sp)
  80a1e4:	04002074 	movhi	r16,129
  80a1e8:	dc400115 	stw	r17,4(sp)
  80a1ec:	84108604 	addi	r16,r16,16920
  80a1f0:	2023883a 	mov	r17,r4
  80a1f4:	2809883a 	mov	r4,r5
  80a1f8:	dfc00215 	stw	ra,8(sp)
  80a1fc:	80000015 	stw	zero,0(r16)
  80a200:	080cf100 	call	80cf10 <sbrk>
  80a204:	00ffffc4 	movi	r3,-1
  80a208:	10c00526 	beq	r2,r3,80a220 <_sbrk_r+0x44>
  80a20c:	dfc00217 	ldw	ra,8(sp)
  80a210:	dc400117 	ldw	r17,4(sp)
  80a214:	dc000017 	ldw	r16,0(sp)
  80a218:	dec00304 	addi	sp,sp,12
  80a21c:	f800283a 	ret
  80a220:	80c00017 	ldw	r3,0(r16)
  80a224:	183ff926 	beq	r3,zero,80a20c <__alt_mem_onchip_mem+0xff80220c>
  80a228:	88c00015 	stw	r3,0(r17)
  80a22c:	003ff706 	br	80a20c <__alt_mem_onchip_mem+0xff80220c>

0080a230 <__sread>:
  80a230:	defffe04 	addi	sp,sp,-8
  80a234:	dc000015 	stw	r16,0(sp)
  80a238:	2821883a 	mov	r16,r5
  80a23c:	2940038f 	ldh	r5,14(r5)
  80a240:	dfc00115 	stw	ra,4(sp)
  80a244:	080ba600 	call	80ba60 <_read_r>
  80a248:	10000716 	blt	r2,zero,80a268 <__sread+0x38>
  80a24c:	80c01417 	ldw	r3,80(r16)
  80a250:	1887883a 	add	r3,r3,r2
  80a254:	80c01415 	stw	r3,80(r16)
  80a258:	dfc00117 	ldw	ra,4(sp)
  80a25c:	dc000017 	ldw	r16,0(sp)
  80a260:	dec00204 	addi	sp,sp,8
  80a264:	f800283a 	ret
  80a268:	80c0030b 	ldhu	r3,12(r16)
  80a26c:	18fbffcc 	andi	r3,r3,61439
  80a270:	80c0030d 	sth	r3,12(r16)
  80a274:	dfc00117 	ldw	ra,4(sp)
  80a278:	dc000017 	ldw	r16,0(sp)
  80a27c:	dec00204 	addi	sp,sp,8
  80a280:	f800283a 	ret

0080a284 <__seofread>:
  80a284:	0005883a 	mov	r2,zero
  80a288:	f800283a 	ret

0080a28c <__swrite>:
  80a28c:	2880030b 	ldhu	r2,12(r5)
  80a290:	defffb04 	addi	sp,sp,-20
  80a294:	dcc00315 	stw	r19,12(sp)
  80a298:	dc800215 	stw	r18,8(sp)
  80a29c:	dc400115 	stw	r17,4(sp)
  80a2a0:	dc000015 	stw	r16,0(sp)
  80a2a4:	dfc00415 	stw	ra,16(sp)
  80a2a8:	10c0400c 	andi	r3,r2,256
  80a2ac:	2821883a 	mov	r16,r5
  80a2b0:	2023883a 	mov	r17,r4
  80a2b4:	3025883a 	mov	r18,r6
  80a2b8:	3827883a 	mov	r19,r7
  80a2bc:	18000526 	beq	r3,zero,80a2d4 <__swrite+0x48>
  80a2c0:	2940038f 	ldh	r5,14(r5)
  80a2c4:	01c00084 	movi	r7,2
  80a2c8:	000d883a 	mov	r6,zero
  80a2cc:	080b6780 	call	80b678 <_lseek_r>
  80a2d0:	8080030b 	ldhu	r2,12(r16)
  80a2d4:	8140038f 	ldh	r5,14(r16)
  80a2d8:	10bbffcc 	andi	r2,r2,61439
  80a2dc:	980f883a 	mov	r7,r19
  80a2e0:	900d883a 	mov	r6,r18
  80a2e4:	8809883a 	mov	r4,r17
  80a2e8:	8080030d 	sth	r2,12(r16)
  80a2ec:	dfc00417 	ldw	ra,16(sp)
  80a2f0:	dcc00317 	ldw	r19,12(sp)
  80a2f4:	dc800217 	ldw	r18,8(sp)
  80a2f8:	dc400117 	ldw	r17,4(sp)
  80a2fc:	dc000017 	ldw	r16,0(sp)
  80a300:	dec00504 	addi	sp,sp,20
  80a304:	080a4041 	jmpi	80a404 <_write_r>

0080a308 <__sseek>:
  80a308:	defffe04 	addi	sp,sp,-8
  80a30c:	dc000015 	stw	r16,0(sp)
  80a310:	2821883a 	mov	r16,r5
  80a314:	2940038f 	ldh	r5,14(r5)
  80a318:	dfc00115 	stw	ra,4(sp)
  80a31c:	080b6780 	call	80b678 <_lseek_r>
  80a320:	00ffffc4 	movi	r3,-1
  80a324:	10c00826 	beq	r2,r3,80a348 <__sseek+0x40>
  80a328:	80c0030b 	ldhu	r3,12(r16)
  80a32c:	80801415 	stw	r2,80(r16)
  80a330:	18c40014 	ori	r3,r3,4096
  80a334:	80c0030d 	sth	r3,12(r16)
  80a338:	dfc00117 	ldw	ra,4(sp)
  80a33c:	dc000017 	ldw	r16,0(sp)
  80a340:	dec00204 	addi	sp,sp,8
  80a344:	f800283a 	ret
  80a348:	80c0030b 	ldhu	r3,12(r16)
  80a34c:	18fbffcc 	andi	r3,r3,61439
  80a350:	80c0030d 	sth	r3,12(r16)
  80a354:	dfc00117 	ldw	ra,4(sp)
  80a358:	dc000017 	ldw	r16,0(sp)
  80a35c:	dec00204 	addi	sp,sp,8
  80a360:	f800283a 	ret

0080a364 <__sclose>:
  80a364:	2940038f 	ldh	r5,14(r5)
  80a368:	080a4641 	jmpi	80a464 <_close_r>

0080a36c <strlen>:
  80a36c:	208000cc 	andi	r2,r4,3
  80a370:	10002026 	beq	r2,zero,80a3f4 <strlen+0x88>
  80a374:	20800007 	ldb	r2,0(r4)
  80a378:	10002026 	beq	r2,zero,80a3fc <strlen+0x90>
  80a37c:	2005883a 	mov	r2,r4
  80a380:	00000206 	br	80a38c <strlen+0x20>
  80a384:	10c00007 	ldb	r3,0(r2)
  80a388:	18001826 	beq	r3,zero,80a3ec <strlen+0x80>
  80a38c:	10800044 	addi	r2,r2,1
  80a390:	10c000cc 	andi	r3,r2,3
  80a394:	183ffb1e 	bne	r3,zero,80a384 <__alt_mem_onchip_mem+0xff802384>
  80a398:	10c00017 	ldw	r3,0(r2)
  80a39c:	01ffbff4 	movhi	r7,65279
  80a3a0:	39ffbfc4 	addi	r7,r7,-257
  80a3a4:	00ca303a 	nor	r5,zero,r3
  80a3a8:	01a02074 	movhi	r6,32897
  80a3ac:	19c7883a 	add	r3,r3,r7
  80a3b0:	31a02004 	addi	r6,r6,-32640
  80a3b4:	1946703a 	and	r3,r3,r5
  80a3b8:	1986703a 	and	r3,r3,r6
  80a3bc:	1800091e 	bne	r3,zero,80a3e4 <strlen+0x78>
  80a3c0:	10800104 	addi	r2,r2,4
  80a3c4:	10c00017 	ldw	r3,0(r2)
  80a3c8:	19cb883a 	add	r5,r3,r7
  80a3cc:	00c6303a 	nor	r3,zero,r3
  80a3d0:	28c6703a 	and	r3,r5,r3
  80a3d4:	1986703a 	and	r3,r3,r6
  80a3d8:	183ff926 	beq	r3,zero,80a3c0 <__alt_mem_onchip_mem+0xff8023c0>
  80a3dc:	00000106 	br	80a3e4 <strlen+0x78>
  80a3e0:	10800044 	addi	r2,r2,1
  80a3e4:	10c00007 	ldb	r3,0(r2)
  80a3e8:	183ffd1e 	bne	r3,zero,80a3e0 <__alt_mem_onchip_mem+0xff8023e0>
  80a3ec:	1105c83a 	sub	r2,r2,r4
  80a3f0:	f800283a 	ret
  80a3f4:	2005883a 	mov	r2,r4
  80a3f8:	003fe706 	br	80a398 <__alt_mem_onchip_mem+0xff802398>
  80a3fc:	0005883a 	mov	r2,zero
  80a400:	f800283a 	ret

0080a404 <_write_r>:
  80a404:	defffd04 	addi	sp,sp,-12
  80a408:	2805883a 	mov	r2,r5
  80a40c:	dc000015 	stw	r16,0(sp)
  80a410:	04002074 	movhi	r16,129
  80a414:	dc400115 	stw	r17,4(sp)
  80a418:	300b883a 	mov	r5,r6
  80a41c:	84108604 	addi	r16,r16,16920
  80a420:	2023883a 	mov	r17,r4
  80a424:	380d883a 	mov	r6,r7
  80a428:	1009883a 	mov	r4,r2
  80a42c:	dfc00215 	stw	ra,8(sp)
  80a430:	80000015 	stw	zero,0(r16)
  80a434:	080d1a00 	call	80d1a0 <write>
  80a438:	00ffffc4 	movi	r3,-1
  80a43c:	10c00526 	beq	r2,r3,80a454 <_write_r+0x50>
  80a440:	dfc00217 	ldw	ra,8(sp)
  80a444:	dc400117 	ldw	r17,4(sp)
  80a448:	dc000017 	ldw	r16,0(sp)
  80a44c:	dec00304 	addi	sp,sp,12
  80a450:	f800283a 	ret
  80a454:	80c00017 	ldw	r3,0(r16)
  80a458:	183ff926 	beq	r3,zero,80a440 <__alt_mem_onchip_mem+0xff802440>
  80a45c:	88c00015 	stw	r3,0(r17)
  80a460:	003ff706 	br	80a440 <__alt_mem_onchip_mem+0xff802440>

0080a464 <_close_r>:
  80a464:	defffd04 	addi	sp,sp,-12
  80a468:	dc000015 	stw	r16,0(sp)
  80a46c:	04002074 	movhi	r16,129
  80a470:	dc400115 	stw	r17,4(sp)
  80a474:	84108604 	addi	r16,r16,16920
  80a478:	2023883a 	mov	r17,r4
  80a47c:	2809883a 	mov	r4,r5
  80a480:	dfc00215 	stw	ra,8(sp)
  80a484:	80000015 	stw	zero,0(r16)
  80a488:	080c5980 	call	80c598 <close>
  80a48c:	00ffffc4 	movi	r3,-1
  80a490:	10c00526 	beq	r2,r3,80a4a8 <_close_r+0x44>
  80a494:	dfc00217 	ldw	ra,8(sp)
  80a498:	dc400117 	ldw	r17,4(sp)
  80a49c:	dc000017 	ldw	r16,0(sp)
  80a4a0:	dec00304 	addi	sp,sp,12
  80a4a4:	f800283a 	ret
  80a4a8:	80c00017 	ldw	r3,0(r16)
  80a4ac:	183ff926 	beq	r3,zero,80a494 <__alt_mem_onchip_mem+0xff802494>
  80a4b0:	88c00015 	stw	r3,0(r17)
  80a4b4:	003ff706 	br	80a494 <__alt_mem_onchip_mem+0xff802494>

0080a4b8 <__sflush_r>:
  80a4b8:	2880030b 	ldhu	r2,12(r5)
  80a4bc:	defffb04 	addi	sp,sp,-20
  80a4c0:	dcc00315 	stw	r19,12(sp)
  80a4c4:	dc400115 	stw	r17,4(sp)
  80a4c8:	dfc00415 	stw	ra,16(sp)
  80a4cc:	dc800215 	stw	r18,8(sp)
  80a4d0:	dc000015 	stw	r16,0(sp)
  80a4d4:	10c0020c 	andi	r3,r2,8
  80a4d8:	2823883a 	mov	r17,r5
  80a4dc:	2027883a 	mov	r19,r4
  80a4e0:	1800311e 	bne	r3,zero,80a5a8 <__sflush_r+0xf0>
  80a4e4:	28c00117 	ldw	r3,4(r5)
  80a4e8:	10820014 	ori	r2,r2,2048
  80a4ec:	2880030d 	sth	r2,12(r5)
  80a4f0:	00c04b0e 	bge	zero,r3,80a620 <__sflush_r+0x168>
  80a4f4:	8a000a17 	ldw	r8,40(r17)
  80a4f8:	40002326 	beq	r8,zero,80a588 <__sflush_r+0xd0>
  80a4fc:	9c000017 	ldw	r16,0(r19)
  80a500:	10c4000c 	andi	r3,r2,4096
  80a504:	98000015 	stw	zero,0(r19)
  80a508:	18004826 	beq	r3,zero,80a62c <__sflush_r+0x174>
  80a50c:	89801417 	ldw	r6,80(r17)
  80a510:	10c0010c 	andi	r3,r2,4
  80a514:	18000626 	beq	r3,zero,80a530 <__sflush_r+0x78>
  80a518:	88c00117 	ldw	r3,4(r17)
  80a51c:	88800c17 	ldw	r2,48(r17)
  80a520:	30cdc83a 	sub	r6,r6,r3
  80a524:	10000226 	beq	r2,zero,80a530 <__sflush_r+0x78>
  80a528:	88800f17 	ldw	r2,60(r17)
  80a52c:	308dc83a 	sub	r6,r6,r2
  80a530:	89400717 	ldw	r5,28(r17)
  80a534:	000f883a 	mov	r7,zero
  80a538:	9809883a 	mov	r4,r19
  80a53c:	403ee83a 	callr	r8
  80a540:	00ffffc4 	movi	r3,-1
  80a544:	10c04426 	beq	r2,r3,80a658 <__sflush_r+0x1a0>
  80a548:	88c0030b 	ldhu	r3,12(r17)
  80a54c:	89000417 	ldw	r4,16(r17)
  80a550:	88000115 	stw	zero,4(r17)
  80a554:	197dffcc 	andi	r5,r3,63487
  80a558:	8940030d 	sth	r5,12(r17)
  80a55c:	89000015 	stw	r4,0(r17)
  80a560:	18c4000c 	andi	r3,r3,4096
  80a564:	18002c1e 	bne	r3,zero,80a618 <__sflush_r+0x160>
  80a568:	89400c17 	ldw	r5,48(r17)
  80a56c:	9c000015 	stw	r16,0(r19)
  80a570:	28000526 	beq	r5,zero,80a588 <__sflush_r+0xd0>
  80a574:	88801004 	addi	r2,r17,64
  80a578:	28800226 	beq	r5,r2,80a584 <__sflush_r+0xcc>
  80a57c:	9809883a 	mov	r4,r19
  80a580:	080acd00 	call	80acd0 <_free_r>
  80a584:	88000c15 	stw	zero,48(r17)
  80a588:	0005883a 	mov	r2,zero
  80a58c:	dfc00417 	ldw	ra,16(sp)
  80a590:	dcc00317 	ldw	r19,12(sp)
  80a594:	dc800217 	ldw	r18,8(sp)
  80a598:	dc400117 	ldw	r17,4(sp)
  80a59c:	dc000017 	ldw	r16,0(sp)
  80a5a0:	dec00504 	addi	sp,sp,20
  80a5a4:	f800283a 	ret
  80a5a8:	2c800417 	ldw	r18,16(r5)
  80a5ac:	903ff626 	beq	r18,zero,80a588 <__alt_mem_onchip_mem+0xff802588>
  80a5b0:	2c000017 	ldw	r16,0(r5)
  80a5b4:	108000cc 	andi	r2,r2,3
  80a5b8:	2c800015 	stw	r18,0(r5)
  80a5bc:	84a1c83a 	sub	r16,r16,r18
  80a5c0:	1000131e 	bne	r2,zero,80a610 <__sflush_r+0x158>
  80a5c4:	28800517 	ldw	r2,20(r5)
  80a5c8:	88800215 	stw	r2,8(r17)
  80a5cc:	04000316 	blt	zero,r16,80a5dc <__sflush_r+0x124>
  80a5d0:	003fed06 	br	80a588 <__alt_mem_onchip_mem+0xff802588>
  80a5d4:	90a5883a 	add	r18,r18,r2
  80a5d8:	043feb0e 	bge	zero,r16,80a588 <__alt_mem_onchip_mem+0xff802588>
  80a5dc:	88800917 	ldw	r2,36(r17)
  80a5e0:	89400717 	ldw	r5,28(r17)
  80a5e4:	800f883a 	mov	r7,r16
  80a5e8:	900d883a 	mov	r6,r18
  80a5ec:	9809883a 	mov	r4,r19
  80a5f0:	103ee83a 	callr	r2
  80a5f4:	80a1c83a 	sub	r16,r16,r2
  80a5f8:	00bff616 	blt	zero,r2,80a5d4 <__alt_mem_onchip_mem+0xff8025d4>
  80a5fc:	88c0030b 	ldhu	r3,12(r17)
  80a600:	00bfffc4 	movi	r2,-1
  80a604:	18c01014 	ori	r3,r3,64
  80a608:	88c0030d 	sth	r3,12(r17)
  80a60c:	003fdf06 	br	80a58c <__alt_mem_onchip_mem+0xff80258c>
  80a610:	0005883a 	mov	r2,zero
  80a614:	003fec06 	br	80a5c8 <__alt_mem_onchip_mem+0xff8025c8>
  80a618:	88801415 	stw	r2,80(r17)
  80a61c:	003fd206 	br	80a568 <__alt_mem_onchip_mem+0xff802568>
  80a620:	28c00f17 	ldw	r3,60(r5)
  80a624:	00ffb316 	blt	zero,r3,80a4f4 <__alt_mem_onchip_mem+0xff8024f4>
  80a628:	003fd706 	br	80a588 <__alt_mem_onchip_mem+0xff802588>
  80a62c:	89400717 	ldw	r5,28(r17)
  80a630:	000d883a 	mov	r6,zero
  80a634:	01c00044 	movi	r7,1
  80a638:	9809883a 	mov	r4,r19
  80a63c:	403ee83a 	callr	r8
  80a640:	100d883a 	mov	r6,r2
  80a644:	00bfffc4 	movi	r2,-1
  80a648:	30801426 	beq	r6,r2,80a69c <__sflush_r+0x1e4>
  80a64c:	8880030b 	ldhu	r2,12(r17)
  80a650:	8a000a17 	ldw	r8,40(r17)
  80a654:	003fae06 	br	80a510 <__alt_mem_onchip_mem+0xff802510>
  80a658:	98c00017 	ldw	r3,0(r19)
  80a65c:	183fba26 	beq	r3,zero,80a548 <__alt_mem_onchip_mem+0xff802548>
  80a660:	01000744 	movi	r4,29
  80a664:	19000626 	beq	r3,r4,80a680 <__sflush_r+0x1c8>
  80a668:	01000584 	movi	r4,22
  80a66c:	19000426 	beq	r3,r4,80a680 <__sflush_r+0x1c8>
  80a670:	88c0030b 	ldhu	r3,12(r17)
  80a674:	18c01014 	ori	r3,r3,64
  80a678:	88c0030d 	sth	r3,12(r17)
  80a67c:	003fc306 	br	80a58c <__alt_mem_onchip_mem+0xff80258c>
  80a680:	8880030b 	ldhu	r2,12(r17)
  80a684:	88c00417 	ldw	r3,16(r17)
  80a688:	88000115 	stw	zero,4(r17)
  80a68c:	10bdffcc 	andi	r2,r2,63487
  80a690:	8880030d 	sth	r2,12(r17)
  80a694:	88c00015 	stw	r3,0(r17)
  80a698:	003fb306 	br	80a568 <__alt_mem_onchip_mem+0xff802568>
  80a69c:	98800017 	ldw	r2,0(r19)
  80a6a0:	103fea26 	beq	r2,zero,80a64c <__alt_mem_onchip_mem+0xff80264c>
  80a6a4:	00c00744 	movi	r3,29
  80a6a8:	10c00226 	beq	r2,r3,80a6b4 <__sflush_r+0x1fc>
  80a6ac:	00c00584 	movi	r3,22
  80a6b0:	10c0031e 	bne	r2,r3,80a6c0 <__sflush_r+0x208>
  80a6b4:	9c000015 	stw	r16,0(r19)
  80a6b8:	0005883a 	mov	r2,zero
  80a6bc:	003fb306 	br	80a58c <__alt_mem_onchip_mem+0xff80258c>
  80a6c0:	88c0030b 	ldhu	r3,12(r17)
  80a6c4:	3005883a 	mov	r2,r6
  80a6c8:	18c01014 	ori	r3,r3,64
  80a6cc:	88c0030d 	sth	r3,12(r17)
  80a6d0:	003fae06 	br	80a58c <__alt_mem_onchip_mem+0xff80258c>

0080a6d4 <_fflush_r>:
  80a6d4:	defffd04 	addi	sp,sp,-12
  80a6d8:	dc000115 	stw	r16,4(sp)
  80a6dc:	dfc00215 	stw	ra,8(sp)
  80a6e0:	2021883a 	mov	r16,r4
  80a6e4:	20000226 	beq	r4,zero,80a6f0 <_fflush_r+0x1c>
  80a6e8:	20800e17 	ldw	r2,56(r4)
  80a6ec:	10000c26 	beq	r2,zero,80a720 <_fflush_r+0x4c>
  80a6f0:	2880030f 	ldh	r2,12(r5)
  80a6f4:	1000051e 	bne	r2,zero,80a70c <_fflush_r+0x38>
  80a6f8:	0005883a 	mov	r2,zero
  80a6fc:	dfc00217 	ldw	ra,8(sp)
  80a700:	dc000117 	ldw	r16,4(sp)
  80a704:	dec00304 	addi	sp,sp,12
  80a708:	f800283a 	ret
  80a70c:	8009883a 	mov	r4,r16
  80a710:	dfc00217 	ldw	ra,8(sp)
  80a714:	dc000117 	ldw	r16,4(sp)
  80a718:	dec00304 	addi	sp,sp,12
  80a71c:	080a4b81 	jmpi	80a4b8 <__sflush_r>
  80a720:	d9400015 	stw	r5,0(sp)
  80a724:	080aab00 	call	80aab0 <__sinit>
  80a728:	d9400017 	ldw	r5,0(sp)
  80a72c:	003ff006 	br	80a6f0 <__alt_mem_onchip_mem+0xff8026f0>

0080a730 <fflush>:
  80a730:	20000526 	beq	r4,zero,80a748 <fflush+0x18>
  80a734:	00802074 	movhi	r2,129
  80a738:	10895c04 	addi	r2,r2,9584
  80a73c:	200b883a 	mov	r5,r4
  80a740:	11000017 	ldw	r4,0(r2)
  80a744:	080a6d41 	jmpi	80a6d4 <_fflush_r>
  80a748:	00802074 	movhi	r2,129
  80a74c:	10895b04 	addi	r2,r2,9580
  80a750:	11000017 	ldw	r4,0(r2)
  80a754:	01402074 	movhi	r5,129
  80a758:	2969b504 	addi	r5,r5,-22828
  80a75c:	080b5601 	jmpi	80b560 <_fwalk_reent>

0080a760 <__fp_unlock>:
  80a760:	0005883a 	mov	r2,zero
  80a764:	f800283a 	ret

0080a768 <_cleanup_r>:
  80a768:	01402074 	movhi	r5,129
  80a76c:	29705e04 	addi	r5,r5,-16008
  80a770:	080b5601 	jmpi	80b560 <_fwalk_reent>

0080a774 <__sinit.part.1>:
  80a774:	defff704 	addi	sp,sp,-36
  80a778:	00c02074 	movhi	r3,129
  80a77c:	dfc00815 	stw	ra,32(sp)
  80a780:	ddc00715 	stw	r23,28(sp)
  80a784:	dd800615 	stw	r22,24(sp)
  80a788:	dd400515 	stw	r21,20(sp)
  80a78c:	dd000415 	stw	r20,16(sp)
  80a790:	dcc00315 	stw	r19,12(sp)
  80a794:	dc800215 	stw	r18,8(sp)
  80a798:	dc400115 	stw	r17,4(sp)
  80a79c:	dc000015 	stw	r16,0(sp)
  80a7a0:	18e9da04 	addi	r3,r3,-22680
  80a7a4:	24000117 	ldw	r16,4(r4)
  80a7a8:	20c00f15 	stw	r3,60(r4)
  80a7ac:	2080bb04 	addi	r2,r4,748
  80a7b0:	00c000c4 	movi	r3,3
  80a7b4:	20c0b915 	stw	r3,740(r4)
  80a7b8:	2080ba15 	stw	r2,744(r4)
  80a7bc:	2000b815 	stw	zero,736(r4)
  80a7c0:	05c00204 	movi	r23,8
  80a7c4:	00800104 	movi	r2,4
  80a7c8:	2025883a 	mov	r18,r4
  80a7cc:	b80d883a 	mov	r6,r23
  80a7d0:	81001704 	addi	r4,r16,92
  80a7d4:	000b883a 	mov	r5,zero
  80a7d8:	80000015 	stw	zero,0(r16)
  80a7dc:	80000115 	stw	zero,4(r16)
  80a7e0:	80000215 	stw	zero,8(r16)
  80a7e4:	8080030d 	sth	r2,12(r16)
  80a7e8:	80001915 	stw	zero,100(r16)
  80a7ec:	8000038d 	sth	zero,14(r16)
  80a7f0:	80000415 	stw	zero,16(r16)
  80a7f4:	80000515 	stw	zero,20(r16)
  80a7f8:	80000615 	stw	zero,24(r16)
  80a7fc:	0809d900 	call	809d90 <memset>
  80a800:	05802074 	movhi	r22,129
  80a804:	94400217 	ldw	r17,8(r18)
  80a808:	05402074 	movhi	r21,129
  80a80c:	05002074 	movhi	r20,129
  80a810:	04c02074 	movhi	r19,129
  80a814:	b5a88c04 	addi	r22,r22,-24016
  80a818:	ad68a304 	addi	r21,r21,-23924
  80a81c:	a528c204 	addi	r20,r20,-23800
  80a820:	9ce8d904 	addi	r19,r19,-23708
  80a824:	85800815 	stw	r22,32(r16)
  80a828:	85400915 	stw	r21,36(r16)
  80a82c:	85000a15 	stw	r20,40(r16)
  80a830:	84c00b15 	stw	r19,44(r16)
  80a834:	84000715 	stw	r16,28(r16)
  80a838:	00800284 	movi	r2,10
  80a83c:	8880030d 	sth	r2,12(r17)
  80a840:	00800044 	movi	r2,1
  80a844:	b80d883a 	mov	r6,r23
  80a848:	89001704 	addi	r4,r17,92
  80a84c:	000b883a 	mov	r5,zero
  80a850:	88000015 	stw	zero,0(r17)
  80a854:	88000115 	stw	zero,4(r17)
  80a858:	88000215 	stw	zero,8(r17)
  80a85c:	88001915 	stw	zero,100(r17)
  80a860:	8880038d 	sth	r2,14(r17)
  80a864:	88000415 	stw	zero,16(r17)
  80a868:	88000515 	stw	zero,20(r17)
  80a86c:	88000615 	stw	zero,24(r17)
  80a870:	0809d900 	call	809d90 <memset>
  80a874:	94000317 	ldw	r16,12(r18)
  80a878:	00800484 	movi	r2,18
  80a87c:	8c400715 	stw	r17,28(r17)
  80a880:	8d800815 	stw	r22,32(r17)
  80a884:	8d400915 	stw	r21,36(r17)
  80a888:	8d000a15 	stw	r20,40(r17)
  80a88c:	8cc00b15 	stw	r19,44(r17)
  80a890:	8080030d 	sth	r2,12(r16)
  80a894:	00800084 	movi	r2,2
  80a898:	80000015 	stw	zero,0(r16)
  80a89c:	80000115 	stw	zero,4(r16)
  80a8a0:	80000215 	stw	zero,8(r16)
  80a8a4:	80001915 	stw	zero,100(r16)
  80a8a8:	8080038d 	sth	r2,14(r16)
  80a8ac:	80000415 	stw	zero,16(r16)
  80a8b0:	80000515 	stw	zero,20(r16)
  80a8b4:	80000615 	stw	zero,24(r16)
  80a8b8:	b80d883a 	mov	r6,r23
  80a8bc:	000b883a 	mov	r5,zero
  80a8c0:	81001704 	addi	r4,r16,92
  80a8c4:	0809d900 	call	809d90 <memset>
  80a8c8:	00800044 	movi	r2,1
  80a8cc:	84000715 	stw	r16,28(r16)
  80a8d0:	85800815 	stw	r22,32(r16)
  80a8d4:	85400915 	stw	r21,36(r16)
  80a8d8:	85000a15 	stw	r20,40(r16)
  80a8dc:	84c00b15 	stw	r19,44(r16)
  80a8e0:	90800e15 	stw	r2,56(r18)
  80a8e4:	dfc00817 	ldw	ra,32(sp)
  80a8e8:	ddc00717 	ldw	r23,28(sp)
  80a8ec:	dd800617 	ldw	r22,24(sp)
  80a8f0:	dd400517 	ldw	r21,20(sp)
  80a8f4:	dd000417 	ldw	r20,16(sp)
  80a8f8:	dcc00317 	ldw	r19,12(sp)
  80a8fc:	dc800217 	ldw	r18,8(sp)
  80a900:	dc400117 	ldw	r17,4(sp)
  80a904:	dc000017 	ldw	r16,0(sp)
  80a908:	dec00904 	addi	sp,sp,36
  80a90c:	f800283a 	ret

0080a910 <__fp_lock>:
  80a910:	0005883a 	mov	r2,zero
  80a914:	f800283a 	ret

0080a918 <__sfmoreglue>:
  80a918:	defffc04 	addi	sp,sp,-16
  80a91c:	dc400115 	stw	r17,4(sp)
  80a920:	2c7fffc4 	addi	r17,r5,-1
  80a924:	8c401a24 	muli	r17,r17,104
  80a928:	dc800215 	stw	r18,8(sp)
  80a92c:	2825883a 	mov	r18,r5
  80a930:	89401d04 	addi	r5,r17,116
  80a934:	dc000015 	stw	r16,0(sp)
  80a938:	dfc00315 	stw	ra,12(sp)
  80a93c:	08095840 	call	809584 <_malloc_r>
  80a940:	1021883a 	mov	r16,r2
  80a944:	10000726 	beq	r2,zero,80a964 <__sfmoreglue+0x4c>
  80a948:	11000304 	addi	r4,r2,12
  80a94c:	10000015 	stw	zero,0(r2)
  80a950:	14800115 	stw	r18,4(r2)
  80a954:	11000215 	stw	r4,8(r2)
  80a958:	89801a04 	addi	r6,r17,104
  80a95c:	000b883a 	mov	r5,zero
  80a960:	0809d900 	call	809d90 <memset>
  80a964:	8005883a 	mov	r2,r16
  80a968:	dfc00317 	ldw	ra,12(sp)
  80a96c:	dc800217 	ldw	r18,8(sp)
  80a970:	dc400117 	ldw	r17,4(sp)
  80a974:	dc000017 	ldw	r16,0(sp)
  80a978:	dec00404 	addi	sp,sp,16
  80a97c:	f800283a 	ret

0080a980 <__sfp>:
  80a980:	defffb04 	addi	sp,sp,-20
  80a984:	dc000015 	stw	r16,0(sp)
  80a988:	04002074 	movhi	r16,129
  80a98c:	84095b04 	addi	r16,r16,9580
  80a990:	dcc00315 	stw	r19,12(sp)
  80a994:	2027883a 	mov	r19,r4
  80a998:	81000017 	ldw	r4,0(r16)
  80a99c:	dfc00415 	stw	ra,16(sp)
  80a9a0:	dc800215 	stw	r18,8(sp)
  80a9a4:	20800e17 	ldw	r2,56(r4)
  80a9a8:	dc400115 	stw	r17,4(sp)
  80a9ac:	1000021e 	bne	r2,zero,80a9b8 <__sfp+0x38>
  80a9b0:	080a7740 	call	80a774 <__sinit.part.1>
  80a9b4:	81000017 	ldw	r4,0(r16)
  80a9b8:	2480b804 	addi	r18,r4,736
  80a9bc:	047fffc4 	movi	r17,-1
  80a9c0:	91000117 	ldw	r4,4(r18)
  80a9c4:	94000217 	ldw	r16,8(r18)
  80a9c8:	213fffc4 	addi	r4,r4,-1
  80a9cc:	20000a16 	blt	r4,zero,80a9f8 <__sfp+0x78>
  80a9d0:	8080030f 	ldh	r2,12(r16)
  80a9d4:	10000c26 	beq	r2,zero,80aa08 <__sfp+0x88>
  80a9d8:	80c01d04 	addi	r3,r16,116
  80a9dc:	00000206 	br	80a9e8 <__sfp+0x68>
  80a9e0:	18bfe60f 	ldh	r2,-104(r3)
  80a9e4:	10000826 	beq	r2,zero,80aa08 <__sfp+0x88>
  80a9e8:	213fffc4 	addi	r4,r4,-1
  80a9ec:	1c3ffd04 	addi	r16,r3,-12
  80a9f0:	18c01a04 	addi	r3,r3,104
  80a9f4:	247ffa1e 	bne	r4,r17,80a9e0 <__alt_mem_onchip_mem+0xff8029e0>
  80a9f8:	90800017 	ldw	r2,0(r18)
  80a9fc:	10001d26 	beq	r2,zero,80aa74 <__sfp+0xf4>
  80aa00:	1025883a 	mov	r18,r2
  80aa04:	003fee06 	br	80a9c0 <__alt_mem_onchip_mem+0xff8029c0>
  80aa08:	00bfffc4 	movi	r2,-1
  80aa0c:	8080038d 	sth	r2,14(r16)
  80aa10:	00800044 	movi	r2,1
  80aa14:	8080030d 	sth	r2,12(r16)
  80aa18:	80001915 	stw	zero,100(r16)
  80aa1c:	80000015 	stw	zero,0(r16)
  80aa20:	80000215 	stw	zero,8(r16)
  80aa24:	80000115 	stw	zero,4(r16)
  80aa28:	80000415 	stw	zero,16(r16)
  80aa2c:	80000515 	stw	zero,20(r16)
  80aa30:	80000615 	stw	zero,24(r16)
  80aa34:	01800204 	movi	r6,8
  80aa38:	000b883a 	mov	r5,zero
  80aa3c:	81001704 	addi	r4,r16,92
  80aa40:	0809d900 	call	809d90 <memset>
  80aa44:	8005883a 	mov	r2,r16
  80aa48:	80000c15 	stw	zero,48(r16)
  80aa4c:	80000d15 	stw	zero,52(r16)
  80aa50:	80001115 	stw	zero,68(r16)
  80aa54:	80001215 	stw	zero,72(r16)
  80aa58:	dfc00417 	ldw	ra,16(sp)
  80aa5c:	dcc00317 	ldw	r19,12(sp)
  80aa60:	dc800217 	ldw	r18,8(sp)
  80aa64:	dc400117 	ldw	r17,4(sp)
  80aa68:	dc000017 	ldw	r16,0(sp)
  80aa6c:	dec00504 	addi	sp,sp,20
  80aa70:	f800283a 	ret
  80aa74:	01400104 	movi	r5,4
  80aa78:	9809883a 	mov	r4,r19
  80aa7c:	080a9180 	call	80a918 <__sfmoreglue>
  80aa80:	90800015 	stw	r2,0(r18)
  80aa84:	103fde1e 	bne	r2,zero,80aa00 <__alt_mem_onchip_mem+0xff802a00>
  80aa88:	00800304 	movi	r2,12
  80aa8c:	98800015 	stw	r2,0(r19)
  80aa90:	0005883a 	mov	r2,zero
  80aa94:	003ff006 	br	80aa58 <__alt_mem_onchip_mem+0xff802a58>

0080aa98 <_cleanup>:
  80aa98:	00802074 	movhi	r2,129
  80aa9c:	10895b04 	addi	r2,r2,9580
  80aaa0:	11000017 	ldw	r4,0(r2)
  80aaa4:	01402074 	movhi	r5,129
  80aaa8:	29705e04 	addi	r5,r5,-16008
  80aaac:	080b5601 	jmpi	80b560 <_fwalk_reent>

0080aab0 <__sinit>:
  80aab0:	20800e17 	ldw	r2,56(r4)
  80aab4:	10000126 	beq	r2,zero,80aabc <__sinit+0xc>
  80aab8:	f800283a 	ret
  80aabc:	080a7741 	jmpi	80a774 <__sinit.part.1>

0080aac0 <__sfp_lock_acquire>:
  80aac0:	f800283a 	ret

0080aac4 <__sfp_lock_release>:
  80aac4:	f800283a 	ret

0080aac8 <__sinit_lock_acquire>:
  80aac8:	f800283a 	ret

0080aacc <__sinit_lock_release>:
  80aacc:	f800283a 	ret

0080aad0 <__fp_lock_all>:
  80aad0:	00802074 	movhi	r2,129
  80aad4:	10895c04 	addi	r2,r2,9584
  80aad8:	11000017 	ldw	r4,0(r2)
  80aadc:	01402074 	movhi	r5,129
  80aae0:	296a4404 	addi	r5,r5,-22256
  80aae4:	080b49c1 	jmpi	80b49c <_fwalk>

0080aae8 <__fp_unlock_all>:
  80aae8:	00802074 	movhi	r2,129
  80aaec:	10895c04 	addi	r2,r2,9584
  80aaf0:	11000017 	ldw	r4,0(r2)
  80aaf4:	01402074 	movhi	r5,129
  80aaf8:	2969d804 	addi	r5,r5,-22688
  80aafc:	080b49c1 	jmpi	80b49c <_fwalk>

0080ab00 <__sflags>:
  80ab00:	28800007 	ldb	r2,0(r5)
  80ab04:	00c01c84 	movi	r3,114
  80ab08:	10c02426 	beq	r2,r3,80ab9c <__sflags+0x9c>
  80ab0c:	00c01dc4 	movi	r3,119
  80ab10:	10c01e26 	beq	r2,r3,80ab8c <__sflags+0x8c>
  80ab14:	00c01844 	movi	r3,97
  80ab18:	10c00426 	beq	r2,r3,80ab2c <__sflags+0x2c>
  80ab1c:	00800584 	movi	r2,22
  80ab20:	20800015 	stw	r2,0(r4)
  80ab24:	0005883a 	mov	r2,zero
  80ab28:	f800283a 	ret
  80ab2c:	02c08204 	movi	r11,520
  80ab30:	01000044 	movi	r4,1
  80ab34:	00804204 	movi	r2,264
  80ab38:	01c00ac4 	movi	r7,43
  80ab3c:	02bff8c4 	movi	r10,-29
  80ab40:	027fff04 	movi	r9,-4
  80ab44:	02001e04 	movi	r8,120
  80ab48:	29400044 	addi	r5,r5,1
  80ab4c:	28c00007 	ldb	r3,0(r5)
  80ab50:	18000626 	beq	r3,zero,80ab6c <__sflags+0x6c>
  80ab54:	19c00826 	beq	r3,r7,80ab78 <__sflags+0x78>
  80ab58:	1a3ffb1e 	bne	r3,r8,80ab48 <__alt_mem_onchip_mem+0xff802b48>
  80ab5c:	29400044 	addi	r5,r5,1
  80ab60:	28c00007 	ldb	r3,0(r5)
  80ab64:	21020014 	ori	r4,r4,2048
  80ab68:	183ffa1e 	bne	r3,zero,80ab54 <__alt_mem_onchip_mem+0xff802b54>
  80ab6c:	22c8b03a 	or	r4,r4,r11
  80ab70:	31000015 	stw	r4,0(r6)
  80ab74:	f800283a 	ret
  80ab78:	1284703a 	and	r2,r2,r10
  80ab7c:	2248703a 	and	r4,r4,r9
  80ab80:	10800414 	ori	r2,r2,16
  80ab84:	21000094 	ori	r4,r4,2
  80ab88:	003fef06 	br	80ab48 <__alt_mem_onchip_mem+0xff802b48>
  80ab8c:	02c18004 	movi	r11,1536
  80ab90:	01000044 	movi	r4,1
  80ab94:	00800204 	movi	r2,8
  80ab98:	003fe706 	br	80ab38 <__alt_mem_onchip_mem+0xff802b38>
  80ab9c:	0017883a 	mov	r11,zero
  80aba0:	0009883a 	mov	r4,zero
  80aba4:	00800104 	movi	r2,4
  80aba8:	003fe306 	br	80ab38 <__alt_mem_onchip_mem+0xff802b38>

0080abac <_malloc_trim_r>:
  80abac:	defffb04 	addi	sp,sp,-20
  80abb0:	dcc00315 	stw	r19,12(sp)
  80abb4:	04c02074 	movhi	r19,129
  80abb8:	dc800215 	stw	r18,8(sp)
  80abbc:	dc400115 	stw	r17,4(sp)
  80abc0:	dc000015 	stw	r16,0(sp)
  80abc4:	dfc00415 	stw	ra,16(sp)
  80abc8:	2821883a 	mov	r16,r5
  80abcc:	9cc35d04 	addi	r19,r19,3444
  80abd0:	2025883a 	mov	r18,r4
  80abd4:	080cad80 	call	80cad8 <__malloc_lock>
  80abd8:	98800217 	ldw	r2,8(r19)
  80abdc:	14400117 	ldw	r17,4(r2)
  80abe0:	00bfff04 	movi	r2,-4
  80abe4:	88a2703a 	and	r17,r17,r2
  80abe8:	8c21c83a 	sub	r16,r17,r16
  80abec:	8403fbc4 	addi	r16,r16,4079
  80abf0:	8020d33a 	srli	r16,r16,12
  80abf4:	0083ffc4 	movi	r2,4095
  80abf8:	843fffc4 	addi	r16,r16,-1
  80abfc:	8020933a 	slli	r16,r16,12
  80ac00:	1400060e 	bge	r2,r16,80ac1c <_malloc_trim_r+0x70>
  80ac04:	000b883a 	mov	r5,zero
  80ac08:	9009883a 	mov	r4,r18
  80ac0c:	080a1dc0 	call	80a1dc <_sbrk_r>
  80ac10:	98c00217 	ldw	r3,8(r19)
  80ac14:	1c47883a 	add	r3,r3,r17
  80ac18:	10c00a26 	beq	r2,r3,80ac44 <_malloc_trim_r+0x98>
  80ac1c:	9009883a 	mov	r4,r18
  80ac20:	080cafc0 	call	80cafc <__malloc_unlock>
  80ac24:	0005883a 	mov	r2,zero
  80ac28:	dfc00417 	ldw	ra,16(sp)
  80ac2c:	dcc00317 	ldw	r19,12(sp)
  80ac30:	dc800217 	ldw	r18,8(sp)
  80ac34:	dc400117 	ldw	r17,4(sp)
  80ac38:	dc000017 	ldw	r16,0(sp)
  80ac3c:	dec00504 	addi	sp,sp,20
  80ac40:	f800283a 	ret
  80ac44:	040bc83a 	sub	r5,zero,r16
  80ac48:	9009883a 	mov	r4,r18
  80ac4c:	080a1dc0 	call	80a1dc <_sbrk_r>
  80ac50:	00ffffc4 	movi	r3,-1
  80ac54:	10c00d26 	beq	r2,r3,80ac8c <_malloc_trim_r+0xe0>
  80ac58:	00c02074 	movhi	r3,129
  80ac5c:	18d09104 	addi	r3,r3,16964
  80ac60:	18800017 	ldw	r2,0(r3)
  80ac64:	99000217 	ldw	r4,8(r19)
  80ac68:	8c23c83a 	sub	r17,r17,r16
  80ac6c:	8c400054 	ori	r17,r17,1
  80ac70:	1421c83a 	sub	r16,r2,r16
  80ac74:	24400115 	stw	r17,4(r4)
  80ac78:	9009883a 	mov	r4,r18
  80ac7c:	1c000015 	stw	r16,0(r3)
  80ac80:	080cafc0 	call	80cafc <__malloc_unlock>
  80ac84:	00800044 	movi	r2,1
  80ac88:	003fe706 	br	80ac28 <__alt_mem_onchip_mem+0xff802c28>
  80ac8c:	000b883a 	mov	r5,zero
  80ac90:	9009883a 	mov	r4,r18
  80ac94:	080a1dc0 	call	80a1dc <_sbrk_r>
  80ac98:	99000217 	ldw	r4,8(r19)
  80ac9c:	014003c4 	movi	r5,15
  80aca0:	1107c83a 	sub	r3,r2,r4
  80aca4:	28ffdd0e 	bge	r5,r3,80ac1c <__alt_mem_onchip_mem+0xff802c1c>
  80aca8:	01402074 	movhi	r5,129
  80acac:	29495d04 	addi	r5,r5,9588
  80acb0:	29400017 	ldw	r5,0(r5)
  80acb4:	18c00054 	ori	r3,r3,1
  80acb8:	20c00115 	stw	r3,4(r4)
  80acbc:	00c02074 	movhi	r3,129
  80acc0:	1145c83a 	sub	r2,r2,r5
  80acc4:	18d09104 	addi	r3,r3,16964
  80acc8:	18800015 	stw	r2,0(r3)
  80accc:	003fd306 	br	80ac1c <__alt_mem_onchip_mem+0xff802c1c>

0080acd0 <_free_r>:
  80acd0:	28004126 	beq	r5,zero,80add8 <_free_r+0x108>
  80acd4:	defffd04 	addi	sp,sp,-12
  80acd8:	dc400115 	stw	r17,4(sp)
  80acdc:	dc000015 	stw	r16,0(sp)
  80ace0:	2023883a 	mov	r17,r4
  80ace4:	2821883a 	mov	r16,r5
  80ace8:	dfc00215 	stw	ra,8(sp)
  80acec:	080cad80 	call	80cad8 <__malloc_lock>
  80acf0:	81ffff17 	ldw	r7,-4(r16)
  80acf4:	00bfff84 	movi	r2,-2
  80acf8:	01002074 	movhi	r4,129
  80acfc:	81bffe04 	addi	r6,r16,-8
  80ad00:	3884703a 	and	r2,r7,r2
  80ad04:	21035d04 	addi	r4,r4,3444
  80ad08:	308b883a 	add	r5,r6,r2
  80ad0c:	2a400117 	ldw	r9,4(r5)
  80ad10:	22000217 	ldw	r8,8(r4)
  80ad14:	00ffff04 	movi	r3,-4
  80ad18:	48c6703a 	and	r3,r9,r3
  80ad1c:	2a005726 	beq	r5,r8,80ae7c <_free_r+0x1ac>
  80ad20:	28c00115 	stw	r3,4(r5)
  80ad24:	39c0004c 	andi	r7,r7,1
  80ad28:	3800091e 	bne	r7,zero,80ad50 <_free_r+0x80>
  80ad2c:	823ffe17 	ldw	r8,-8(r16)
  80ad30:	22400204 	addi	r9,r4,8
  80ad34:	320dc83a 	sub	r6,r6,r8
  80ad38:	31c00217 	ldw	r7,8(r6)
  80ad3c:	1205883a 	add	r2,r2,r8
  80ad40:	3a406526 	beq	r7,r9,80aed8 <_free_r+0x208>
  80ad44:	32000317 	ldw	r8,12(r6)
  80ad48:	3a000315 	stw	r8,12(r7)
  80ad4c:	41c00215 	stw	r7,8(r8)
  80ad50:	28cf883a 	add	r7,r5,r3
  80ad54:	39c00117 	ldw	r7,4(r7)
  80ad58:	39c0004c 	andi	r7,r7,1
  80ad5c:	38003a26 	beq	r7,zero,80ae48 <_free_r+0x178>
  80ad60:	10c00054 	ori	r3,r2,1
  80ad64:	30c00115 	stw	r3,4(r6)
  80ad68:	3087883a 	add	r3,r6,r2
  80ad6c:	18800015 	stw	r2,0(r3)
  80ad70:	00c07fc4 	movi	r3,511
  80ad74:	18801936 	bltu	r3,r2,80addc <_free_r+0x10c>
  80ad78:	1004d0fa 	srli	r2,r2,3
  80ad7c:	01c00044 	movi	r7,1
  80ad80:	21400117 	ldw	r5,4(r4)
  80ad84:	10c00044 	addi	r3,r2,1
  80ad88:	18c7883a 	add	r3,r3,r3
  80ad8c:	1005d0ba 	srai	r2,r2,2
  80ad90:	18c7883a 	add	r3,r3,r3
  80ad94:	18c7883a 	add	r3,r3,r3
  80ad98:	1907883a 	add	r3,r3,r4
  80ad9c:	3884983a 	sll	r2,r7,r2
  80ada0:	19c00017 	ldw	r7,0(r3)
  80ada4:	1a3ffe04 	addi	r8,r3,-8
  80ada8:	1144b03a 	or	r2,r2,r5
  80adac:	32000315 	stw	r8,12(r6)
  80adb0:	31c00215 	stw	r7,8(r6)
  80adb4:	20800115 	stw	r2,4(r4)
  80adb8:	19800015 	stw	r6,0(r3)
  80adbc:	39800315 	stw	r6,12(r7)
  80adc0:	8809883a 	mov	r4,r17
  80adc4:	dfc00217 	ldw	ra,8(sp)
  80adc8:	dc400117 	ldw	r17,4(sp)
  80adcc:	dc000017 	ldw	r16,0(sp)
  80add0:	dec00304 	addi	sp,sp,12
  80add4:	080cafc1 	jmpi	80cafc <__malloc_unlock>
  80add8:	f800283a 	ret
  80addc:	100ad27a 	srli	r5,r2,9
  80ade0:	00c00104 	movi	r3,4
  80ade4:	19404a36 	bltu	r3,r5,80af10 <_free_r+0x240>
  80ade8:	100ad1ba 	srli	r5,r2,6
  80adec:	28c00e44 	addi	r3,r5,57
  80adf0:	18c7883a 	add	r3,r3,r3
  80adf4:	29400e04 	addi	r5,r5,56
  80adf8:	18c7883a 	add	r3,r3,r3
  80adfc:	18c7883a 	add	r3,r3,r3
  80ae00:	1909883a 	add	r4,r3,r4
  80ae04:	20c00017 	ldw	r3,0(r4)
  80ae08:	01c02074 	movhi	r7,129
  80ae0c:	213ffe04 	addi	r4,r4,-8
  80ae10:	39c35d04 	addi	r7,r7,3444
  80ae14:	20c04426 	beq	r4,r3,80af28 <_free_r+0x258>
  80ae18:	01ffff04 	movi	r7,-4
  80ae1c:	19400117 	ldw	r5,4(r3)
  80ae20:	29ca703a 	and	r5,r5,r7
  80ae24:	1140022e 	bgeu	r2,r5,80ae30 <_free_r+0x160>
  80ae28:	18c00217 	ldw	r3,8(r3)
  80ae2c:	20fffb1e 	bne	r4,r3,80ae1c <__alt_mem_onchip_mem+0xff802e1c>
  80ae30:	19000317 	ldw	r4,12(r3)
  80ae34:	31000315 	stw	r4,12(r6)
  80ae38:	30c00215 	stw	r3,8(r6)
  80ae3c:	21800215 	stw	r6,8(r4)
  80ae40:	19800315 	stw	r6,12(r3)
  80ae44:	003fde06 	br	80adc0 <__alt_mem_onchip_mem+0xff802dc0>
  80ae48:	29c00217 	ldw	r7,8(r5)
  80ae4c:	10c5883a 	add	r2,r2,r3
  80ae50:	00c02074 	movhi	r3,129
  80ae54:	18c35f04 	addi	r3,r3,3452
  80ae58:	38c03b26 	beq	r7,r3,80af48 <_free_r+0x278>
  80ae5c:	2a000317 	ldw	r8,12(r5)
  80ae60:	11400054 	ori	r5,r2,1
  80ae64:	3087883a 	add	r3,r6,r2
  80ae68:	3a000315 	stw	r8,12(r7)
  80ae6c:	41c00215 	stw	r7,8(r8)
  80ae70:	31400115 	stw	r5,4(r6)
  80ae74:	18800015 	stw	r2,0(r3)
  80ae78:	003fbd06 	br	80ad70 <__alt_mem_onchip_mem+0xff802d70>
  80ae7c:	39c0004c 	andi	r7,r7,1
  80ae80:	10c5883a 	add	r2,r2,r3
  80ae84:	3800071e 	bne	r7,zero,80aea4 <_free_r+0x1d4>
  80ae88:	81fffe17 	ldw	r7,-8(r16)
  80ae8c:	31cdc83a 	sub	r6,r6,r7
  80ae90:	30c00317 	ldw	r3,12(r6)
  80ae94:	31400217 	ldw	r5,8(r6)
  80ae98:	11c5883a 	add	r2,r2,r7
  80ae9c:	28c00315 	stw	r3,12(r5)
  80aea0:	19400215 	stw	r5,8(r3)
  80aea4:	10c00054 	ori	r3,r2,1
  80aea8:	30c00115 	stw	r3,4(r6)
  80aeac:	00c02074 	movhi	r3,129
  80aeb0:	18c95e04 	addi	r3,r3,9592
  80aeb4:	18c00017 	ldw	r3,0(r3)
  80aeb8:	21800215 	stw	r6,8(r4)
  80aebc:	10ffc036 	bltu	r2,r3,80adc0 <__alt_mem_onchip_mem+0xff802dc0>
  80aec0:	00802074 	movhi	r2,129
  80aec4:	10908904 	addi	r2,r2,16932
  80aec8:	11400017 	ldw	r5,0(r2)
  80aecc:	8809883a 	mov	r4,r17
  80aed0:	080abac0 	call	80abac <_malloc_trim_r>
  80aed4:	003fba06 	br	80adc0 <__alt_mem_onchip_mem+0xff802dc0>
  80aed8:	28c9883a 	add	r4,r5,r3
  80aedc:	21000117 	ldw	r4,4(r4)
  80aee0:	2100004c 	andi	r4,r4,1
  80aee4:	2000391e 	bne	r4,zero,80afcc <_free_r+0x2fc>
  80aee8:	29c00217 	ldw	r7,8(r5)
  80aeec:	29000317 	ldw	r4,12(r5)
  80aef0:	1885883a 	add	r2,r3,r2
  80aef4:	10c00054 	ori	r3,r2,1
  80aef8:	39000315 	stw	r4,12(r7)
  80aefc:	21c00215 	stw	r7,8(r4)
  80af00:	30c00115 	stw	r3,4(r6)
  80af04:	308d883a 	add	r6,r6,r2
  80af08:	30800015 	stw	r2,0(r6)
  80af0c:	003fac06 	br	80adc0 <__alt_mem_onchip_mem+0xff802dc0>
  80af10:	00c00504 	movi	r3,20
  80af14:	19401536 	bltu	r3,r5,80af6c <_free_r+0x29c>
  80af18:	28c01704 	addi	r3,r5,92
  80af1c:	18c7883a 	add	r3,r3,r3
  80af20:	294016c4 	addi	r5,r5,91
  80af24:	003fb406 	br	80adf8 <__alt_mem_onchip_mem+0xff802df8>
  80af28:	280bd0ba 	srai	r5,r5,2
  80af2c:	00c00044 	movi	r3,1
  80af30:	38800117 	ldw	r2,4(r7)
  80af34:	194a983a 	sll	r5,r3,r5
  80af38:	2007883a 	mov	r3,r4
  80af3c:	2884b03a 	or	r2,r5,r2
  80af40:	38800115 	stw	r2,4(r7)
  80af44:	003fbb06 	br	80ae34 <__alt_mem_onchip_mem+0xff802e34>
  80af48:	21800515 	stw	r6,20(r4)
  80af4c:	21800415 	stw	r6,16(r4)
  80af50:	10c00054 	ori	r3,r2,1
  80af54:	31c00315 	stw	r7,12(r6)
  80af58:	31c00215 	stw	r7,8(r6)
  80af5c:	30c00115 	stw	r3,4(r6)
  80af60:	308d883a 	add	r6,r6,r2
  80af64:	30800015 	stw	r2,0(r6)
  80af68:	003f9506 	br	80adc0 <__alt_mem_onchip_mem+0xff802dc0>
  80af6c:	00c01504 	movi	r3,84
  80af70:	19400536 	bltu	r3,r5,80af88 <_free_r+0x2b8>
  80af74:	100ad33a 	srli	r5,r2,12
  80af78:	28c01bc4 	addi	r3,r5,111
  80af7c:	18c7883a 	add	r3,r3,r3
  80af80:	29401b84 	addi	r5,r5,110
  80af84:	003f9c06 	br	80adf8 <__alt_mem_onchip_mem+0xff802df8>
  80af88:	00c05504 	movi	r3,340
  80af8c:	19400536 	bltu	r3,r5,80afa4 <_free_r+0x2d4>
  80af90:	100ad3fa 	srli	r5,r2,15
  80af94:	28c01e04 	addi	r3,r5,120
  80af98:	18c7883a 	add	r3,r3,r3
  80af9c:	29401dc4 	addi	r5,r5,119
  80afa0:	003f9506 	br	80adf8 <__alt_mem_onchip_mem+0xff802df8>
  80afa4:	00c15504 	movi	r3,1364
  80afa8:	19400536 	bltu	r3,r5,80afc0 <_free_r+0x2f0>
  80afac:	100ad4ba 	srli	r5,r2,18
  80afb0:	28c01f44 	addi	r3,r5,125
  80afb4:	18c7883a 	add	r3,r3,r3
  80afb8:	29401f04 	addi	r5,r5,124
  80afbc:	003f8e06 	br	80adf8 <__alt_mem_onchip_mem+0xff802df8>
  80afc0:	00c03f84 	movi	r3,254
  80afc4:	01401f84 	movi	r5,126
  80afc8:	003f8b06 	br	80adf8 <__alt_mem_onchip_mem+0xff802df8>
  80afcc:	10c00054 	ori	r3,r2,1
  80afd0:	30c00115 	stw	r3,4(r6)
  80afd4:	308d883a 	add	r6,r6,r2
  80afd8:	30800015 	stw	r2,0(r6)
  80afdc:	003f7806 	br	80adc0 <__alt_mem_onchip_mem+0xff802dc0>

0080afe0 <__sfvwrite_r>:
  80afe0:	30800217 	ldw	r2,8(r6)
  80afe4:	10006726 	beq	r2,zero,80b184 <__sfvwrite_r+0x1a4>
  80afe8:	28c0030b 	ldhu	r3,12(r5)
  80afec:	defff404 	addi	sp,sp,-48
  80aff0:	dd400715 	stw	r21,28(sp)
  80aff4:	dd000615 	stw	r20,24(sp)
  80aff8:	dc000215 	stw	r16,8(sp)
  80affc:	dfc00b15 	stw	ra,44(sp)
  80b000:	df000a15 	stw	fp,40(sp)
  80b004:	ddc00915 	stw	r23,36(sp)
  80b008:	dd800815 	stw	r22,32(sp)
  80b00c:	dcc00515 	stw	r19,20(sp)
  80b010:	dc800415 	stw	r18,16(sp)
  80b014:	dc400315 	stw	r17,12(sp)
  80b018:	1880020c 	andi	r2,r3,8
  80b01c:	2821883a 	mov	r16,r5
  80b020:	202b883a 	mov	r21,r4
  80b024:	3029883a 	mov	r20,r6
  80b028:	10002726 	beq	r2,zero,80b0c8 <__sfvwrite_r+0xe8>
  80b02c:	28800417 	ldw	r2,16(r5)
  80b030:	10002526 	beq	r2,zero,80b0c8 <__sfvwrite_r+0xe8>
  80b034:	1880008c 	andi	r2,r3,2
  80b038:	a4400017 	ldw	r17,0(r20)
  80b03c:	10002a26 	beq	r2,zero,80b0e8 <__sfvwrite_r+0x108>
  80b040:	05a00034 	movhi	r22,32768
  80b044:	0027883a 	mov	r19,zero
  80b048:	0025883a 	mov	r18,zero
  80b04c:	b5bf0004 	addi	r22,r22,-1024
  80b050:	980d883a 	mov	r6,r19
  80b054:	a809883a 	mov	r4,r21
  80b058:	90004626 	beq	r18,zero,80b174 <__sfvwrite_r+0x194>
  80b05c:	900f883a 	mov	r7,r18
  80b060:	b480022e 	bgeu	r22,r18,80b06c <__sfvwrite_r+0x8c>
  80b064:	01e00034 	movhi	r7,32768
  80b068:	39ff0004 	addi	r7,r7,-1024
  80b06c:	80800917 	ldw	r2,36(r16)
  80b070:	81400717 	ldw	r5,28(r16)
  80b074:	103ee83a 	callr	r2
  80b078:	0080570e 	bge	zero,r2,80b1d8 <__sfvwrite_r+0x1f8>
  80b07c:	a0c00217 	ldw	r3,8(r20)
  80b080:	98a7883a 	add	r19,r19,r2
  80b084:	90a5c83a 	sub	r18,r18,r2
  80b088:	1885c83a 	sub	r2,r3,r2
  80b08c:	a0800215 	stw	r2,8(r20)
  80b090:	103fef1e 	bne	r2,zero,80b050 <__alt_mem_onchip_mem+0xff803050>
  80b094:	0005883a 	mov	r2,zero
  80b098:	dfc00b17 	ldw	ra,44(sp)
  80b09c:	df000a17 	ldw	fp,40(sp)
  80b0a0:	ddc00917 	ldw	r23,36(sp)
  80b0a4:	dd800817 	ldw	r22,32(sp)
  80b0a8:	dd400717 	ldw	r21,28(sp)
  80b0ac:	dd000617 	ldw	r20,24(sp)
  80b0b0:	dcc00517 	ldw	r19,20(sp)
  80b0b4:	dc800417 	ldw	r18,16(sp)
  80b0b8:	dc400317 	ldw	r17,12(sp)
  80b0bc:	dc000217 	ldw	r16,8(sp)
  80b0c0:	dec00c04 	addi	sp,sp,48
  80b0c4:	f800283a 	ret
  80b0c8:	800b883a 	mov	r5,r16
  80b0cc:	a809883a 	mov	r4,r21
  80b0d0:	080c0240 	call	80c024 <__swsetup_r>
  80b0d4:	1000eb1e 	bne	r2,zero,80b484 <__sfvwrite_r+0x4a4>
  80b0d8:	80c0030b 	ldhu	r3,12(r16)
  80b0dc:	a4400017 	ldw	r17,0(r20)
  80b0e0:	1880008c 	andi	r2,r3,2
  80b0e4:	103fd61e 	bne	r2,zero,80b040 <__alt_mem_onchip_mem+0xff803040>
  80b0e8:	1880004c 	andi	r2,r3,1
  80b0ec:	10003f1e 	bne	r2,zero,80b1ec <__sfvwrite_r+0x20c>
  80b0f0:	0039883a 	mov	fp,zero
  80b0f4:	0025883a 	mov	r18,zero
  80b0f8:	90001a26 	beq	r18,zero,80b164 <__sfvwrite_r+0x184>
  80b0fc:	1880800c 	andi	r2,r3,512
  80b100:	84c00217 	ldw	r19,8(r16)
  80b104:	10002126 	beq	r2,zero,80b18c <__sfvwrite_r+0x1ac>
  80b108:	982f883a 	mov	r23,r19
  80b10c:	94c09336 	bltu	r18,r19,80b35c <__sfvwrite_r+0x37c>
  80b110:	1881200c 	andi	r2,r3,1152
  80b114:	10009e1e 	bne	r2,zero,80b390 <__sfvwrite_r+0x3b0>
  80b118:	81000017 	ldw	r4,0(r16)
  80b11c:	b80d883a 	mov	r6,r23
  80b120:	e00b883a 	mov	r5,fp
  80b124:	080b9040 	call	80b904 <memmove>
  80b128:	80c00217 	ldw	r3,8(r16)
  80b12c:	81000017 	ldw	r4,0(r16)
  80b130:	9005883a 	mov	r2,r18
  80b134:	1ce7c83a 	sub	r19,r3,r19
  80b138:	25cf883a 	add	r7,r4,r23
  80b13c:	84c00215 	stw	r19,8(r16)
  80b140:	81c00015 	stw	r7,0(r16)
  80b144:	a0c00217 	ldw	r3,8(r20)
  80b148:	e0b9883a 	add	fp,fp,r2
  80b14c:	90a5c83a 	sub	r18,r18,r2
  80b150:	18a7c83a 	sub	r19,r3,r2
  80b154:	a4c00215 	stw	r19,8(r20)
  80b158:	983fce26 	beq	r19,zero,80b094 <__alt_mem_onchip_mem+0xff803094>
  80b15c:	80c0030b 	ldhu	r3,12(r16)
  80b160:	903fe61e 	bne	r18,zero,80b0fc <__alt_mem_onchip_mem+0xff8030fc>
  80b164:	8f000017 	ldw	fp,0(r17)
  80b168:	8c800117 	ldw	r18,4(r17)
  80b16c:	8c400204 	addi	r17,r17,8
  80b170:	003fe106 	br	80b0f8 <__alt_mem_onchip_mem+0xff8030f8>
  80b174:	8cc00017 	ldw	r19,0(r17)
  80b178:	8c800117 	ldw	r18,4(r17)
  80b17c:	8c400204 	addi	r17,r17,8
  80b180:	003fb306 	br	80b050 <__alt_mem_onchip_mem+0xff803050>
  80b184:	0005883a 	mov	r2,zero
  80b188:	f800283a 	ret
  80b18c:	81000017 	ldw	r4,0(r16)
  80b190:	80800417 	ldw	r2,16(r16)
  80b194:	11005736 	bltu	r2,r4,80b2f4 <__sfvwrite_r+0x314>
  80b198:	85c00517 	ldw	r23,20(r16)
  80b19c:	95c05536 	bltu	r18,r23,80b2f4 <__sfvwrite_r+0x314>
  80b1a0:	00a00034 	movhi	r2,32768
  80b1a4:	10bfffc4 	addi	r2,r2,-1
  80b1a8:	9009883a 	mov	r4,r18
  80b1ac:	1480012e 	bgeu	r2,r18,80b1b4 <__sfvwrite_r+0x1d4>
  80b1b0:	1009883a 	mov	r4,r2
  80b1b4:	b80b883a 	mov	r5,r23
  80b1b8:	080c27c0 	call	80c27c <__divsi3>
  80b1bc:	15cf383a 	mul	r7,r2,r23
  80b1c0:	81400717 	ldw	r5,28(r16)
  80b1c4:	80800917 	ldw	r2,36(r16)
  80b1c8:	e00d883a 	mov	r6,fp
  80b1cc:	a809883a 	mov	r4,r21
  80b1d0:	103ee83a 	callr	r2
  80b1d4:	00bfdb16 	blt	zero,r2,80b144 <__alt_mem_onchip_mem+0xff803144>
  80b1d8:	8080030b 	ldhu	r2,12(r16)
  80b1dc:	10801014 	ori	r2,r2,64
  80b1e0:	8080030d 	sth	r2,12(r16)
  80b1e4:	00bfffc4 	movi	r2,-1
  80b1e8:	003fab06 	br	80b098 <__alt_mem_onchip_mem+0xff803098>
  80b1ec:	0027883a 	mov	r19,zero
  80b1f0:	0011883a 	mov	r8,zero
  80b1f4:	0039883a 	mov	fp,zero
  80b1f8:	0025883a 	mov	r18,zero
  80b1fc:	90001f26 	beq	r18,zero,80b27c <__sfvwrite_r+0x29c>
  80b200:	40005a26 	beq	r8,zero,80b36c <__sfvwrite_r+0x38c>
  80b204:	982d883a 	mov	r22,r19
  80b208:	94c0012e 	bgeu	r18,r19,80b210 <__sfvwrite_r+0x230>
  80b20c:	902d883a 	mov	r22,r18
  80b210:	81000017 	ldw	r4,0(r16)
  80b214:	80800417 	ldw	r2,16(r16)
  80b218:	b02f883a 	mov	r23,r22
  80b21c:	81c00517 	ldw	r7,20(r16)
  80b220:	1100032e 	bgeu	r2,r4,80b230 <__sfvwrite_r+0x250>
  80b224:	80c00217 	ldw	r3,8(r16)
  80b228:	38c7883a 	add	r3,r7,r3
  80b22c:	1d801816 	blt	r3,r22,80b290 <__sfvwrite_r+0x2b0>
  80b230:	b1c03e16 	blt	r22,r7,80b32c <__sfvwrite_r+0x34c>
  80b234:	80800917 	ldw	r2,36(r16)
  80b238:	81400717 	ldw	r5,28(r16)
  80b23c:	e00d883a 	mov	r6,fp
  80b240:	da000115 	stw	r8,4(sp)
  80b244:	a809883a 	mov	r4,r21
  80b248:	103ee83a 	callr	r2
  80b24c:	102f883a 	mov	r23,r2
  80b250:	da000117 	ldw	r8,4(sp)
  80b254:	00bfe00e 	bge	zero,r2,80b1d8 <__alt_mem_onchip_mem+0xff8031d8>
  80b258:	9de7c83a 	sub	r19,r19,r23
  80b25c:	98001f26 	beq	r19,zero,80b2dc <__sfvwrite_r+0x2fc>
  80b260:	a0800217 	ldw	r2,8(r20)
  80b264:	e5f9883a 	add	fp,fp,r23
  80b268:	95e5c83a 	sub	r18,r18,r23
  80b26c:	15efc83a 	sub	r23,r2,r23
  80b270:	a5c00215 	stw	r23,8(r20)
  80b274:	b83f8726 	beq	r23,zero,80b094 <__alt_mem_onchip_mem+0xff803094>
  80b278:	903fe11e 	bne	r18,zero,80b200 <__alt_mem_onchip_mem+0xff803200>
  80b27c:	8f000017 	ldw	fp,0(r17)
  80b280:	8c800117 	ldw	r18,4(r17)
  80b284:	0011883a 	mov	r8,zero
  80b288:	8c400204 	addi	r17,r17,8
  80b28c:	003fdb06 	br	80b1fc <__alt_mem_onchip_mem+0xff8031fc>
  80b290:	180d883a 	mov	r6,r3
  80b294:	e00b883a 	mov	r5,fp
  80b298:	da000115 	stw	r8,4(sp)
  80b29c:	d8c00015 	stw	r3,0(sp)
  80b2a0:	080b9040 	call	80b904 <memmove>
  80b2a4:	d8c00017 	ldw	r3,0(sp)
  80b2a8:	80800017 	ldw	r2,0(r16)
  80b2ac:	800b883a 	mov	r5,r16
  80b2b0:	a809883a 	mov	r4,r21
  80b2b4:	10c5883a 	add	r2,r2,r3
  80b2b8:	80800015 	stw	r2,0(r16)
  80b2bc:	d8c00015 	stw	r3,0(sp)
  80b2c0:	080a6d40 	call	80a6d4 <_fflush_r>
  80b2c4:	d8c00017 	ldw	r3,0(sp)
  80b2c8:	da000117 	ldw	r8,4(sp)
  80b2cc:	103fc21e 	bne	r2,zero,80b1d8 <__alt_mem_onchip_mem+0xff8031d8>
  80b2d0:	182f883a 	mov	r23,r3
  80b2d4:	9de7c83a 	sub	r19,r19,r23
  80b2d8:	983fe11e 	bne	r19,zero,80b260 <__alt_mem_onchip_mem+0xff803260>
  80b2dc:	800b883a 	mov	r5,r16
  80b2e0:	a809883a 	mov	r4,r21
  80b2e4:	080a6d40 	call	80a6d4 <_fflush_r>
  80b2e8:	103fbb1e 	bne	r2,zero,80b1d8 <__alt_mem_onchip_mem+0xff8031d8>
  80b2ec:	0011883a 	mov	r8,zero
  80b2f0:	003fdb06 	br	80b260 <__alt_mem_onchip_mem+0xff803260>
  80b2f4:	94c0012e 	bgeu	r18,r19,80b2fc <__sfvwrite_r+0x31c>
  80b2f8:	9027883a 	mov	r19,r18
  80b2fc:	980d883a 	mov	r6,r19
  80b300:	e00b883a 	mov	r5,fp
  80b304:	080b9040 	call	80b904 <memmove>
  80b308:	80800217 	ldw	r2,8(r16)
  80b30c:	80c00017 	ldw	r3,0(r16)
  80b310:	14c5c83a 	sub	r2,r2,r19
  80b314:	1cc7883a 	add	r3,r3,r19
  80b318:	80800215 	stw	r2,8(r16)
  80b31c:	80c00015 	stw	r3,0(r16)
  80b320:	10004326 	beq	r2,zero,80b430 <__sfvwrite_r+0x450>
  80b324:	9805883a 	mov	r2,r19
  80b328:	003f8606 	br	80b144 <__alt_mem_onchip_mem+0xff803144>
  80b32c:	b00d883a 	mov	r6,r22
  80b330:	e00b883a 	mov	r5,fp
  80b334:	da000115 	stw	r8,4(sp)
  80b338:	080b9040 	call	80b904 <memmove>
  80b33c:	80800217 	ldw	r2,8(r16)
  80b340:	80c00017 	ldw	r3,0(r16)
  80b344:	da000117 	ldw	r8,4(sp)
  80b348:	1585c83a 	sub	r2,r2,r22
  80b34c:	1dad883a 	add	r22,r3,r22
  80b350:	80800215 	stw	r2,8(r16)
  80b354:	85800015 	stw	r22,0(r16)
  80b358:	003fbf06 	br	80b258 <__alt_mem_onchip_mem+0xff803258>
  80b35c:	81000017 	ldw	r4,0(r16)
  80b360:	9027883a 	mov	r19,r18
  80b364:	902f883a 	mov	r23,r18
  80b368:	003f6c06 	br	80b11c <__alt_mem_onchip_mem+0xff80311c>
  80b36c:	900d883a 	mov	r6,r18
  80b370:	01400284 	movi	r5,10
  80b374:	e009883a 	mov	r4,fp
  80b378:	080b6d80 	call	80b6d8 <memchr>
  80b37c:	10003e26 	beq	r2,zero,80b478 <__sfvwrite_r+0x498>
  80b380:	10800044 	addi	r2,r2,1
  80b384:	1727c83a 	sub	r19,r2,fp
  80b388:	02000044 	movi	r8,1
  80b38c:	003f9d06 	br	80b204 <__alt_mem_onchip_mem+0xff803204>
  80b390:	80800517 	ldw	r2,20(r16)
  80b394:	81400417 	ldw	r5,16(r16)
  80b398:	81c00017 	ldw	r7,0(r16)
  80b39c:	10a7883a 	add	r19,r2,r2
  80b3a0:	9885883a 	add	r2,r19,r2
  80b3a4:	1026d7fa 	srli	r19,r2,31
  80b3a8:	396dc83a 	sub	r22,r7,r5
  80b3ac:	b1000044 	addi	r4,r22,1
  80b3b0:	9885883a 	add	r2,r19,r2
  80b3b4:	1027d07a 	srai	r19,r2,1
  80b3b8:	2485883a 	add	r2,r4,r18
  80b3bc:	980d883a 	mov	r6,r19
  80b3c0:	9880022e 	bgeu	r19,r2,80b3cc <__sfvwrite_r+0x3ec>
  80b3c4:	1027883a 	mov	r19,r2
  80b3c8:	100d883a 	mov	r6,r2
  80b3cc:	18c1000c 	andi	r3,r3,1024
  80b3d0:	18001c26 	beq	r3,zero,80b444 <__sfvwrite_r+0x464>
  80b3d4:	300b883a 	mov	r5,r6
  80b3d8:	a809883a 	mov	r4,r21
  80b3dc:	08095840 	call	809584 <_malloc_r>
  80b3e0:	102f883a 	mov	r23,r2
  80b3e4:	10002926 	beq	r2,zero,80b48c <__sfvwrite_r+0x4ac>
  80b3e8:	81400417 	ldw	r5,16(r16)
  80b3ec:	b00d883a 	mov	r6,r22
  80b3f0:	1009883a 	mov	r4,r2
  80b3f4:	080b7bc0 	call	80b7bc <memcpy>
  80b3f8:	8080030b 	ldhu	r2,12(r16)
  80b3fc:	00fedfc4 	movi	r3,-1153
  80b400:	10c4703a 	and	r2,r2,r3
  80b404:	10802014 	ori	r2,r2,128
  80b408:	8080030d 	sth	r2,12(r16)
  80b40c:	bd89883a 	add	r4,r23,r22
  80b410:	9d8fc83a 	sub	r7,r19,r22
  80b414:	85c00415 	stw	r23,16(r16)
  80b418:	84c00515 	stw	r19,20(r16)
  80b41c:	81000015 	stw	r4,0(r16)
  80b420:	9027883a 	mov	r19,r18
  80b424:	81c00215 	stw	r7,8(r16)
  80b428:	902f883a 	mov	r23,r18
  80b42c:	003f3b06 	br	80b11c <__alt_mem_onchip_mem+0xff80311c>
  80b430:	800b883a 	mov	r5,r16
  80b434:	a809883a 	mov	r4,r21
  80b438:	080a6d40 	call	80a6d4 <_fflush_r>
  80b43c:	103fb926 	beq	r2,zero,80b324 <__alt_mem_onchip_mem+0xff803324>
  80b440:	003f6506 	br	80b1d8 <__alt_mem_onchip_mem+0xff8031d8>
  80b444:	a809883a 	mov	r4,r21
  80b448:	080bac00 	call	80bac0 <_realloc_r>
  80b44c:	102f883a 	mov	r23,r2
  80b450:	103fee1e 	bne	r2,zero,80b40c <__alt_mem_onchip_mem+0xff80340c>
  80b454:	81400417 	ldw	r5,16(r16)
  80b458:	a809883a 	mov	r4,r21
  80b45c:	080acd00 	call	80acd0 <_free_r>
  80b460:	8080030b 	ldhu	r2,12(r16)
  80b464:	00ffdfc4 	movi	r3,-129
  80b468:	1884703a 	and	r2,r3,r2
  80b46c:	00c00304 	movi	r3,12
  80b470:	a8c00015 	stw	r3,0(r21)
  80b474:	003f5906 	br	80b1dc <__alt_mem_onchip_mem+0xff8031dc>
  80b478:	94c00044 	addi	r19,r18,1
  80b47c:	02000044 	movi	r8,1
  80b480:	003f6006 	br	80b204 <__alt_mem_onchip_mem+0xff803204>
  80b484:	00bfffc4 	movi	r2,-1
  80b488:	003f0306 	br	80b098 <__alt_mem_onchip_mem+0xff803098>
  80b48c:	00800304 	movi	r2,12
  80b490:	a8800015 	stw	r2,0(r21)
  80b494:	8080030b 	ldhu	r2,12(r16)
  80b498:	003f5006 	br	80b1dc <__alt_mem_onchip_mem+0xff8031dc>

0080b49c <_fwalk>:
  80b49c:	defff704 	addi	sp,sp,-36
  80b4a0:	dd000415 	stw	r20,16(sp)
  80b4a4:	dfc00815 	stw	ra,32(sp)
  80b4a8:	ddc00715 	stw	r23,28(sp)
  80b4ac:	dd800615 	stw	r22,24(sp)
  80b4b0:	dd400515 	stw	r21,20(sp)
  80b4b4:	dcc00315 	stw	r19,12(sp)
  80b4b8:	dc800215 	stw	r18,8(sp)
  80b4bc:	dc400115 	stw	r17,4(sp)
  80b4c0:	dc000015 	stw	r16,0(sp)
  80b4c4:	2500b804 	addi	r20,r4,736
  80b4c8:	a0002326 	beq	r20,zero,80b558 <_fwalk+0xbc>
  80b4cc:	282b883a 	mov	r21,r5
  80b4d0:	002f883a 	mov	r23,zero
  80b4d4:	05800044 	movi	r22,1
  80b4d8:	04ffffc4 	movi	r19,-1
  80b4dc:	a4400117 	ldw	r17,4(r20)
  80b4e0:	a4800217 	ldw	r18,8(r20)
  80b4e4:	8c7fffc4 	addi	r17,r17,-1
  80b4e8:	88000d16 	blt	r17,zero,80b520 <_fwalk+0x84>
  80b4ec:	94000304 	addi	r16,r18,12
  80b4f0:	94800384 	addi	r18,r18,14
  80b4f4:	8080000b 	ldhu	r2,0(r16)
  80b4f8:	8c7fffc4 	addi	r17,r17,-1
  80b4fc:	813ffd04 	addi	r4,r16,-12
  80b500:	b080042e 	bgeu	r22,r2,80b514 <_fwalk+0x78>
  80b504:	9080000f 	ldh	r2,0(r18)
  80b508:	14c00226 	beq	r2,r19,80b514 <_fwalk+0x78>
  80b50c:	a83ee83a 	callr	r21
  80b510:	b8aeb03a 	or	r23,r23,r2
  80b514:	84001a04 	addi	r16,r16,104
  80b518:	94801a04 	addi	r18,r18,104
  80b51c:	8cfff51e 	bne	r17,r19,80b4f4 <__alt_mem_onchip_mem+0xff8034f4>
  80b520:	a5000017 	ldw	r20,0(r20)
  80b524:	a03fed1e 	bne	r20,zero,80b4dc <__alt_mem_onchip_mem+0xff8034dc>
  80b528:	b805883a 	mov	r2,r23
  80b52c:	dfc00817 	ldw	ra,32(sp)
  80b530:	ddc00717 	ldw	r23,28(sp)
  80b534:	dd800617 	ldw	r22,24(sp)
  80b538:	dd400517 	ldw	r21,20(sp)
  80b53c:	dd000417 	ldw	r20,16(sp)
  80b540:	dcc00317 	ldw	r19,12(sp)
  80b544:	dc800217 	ldw	r18,8(sp)
  80b548:	dc400117 	ldw	r17,4(sp)
  80b54c:	dc000017 	ldw	r16,0(sp)
  80b550:	dec00904 	addi	sp,sp,36
  80b554:	f800283a 	ret
  80b558:	002f883a 	mov	r23,zero
  80b55c:	003ff206 	br	80b528 <__alt_mem_onchip_mem+0xff803528>

0080b560 <_fwalk_reent>:
  80b560:	defff704 	addi	sp,sp,-36
  80b564:	dd000415 	stw	r20,16(sp)
  80b568:	dfc00815 	stw	ra,32(sp)
  80b56c:	ddc00715 	stw	r23,28(sp)
  80b570:	dd800615 	stw	r22,24(sp)
  80b574:	dd400515 	stw	r21,20(sp)
  80b578:	dcc00315 	stw	r19,12(sp)
  80b57c:	dc800215 	stw	r18,8(sp)
  80b580:	dc400115 	stw	r17,4(sp)
  80b584:	dc000015 	stw	r16,0(sp)
  80b588:	2500b804 	addi	r20,r4,736
  80b58c:	a0002326 	beq	r20,zero,80b61c <_fwalk_reent+0xbc>
  80b590:	282b883a 	mov	r21,r5
  80b594:	2027883a 	mov	r19,r4
  80b598:	002f883a 	mov	r23,zero
  80b59c:	05800044 	movi	r22,1
  80b5a0:	04bfffc4 	movi	r18,-1
  80b5a4:	a4400117 	ldw	r17,4(r20)
  80b5a8:	a4000217 	ldw	r16,8(r20)
  80b5ac:	8c7fffc4 	addi	r17,r17,-1
  80b5b0:	88000c16 	blt	r17,zero,80b5e4 <_fwalk_reent+0x84>
  80b5b4:	84000304 	addi	r16,r16,12
  80b5b8:	8080000b 	ldhu	r2,0(r16)
  80b5bc:	8c7fffc4 	addi	r17,r17,-1
  80b5c0:	817ffd04 	addi	r5,r16,-12
  80b5c4:	b080052e 	bgeu	r22,r2,80b5dc <_fwalk_reent+0x7c>
  80b5c8:	8080008f 	ldh	r2,2(r16)
  80b5cc:	9809883a 	mov	r4,r19
  80b5d0:	14800226 	beq	r2,r18,80b5dc <_fwalk_reent+0x7c>
  80b5d4:	a83ee83a 	callr	r21
  80b5d8:	b8aeb03a 	or	r23,r23,r2
  80b5dc:	84001a04 	addi	r16,r16,104
  80b5e0:	8cbff51e 	bne	r17,r18,80b5b8 <__alt_mem_onchip_mem+0xff8035b8>
  80b5e4:	a5000017 	ldw	r20,0(r20)
  80b5e8:	a03fee1e 	bne	r20,zero,80b5a4 <__alt_mem_onchip_mem+0xff8035a4>
  80b5ec:	b805883a 	mov	r2,r23
  80b5f0:	dfc00817 	ldw	ra,32(sp)
  80b5f4:	ddc00717 	ldw	r23,28(sp)
  80b5f8:	dd800617 	ldw	r22,24(sp)
  80b5fc:	dd400517 	ldw	r21,20(sp)
  80b600:	dd000417 	ldw	r20,16(sp)
  80b604:	dcc00317 	ldw	r19,12(sp)
  80b608:	dc800217 	ldw	r18,8(sp)
  80b60c:	dc400117 	ldw	r17,4(sp)
  80b610:	dc000017 	ldw	r16,0(sp)
  80b614:	dec00904 	addi	sp,sp,36
  80b618:	f800283a 	ret
  80b61c:	002f883a 	mov	r23,zero
  80b620:	003ff206 	br	80b5ec <__alt_mem_onchip_mem+0xff8035ec>

0080b624 <_isatty_r>:
  80b624:	defffd04 	addi	sp,sp,-12
  80b628:	dc000015 	stw	r16,0(sp)
  80b62c:	04002074 	movhi	r16,129
  80b630:	dc400115 	stw	r17,4(sp)
  80b634:	84108604 	addi	r16,r16,16920
  80b638:	2023883a 	mov	r17,r4
  80b63c:	2809883a 	mov	r4,r5
  80b640:	dfc00215 	stw	ra,8(sp)
  80b644:	80000015 	stw	zero,0(r16)
  80b648:	080c7bc0 	call	80c7bc <isatty>
  80b64c:	00ffffc4 	movi	r3,-1
  80b650:	10c00526 	beq	r2,r3,80b668 <_isatty_r+0x44>
  80b654:	dfc00217 	ldw	ra,8(sp)
  80b658:	dc400117 	ldw	r17,4(sp)
  80b65c:	dc000017 	ldw	r16,0(sp)
  80b660:	dec00304 	addi	sp,sp,12
  80b664:	f800283a 	ret
  80b668:	80c00017 	ldw	r3,0(r16)
  80b66c:	183ff926 	beq	r3,zero,80b654 <__alt_mem_onchip_mem+0xff803654>
  80b670:	88c00015 	stw	r3,0(r17)
  80b674:	003ff706 	br	80b654 <__alt_mem_onchip_mem+0xff803654>

0080b678 <_lseek_r>:
  80b678:	defffd04 	addi	sp,sp,-12
  80b67c:	2805883a 	mov	r2,r5
  80b680:	dc000015 	stw	r16,0(sp)
  80b684:	04002074 	movhi	r16,129
  80b688:	dc400115 	stw	r17,4(sp)
  80b68c:	300b883a 	mov	r5,r6
  80b690:	84108604 	addi	r16,r16,16920
  80b694:	2023883a 	mov	r17,r4
  80b698:	380d883a 	mov	r6,r7
  80b69c:	1009883a 	mov	r4,r2
  80b6a0:	dfc00215 	stw	ra,8(sp)
  80b6a4:	80000015 	stw	zero,0(r16)
  80b6a8:	080c9880 	call	80c988 <lseek>
  80b6ac:	00ffffc4 	movi	r3,-1
  80b6b0:	10c00526 	beq	r2,r3,80b6c8 <_lseek_r+0x50>
  80b6b4:	dfc00217 	ldw	ra,8(sp)
  80b6b8:	dc400117 	ldw	r17,4(sp)
  80b6bc:	dc000017 	ldw	r16,0(sp)
  80b6c0:	dec00304 	addi	sp,sp,12
  80b6c4:	f800283a 	ret
  80b6c8:	80c00017 	ldw	r3,0(r16)
  80b6cc:	183ff926 	beq	r3,zero,80b6b4 <__alt_mem_onchip_mem+0xff8036b4>
  80b6d0:	88c00015 	stw	r3,0(r17)
  80b6d4:	003ff706 	br	80b6b4 <__alt_mem_onchip_mem+0xff8036b4>

0080b6d8 <memchr>:
  80b6d8:	208000cc 	andi	r2,r4,3
  80b6dc:	280f883a 	mov	r7,r5
  80b6e0:	10003426 	beq	r2,zero,80b7b4 <memchr+0xdc>
  80b6e4:	30bfffc4 	addi	r2,r6,-1
  80b6e8:	30001a26 	beq	r6,zero,80b754 <memchr+0x7c>
  80b6ec:	20c00003 	ldbu	r3,0(r4)
  80b6f0:	29803fcc 	andi	r6,r5,255
  80b6f4:	30c0051e 	bne	r6,r3,80b70c <memchr+0x34>
  80b6f8:	00001806 	br	80b75c <memchr+0x84>
  80b6fc:	10001526 	beq	r2,zero,80b754 <memchr+0x7c>
  80b700:	20c00003 	ldbu	r3,0(r4)
  80b704:	10bfffc4 	addi	r2,r2,-1
  80b708:	30c01426 	beq	r6,r3,80b75c <memchr+0x84>
  80b70c:	21000044 	addi	r4,r4,1
  80b710:	20c000cc 	andi	r3,r4,3
  80b714:	183ff91e 	bne	r3,zero,80b6fc <__alt_mem_onchip_mem+0xff8036fc>
  80b718:	020000c4 	movi	r8,3
  80b71c:	40801136 	bltu	r8,r2,80b764 <memchr+0x8c>
  80b720:	10000c26 	beq	r2,zero,80b754 <memchr+0x7c>
  80b724:	20c00003 	ldbu	r3,0(r4)
  80b728:	29403fcc 	andi	r5,r5,255
  80b72c:	28c00b26 	beq	r5,r3,80b75c <memchr+0x84>
  80b730:	20c00044 	addi	r3,r4,1
  80b734:	39803fcc 	andi	r6,r7,255
  80b738:	2089883a 	add	r4,r4,r2
  80b73c:	00000306 	br	80b74c <memchr+0x74>
  80b740:	18c00044 	addi	r3,r3,1
  80b744:	197fffc3 	ldbu	r5,-1(r3)
  80b748:	31400526 	beq	r6,r5,80b760 <memchr+0x88>
  80b74c:	1805883a 	mov	r2,r3
  80b750:	20fffb1e 	bne	r4,r3,80b740 <__alt_mem_onchip_mem+0xff803740>
  80b754:	0005883a 	mov	r2,zero
  80b758:	f800283a 	ret
  80b75c:	2005883a 	mov	r2,r4
  80b760:	f800283a 	ret
  80b764:	28c03fcc 	andi	r3,r5,255
  80b768:	1812923a 	slli	r9,r3,8
  80b76c:	02ffbff4 	movhi	r11,65279
  80b770:	02a02074 	movhi	r10,32897
  80b774:	48d2b03a 	or	r9,r9,r3
  80b778:	4806943a 	slli	r3,r9,16
  80b77c:	5affbfc4 	addi	r11,r11,-257
  80b780:	52a02004 	addi	r10,r10,-32640
  80b784:	48d2b03a 	or	r9,r9,r3
  80b788:	20c00017 	ldw	r3,0(r4)
  80b78c:	48c6f03a 	xor	r3,r9,r3
  80b790:	1acd883a 	add	r6,r3,r11
  80b794:	00c6303a 	nor	r3,zero,r3
  80b798:	30c6703a 	and	r3,r6,r3
  80b79c:	1a86703a 	and	r3,r3,r10
  80b7a0:	183fe01e 	bne	r3,zero,80b724 <__alt_mem_onchip_mem+0xff803724>
  80b7a4:	10bfff04 	addi	r2,r2,-4
  80b7a8:	21000104 	addi	r4,r4,4
  80b7ac:	40bff636 	bltu	r8,r2,80b788 <__alt_mem_onchip_mem+0xff803788>
  80b7b0:	003fdb06 	br	80b720 <__alt_mem_onchip_mem+0xff803720>
  80b7b4:	3005883a 	mov	r2,r6
  80b7b8:	003fd706 	br	80b718 <__alt_mem_onchip_mem+0xff803718>

0080b7bc <memcpy>:
  80b7bc:	defffd04 	addi	sp,sp,-12
  80b7c0:	dfc00215 	stw	ra,8(sp)
  80b7c4:	dc400115 	stw	r17,4(sp)
  80b7c8:	dc000015 	stw	r16,0(sp)
  80b7cc:	00c003c4 	movi	r3,15
  80b7d0:	2005883a 	mov	r2,r4
  80b7d4:	1980452e 	bgeu	r3,r6,80b8ec <memcpy+0x130>
  80b7d8:	2906b03a 	or	r3,r5,r4
  80b7dc:	18c000cc 	andi	r3,r3,3
  80b7e0:	1800441e 	bne	r3,zero,80b8f4 <memcpy+0x138>
  80b7e4:	347ffc04 	addi	r17,r6,-16
  80b7e8:	8822d13a 	srli	r17,r17,4
  80b7ec:	28c00104 	addi	r3,r5,4
  80b7f0:	23400104 	addi	r13,r4,4
  80b7f4:	8820913a 	slli	r16,r17,4
  80b7f8:	2b000204 	addi	r12,r5,8
  80b7fc:	22c00204 	addi	r11,r4,8
  80b800:	84000504 	addi	r16,r16,20
  80b804:	2a800304 	addi	r10,r5,12
  80b808:	22400304 	addi	r9,r4,12
  80b80c:	2c21883a 	add	r16,r5,r16
  80b810:	2811883a 	mov	r8,r5
  80b814:	200f883a 	mov	r7,r4
  80b818:	41000017 	ldw	r4,0(r8)
  80b81c:	1fc00017 	ldw	ra,0(r3)
  80b820:	63c00017 	ldw	r15,0(r12)
  80b824:	39000015 	stw	r4,0(r7)
  80b828:	53800017 	ldw	r14,0(r10)
  80b82c:	6fc00015 	stw	ra,0(r13)
  80b830:	5bc00015 	stw	r15,0(r11)
  80b834:	4b800015 	stw	r14,0(r9)
  80b838:	18c00404 	addi	r3,r3,16
  80b83c:	39c00404 	addi	r7,r7,16
  80b840:	42000404 	addi	r8,r8,16
  80b844:	6b400404 	addi	r13,r13,16
  80b848:	63000404 	addi	r12,r12,16
  80b84c:	5ac00404 	addi	r11,r11,16
  80b850:	52800404 	addi	r10,r10,16
  80b854:	4a400404 	addi	r9,r9,16
  80b858:	1c3fef1e 	bne	r3,r16,80b818 <__alt_mem_onchip_mem+0xff803818>
  80b85c:	89c00044 	addi	r7,r17,1
  80b860:	380e913a 	slli	r7,r7,4
  80b864:	310003cc 	andi	r4,r6,15
  80b868:	02c000c4 	movi	r11,3
  80b86c:	11c7883a 	add	r3,r2,r7
  80b870:	29cb883a 	add	r5,r5,r7
  80b874:	5900212e 	bgeu	r11,r4,80b8fc <memcpy+0x140>
  80b878:	1813883a 	mov	r9,r3
  80b87c:	2811883a 	mov	r8,r5
  80b880:	200f883a 	mov	r7,r4
  80b884:	42800017 	ldw	r10,0(r8)
  80b888:	4a400104 	addi	r9,r9,4
  80b88c:	39ffff04 	addi	r7,r7,-4
  80b890:	4abfff15 	stw	r10,-4(r9)
  80b894:	42000104 	addi	r8,r8,4
  80b898:	59fffa36 	bltu	r11,r7,80b884 <__alt_mem_onchip_mem+0xff803884>
  80b89c:	213fff04 	addi	r4,r4,-4
  80b8a0:	2008d0ba 	srli	r4,r4,2
  80b8a4:	318000cc 	andi	r6,r6,3
  80b8a8:	21000044 	addi	r4,r4,1
  80b8ac:	2109883a 	add	r4,r4,r4
  80b8b0:	2109883a 	add	r4,r4,r4
  80b8b4:	1907883a 	add	r3,r3,r4
  80b8b8:	290b883a 	add	r5,r5,r4
  80b8bc:	30000626 	beq	r6,zero,80b8d8 <memcpy+0x11c>
  80b8c0:	198d883a 	add	r6,r3,r6
  80b8c4:	29c00003 	ldbu	r7,0(r5)
  80b8c8:	18c00044 	addi	r3,r3,1
  80b8cc:	29400044 	addi	r5,r5,1
  80b8d0:	19ffffc5 	stb	r7,-1(r3)
  80b8d4:	19bffb1e 	bne	r3,r6,80b8c4 <__alt_mem_onchip_mem+0xff8038c4>
  80b8d8:	dfc00217 	ldw	ra,8(sp)
  80b8dc:	dc400117 	ldw	r17,4(sp)
  80b8e0:	dc000017 	ldw	r16,0(sp)
  80b8e4:	dec00304 	addi	sp,sp,12
  80b8e8:	f800283a 	ret
  80b8ec:	2007883a 	mov	r3,r4
  80b8f0:	003ff206 	br	80b8bc <__alt_mem_onchip_mem+0xff8038bc>
  80b8f4:	2007883a 	mov	r3,r4
  80b8f8:	003ff106 	br	80b8c0 <__alt_mem_onchip_mem+0xff8038c0>
  80b8fc:	200d883a 	mov	r6,r4
  80b900:	003fee06 	br	80b8bc <__alt_mem_onchip_mem+0xff8038bc>

0080b904 <memmove>:
  80b904:	2005883a 	mov	r2,r4
  80b908:	29000b2e 	bgeu	r5,r4,80b938 <memmove+0x34>
  80b90c:	298f883a 	add	r7,r5,r6
  80b910:	21c0092e 	bgeu	r4,r7,80b938 <memmove+0x34>
  80b914:	2187883a 	add	r3,r4,r6
  80b918:	198bc83a 	sub	r5,r3,r6
  80b91c:	30004826 	beq	r6,zero,80ba40 <memmove+0x13c>
  80b920:	39ffffc4 	addi	r7,r7,-1
  80b924:	39000003 	ldbu	r4,0(r7)
  80b928:	18ffffc4 	addi	r3,r3,-1
  80b92c:	19000005 	stb	r4,0(r3)
  80b930:	28fffb1e 	bne	r5,r3,80b920 <__alt_mem_onchip_mem+0xff803920>
  80b934:	f800283a 	ret
  80b938:	00c003c4 	movi	r3,15
  80b93c:	1980412e 	bgeu	r3,r6,80ba44 <memmove+0x140>
  80b940:	2886b03a 	or	r3,r5,r2
  80b944:	18c000cc 	andi	r3,r3,3
  80b948:	1800401e 	bne	r3,zero,80ba4c <memmove+0x148>
  80b94c:	33fffc04 	addi	r15,r6,-16
  80b950:	781ed13a 	srli	r15,r15,4
  80b954:	28c00104 	addi	r3,r5,4
  80b958:	13400104 	addi	r13,r2,4
  80b95c:	781c913a 	slli	r14,r15,4
  80b960:	2b000204 	addi	r12,r5,8
  80b964:	12c00204 	addi	r11,r2,8
  80b968:	73800504 	addi	r14,r14,20
  80b96c:	2a800304 	addi	r10,r5,12
  80b970:	12400304 	addi	r9,r2,12
  80b974:	2b9d883a 	add	r14,r5,r14
  80b978:	2811883a 	mov	r8,r5
  80b97c:	100f883a 	mov	r7,r2
  80b980:	41000017 	ldw	r4,0(r8)
  80b984:	39c00404 	addi	r7,r7,16
  80b988:	18c00404 	addi	r3,r3,16
  80b98c:	393ffc15 	stw	r4,-16(r7)
  80b990:	193ffc17 	ldw	r4,-16(r3)
  80b994:	6b400404 	addi	r13,r13,16
  80b998:	5ac00404 	addi	r11,r11,16
  80b99c:	693ffc15 	stw	r4,-16(r13)
  80b9a0:	61000017 	ldw	r4,0(r12)
  80b9a4:	4a400404 	addi	r9,r9,16
  80b9a8:	42000404 	addi	r8,r8,16
  80b9ac:	593ffc15 	stw	r4,-16(r11)
  80b9b0:	51000017 	ldw	r4,0(r10)
  80b9b4:	63000404 	addi	r12,r12,16
  80b9b8:	52800404 	addi	r10,r10,16
  80b9bc:	493ffc15 	stw	r4,-16(r9)
  80b9c0:	1bbfef1e 	bne	r3,r14,80b980 <__alt_mem_onchip_mem+0xff803980>
  80b9c4:	79000044 	addi	r4,r15,1
  80b9c8:	2008913a 	slli	r4,r4,4
  80b9cc:	328003cc 	andi	r10,r6,15
  80b9d0:	02c000c4 	movi	r11,3
  80b9d4:	1107883a 	add	r3,r2,r4
  80b9d8:	290b883a 	add	r5,r5,r4
  80b9dc:	5a801e2e 	bgeu	r11,r10,80ba58 <memmove+0x154>
  80b9e0:	1813883a 	mov	r9,r3
  80b9e4:	2811883a 	mov	r8,r5
  80b9e8:	500f883a 	mov	r7,r10
  80b9ec:	41000017 	ldw	r4,0(r8)
  80b9f0:	4a400104 	addi	r9,r9,4
  80b9f4:	39ffff04 	addi	r7,r7,-4
  80b9f8:	493fff15 	stw	r4,-4(r9)
  80b9fc:	42000104 	addi	r8,r8,4
  80ba00:	59fffa36 	bltu	r11,r7,80b9ec <__alt_mem_onchip_mem+0xff8039ec>
  80ba04:	513fff04 	addi	r4,r10,-4
  80ba08:	2008d0ba 	srli	r4,r4,2
  80ba0c:	318000cc 	andi	r6,r6,3
  80ba10:	21000044 	addi	r4,r4,1
  80ba14:	2109883a 	add	r4,r4,r4
  80ba18:	2109883a 	add	r4,r4,r4
  80ba1c:	1907883a 	add	r3,r3,r4
  80ba20:	290b883a 	add	r5,r5,r4
  80ba24:	30000b26 	beq	r6,zero,80ba54 <memmove+0x150>
  80ba28:	198d883a 	add	r6,r3,r6
  80ba2c:	29c00003 	ldbu	r7,0(r5)
  80ba30:	18c00044 	addi	r3,r3,1
  80ba34:	29400044 	addi	r5,r5,1
  80ba38:	19ffffc5 	stb	r7,-1(r3)
  80ba3c:	19bffb1e 	bne	r3,r6,80ba2c <__alt_mem_onchip_mem+0xff803a2c>
  80ba40:	f800283a 	ret
  80ba44:	1007883a 	mov	r3,r2
  80ba48:	003ff606 	br	80ba24 <__alt_mem_onchip_mem+0xff803a24>
  80ba4c:	1007883a 	mov	r3,r2
  80ba50:	003ff506 	br	80ba28 <__alt_mem_onchip_mem+0xff803a28>
  80ba54:	f800283a 	ret
  80ba58:	500d883a 	mov	r6,r10
  80ba5c:	003ff106 	br	80ba24 <__alt_mem_onchip_mem+0xff803a24>

0080ba60 <_read_r>:
  80ba60:	defffd04 	addi	sp,sp,-12
  80ba64:	2805883a 	mov	r2,r5
  80ba68:	dc000015 	stw	r16,0(sp)
  80ba6c:	04002074 	movhi	r16,129
  80ba70:	dc400115 	stw	r17,4(sp)
  80ba74:	300b883a 	mov	r5,r6
  80ba78:	84108604 	addi	r16,r16,16920
  80ba7c:	2023883a 	mov	r17,r4
  80ba80:	380d883a 	mov	r6,r7
  80ba84:	1009883a 	mov	r4,r2
  80ba88:	dfc00215 	stw	ra,8(sp)
  80ba8c:	80000015 	stw	zero,0(r16)
  80ba90:	080cdb00 	call	80cdb0 <read>
  80ba94:	00ffffc4 	movi	r3,-1
  80ba98:	10c00526 	beq	r2,r3,80bab0 <_read_r+0x50>
  80ba9c:	dfc00217 	ldw	ra,8(sp)
  80baa0:	dc400117 	ldw	r17,4(sp)
  80baa4:	dc000017 	ldw	r16,0(sp)
  80baa8:	dec00304 	addi	sp,sp,12
  80baac:	f800283a 	ret
  80bab0:	80c00017 	ldw	r3,0(r16)
  80bab4:	183ff926 	beq	r3,zero,80ba9c <__alt_mem_onchip_mem+0xff803a9c>
  80bab8:	88c00015 	stw	r3,0(r17)
  80babc:	003ff706 	br	80ba9c <__alt_mem_onchip_mem+0xff803a9c>

0080bac0 <_realloc_r>:
  80bac0:	defff604 	addi	sp,sp,-40
  80bac4:	dc800215 	stw	r18,8(sp)
  80bac8:	dfc00915 	stw	ra,36(sp)
  80bacc:	df000815 	stw	fp,32(sp)
  80bad0:	ddc00715 	stw	r23,28(sp)
  80bad4:	dd800615 	stw	r22,24(sp)
  80bad8:	dd400515 	stw	r21,20(sp)
  80badc:	dd000415 	stw	r20,16(sp)
  80bae0:	dcc00315 	stw	r19,12(sp)
  80bae4:	dc400115 	stw	r17,4(sp)
  80bae8:	dc000015 	stw	r16,0(sp)
  80baec:	3025883a 	mov	r18,r6
  80baf0:	2800b726 	beq	r5,zero,80bdd0 <_realloc_r+0x310>
  80baf4:	282b883a 	mov	r21,r5
  80baf8:	2029883a 	mov	r20,r4
  80bafc:	080cad80 	call	80cad8 <__malloc_lock>
  80bb00:	a8bfff17 	ldw	r2,-4(r21)
  80bb04:	043fff04 	movi	r16,-4
  80bb08:	90c002c4 	addi	r3,r18,11
  80bb0c:	01000584 	movi	r4,22
  80bb10:	acfffe04 	addi	r19,r21,-8
  80bb14:	1420703a 	and	r16,r2,r16
  80bb18:	20c0332e 	bgeu	r4,r3,80bbe8 <_realloc_r+0x128>
  80bb1c:	047ffe04 	movi	r17,-8
  80bb20:	1c62703a 	and	r17,r3,r17
  80bb24:	8807883a 	mov	r3,r17
  80bb28:	88005816 	blt	r17,zero,80bc8c <_realloc_r+0x1cc>
  80bb2c:	8c805736 	bltu	r17,r18,80bc8c <_realloc_r+0x1cc>
  80bb30:	80c0300e 	bge	r16,r3,80bbf4 <_realloc_r+0x134>
  80bb34:	07002074 	movhi	fp,129
  80bb38:	e7035d04 	addi	fp,fp,3444
  80bb3c:	e1c00217 	ldw	r7,8(fp)
  80bb40:	9c09883a 	add	r4,r19,r16
  80bb44:	22000117 	ldw	r8,4(r4)
  80bb48:	21c06326 	beq	r4,r7,80bcd8 <_realloc_r+0x218>
  80bb4c:	017fff84 	movi	r5,-2
  80bb50:	414a703a 	and	r5,r8,r5
  80bb54:	214b883a 	add	r5,r4,r5
  80bb58:	29800117 	ldw	r6,4(r5)
  80bb5c:	3180004c 	andi	r6,r6,1
  80bb60:	30003f26 	beq	r6,zero,80bc60 <_realloc_r+0x1a0>
  80bb64:	1080004c 	andi	r2,r2,1
  80bb68:	10008326 	beq	r2,zero,80bd78 <_realloc_r+0x2b8>
  80bb6c:	900b883a 	mov	r5,r18
  80bb70:	a009883a 	mov	r4,r20
  80bb74:	08095840 	call	809584 <_malloc_r>
  80bb78:	1025883a 	mov	r18,r2
  80bb7c:	10011e26 	beq	r2,zero,80bff8 <_realloc_r+0x538>
  80bb80:	a93fff17 	ldw	r4,-4(r21)
  80bb84:	10fffe04 	addi	r3,r2,-8
  80bb88:	00bfff84 	movi	r2,-2
  80bb8c:	2084703a 	and	r2,r4,r2
  80bb90:	9885883a 	add	r2,r19,r2
  80bb94:	1880ee26 	beq	r3,r2,80bf50 <_realloc_r+0x490>
  80bb98:	81bfff04 	addi	r6,r16,-4
  80bb9c:	00800904 	movi	r2,36
  80bba0:	1180b836 	bltu	r2,r6,80be84 <_realloc_r+0x3c4>
  80bba4:	00c004c4 	movi	r3,19
  80bba8:	19809636 	bltu	r3,r6,80be04 <_realloc_r+0x344>
  80bbac:	9005883a 	mov	r2,r18
  80bbb0:	a807883a 	mov	r3,r21
  80bbb4:	19000017 	ldw	r4,0(r3)
  80bbb8:	11000015 	stw	r4,0(r2)
  80bbbc:	19000117 	ldw	r4,4(r3)
  80bbc0:	11000115 	stw	r4,4(r2)
  80bbc4:	18c00217 	ldw	r3,8(r3)
  80bbc8:	10c00215 	stw	r3,8(r2)
  80bbcc:	a80b883a 	mov	r5,r21
  80bbd0:	a009883a 	mov	r4,r20
  80bbd4:	080acd00 	call	80acd0 <_free_r>
  80bbd8:	a009883a 	mov	r4,r20
  80bbdc:	080cafc0 	call	80cafc <__malloc_unlock>
  80bbe0:	9005883a 	mov	r2,r18
  80bbe4:	00001206 	br	80bc30 <_realloc_r+0x170>
  80bbe8:	00c00404 	movi	r3,16
  80bbec:	1823883a 	mov	r17,r3
  80bbf0:	003fce06 	br	80bb2c <__alt_mem_onchip_mem+0xff803b2c>
  80bbf4:	a825883a 	mov	r18,r21
  80bbf8:	8445c83a 	sub	r2,r16,r17
  80bbfc:	00c003c4 	movi	r3,15
  80bc00:	18802636 	bltu	r3,r2,80bc9c <_realloc_r+0x1dc>
  80bc04:	99800117 	ldw	r6,4(r19)
  80bc08:	9c07883a 	add	r3,r19,r16
  80bc0c:	3180004c 	andi	r6,r6,1
  80bc10:	3420b03a 	or	r16,r6,r16
  80bc14:	9c000115 	stw	r16,4(r19)
  80bc18:	18800117 	ldw	r2,4(r3)
  80bc1c:	10800054 	ori	r2,r2,1
  80bc20:	18800115 	stw	r2,4(r3)
  80bc24:	a009883a 	mov	r4,r20
  80bc28:	080cafc0 	call	80cafc <__malloc_unlock>
  80bc2c:	9005883a 	mov	r2,r18
  80bc30:	dfc00917 	ldw	ra,36(sp)
  80bc34:	df000817 	ldw	fp,32(sp)
  80bc38:	ddc00717 	ldw	r23,28(sp)
  80bc3c:	dd800617 	ldw	r22,24(sp)
  80bc40:	dd400517 	ldw	r21,20(sp)
  80bc44:	dd000417 	ldw	r20,16(sp)
  80bc48:	dcc00317 	ldw	r19,12(sp)
  80bc4c:	dc800217 	ldw	r18,8(sp)
  80bc50:	dc400117 	ldw	r17,4(sp)
  80bc54:	dc000017 	ldw	r16,0(sp)
  80bc58:	dec00a04 	addi	sp,sp,40
  80bc5c:	f800283a 	ret
  80bc60:	017fff04 	movi	r5,-4
  80bc64:	414a703a 	and	r5,r8,r5
  80bc68:	814d883a 	add	r6,r16,r5
  80bc6c:	30c01f16 	blt	r6,r3,80bcec <_realloc_r+0x22c>
  80bc70:	20800317 	ldw	r2,12(r4)
  80bc74:	20c00217 	ldw	r3,8(r4)
  80bc78:	a825883a 	mov	r18,r21
  80bc7c:	3021883a 	mov	r16,r6
  80bc80:	18800315 	stw	r2,12(r3)
  80bc84:	10c00215 	stw	r3,8(r2)
  80bc88:	003fdb06 	br	80bbf8 <__alt_mem_onchip_mem+0xff803bf8>
  80bc8c:	00800304 	movi	r2,12
  80bc90:	a0800015 	stw	r2,0(r20)
  80bc94:	0005883a 	mov	r2,zero
  80bc98:	003fe506 	br	80bc30 <__alt_mem_onchip_mem+0xff803c30>
  80bc9c:	98c00117 	ldw	r3,4(r19)
  80bca0:	9c4b883a 	add	r5,r19,r17
  80bca4:	11000054 	ori	r4,r2,1
  80bca8:	18c0004c 	andi	r3,r3,1
  80bcac:	1c62b03a 	or	r17,r3,r17
  80bcb0:	9c400115 	stw	r17,4(r19)
  80bcb4:	29000115 	stw	r4,4(r5)
  80bcb8:	2885883a 	add	r2,r5,r2
  80bcbc:	10c00117 	ldw	r3,4(r2)
  80bcc0:	29400204 	addi	r5,r5,8
  80bcc4:	a009883a 	mov	r4,r20
  80bcc8:	18c00054 	ori	r3,r3,1
  80bccc:	10c00115 	stw	r3,4(r2)
  80bcd0:	080acd00 	call	80acd0 <_free_r>
  80bcd4:	003fd306 	br	80bc24 <__alt_mem_onchip_mem+0xff803c24>
  80bcd8:	017fff04 	movi	r5,-4
  80bcdc:	414a703a 	and	r5,r8,r5
  80bce0:	89800404 	addi	r6,r17,16
  80bce4:	8151883a 	add	r8,r16,r5
  80bce8:	4180590e 	bge	r8,r6,80be50 <_realloc_r+0x390>
  80bcec:	1080004c 	andi	r2,r2,1
  80bcf0:	103f9e1e 	bne	r2,zero,80bb6c <__alt_mem_onchip_mem+0xff803b6c>
  80bcf4:	adbffe17 	ldw	r22,-8(r21)
  80bcf8:	00bfff04 	movi	r2,-4
  80bcfc:	9dadc83a 	sub	r22,r19,r22
  80bd00:	b1800117 	ldw	r6,4(r22)
  80bd04:	3084703a 	and	r2,r6,r2
  80bd08:	20002026 	beq	r4,zero,80bd8c <_realloc_r+0x2cc>
  80bd0c:	80af883a 	add	r23,r16,r2
  80bd10:	b96f883a 	add	r23,r23,r5
  80bd14:	21c05f26 	beq	r4,r7,80be94 <_realloc_r+0x3d4>
  80bd18:	b8c01c16 	blt	r23,r3,80bd8c <_realloc_r+0x2cc>
  80bd1c:	20800317 	ldw	r2,12(r4)
  80bd20:	20c00217 	ldw	r3,8(r4)
  80bd24:	81bfff04 	addi	r6,r16,-4
  80bd28:	01000904 	movi	r4,36
  80bd2c:	18800315 	stw	r2,12(r3)
  80bd30:	10c00215 	stw	r3,8(r2)
  80bd34:	b0c00217 	ldw	r3,8(r22)
  80bd38:	b0800317 	ldw	r2,12(r22)
  80bd3c:	b4800204 	addi	r18,r22,8
  80bd40:	18800315 	stw	r2,12(r3)
  80bd44:	10c00215 	stw	r3,8(r2)
  80bd48:	21801b36 	bltu	r4,r6,80bdb8 <_realloc_r+0x2f8>
  80bd4c:	008004c4 	movi	r2,19
  80bd50:	1180352e 	bgeu	r2,r6,80be28 <_realloc_r+0x368>
  80bd54:	a8800017 	ldw	r2,0(r21)
  80bd58:	b0800215 	stw	r2,8(r22)
  80bd5c:	a8800117 	ldw	r2,4(r21)
  80bd60:	b0800315 	stw	r2,12(r22)
  80bd64:	008006c4 	movi	r2,27
  80bd68:	11807f36 	bltu	r2,r6,80bf68 <_realloc_r+0x4a8>
  80bd6c:	b0800404 	addi	r2,r22,16
  80bd70:	ad400204 	addi	r21,r21,8
  80bd74:	00002d06 	br	80be2c <_realloc_r+0x36c>
  80bd78:	adbffe17 	ldw	r22,-8(r21)
  80bd7c:	00bfff04 	movi	r2,-4
  80bd80:	9dadc83a 	sub	r22,r19,r22
  80bd84:	b1000117 	ldw	r4,4(r22)
  80bd88:	2084703a 	and	r2,r4,r2
  80bd8c:	b03f7726 	beq	r22,zero,80bb6c <__alt_mem_onchip_mem+0xff803b6c>
  80bd90:	80af883a 	add	r23,r16,r2
  80bd94:	b8ff7516 	blt	r23,r3,80bb6c <__alt_mem_onchip_mem+0xff803b6c>
  80bd98:	b0800317 	ldw	r2,12(r22)
  80bd9c:	b0c00217 	ldw	r3,8(r22)
  80bda0:	81bfff04 	addi	r6,r16,-4
  80bda4:	01000904 	movi	r4,36
  80bda8:	18800315 	stw	r2,12(r3)
  80bdac:	10c00215 	stw	r3,8(r2)
  80bdb0:	b4800204 	addi	r18,r22,8
  80bdb4:	21bfe52e 	bgeu	r4,r6,80bd4c <__alt_mem_onchip_mem+0xff803d4c>
  80bdb8:	a80b883a 	mov	r5,r21
  80bdbc:	9009883a 	mov	r4,r18
  80bdc0:	080b9040 	call	80b904 <memmove>
  80bdc4:	b821883a 	mov	r16,r23
  80bdc8:	b027883a 	mov	r19,r22
  80bdcc:	003f8a06 	br	80bbf8 <__alt_mem_onchip_mem+0xff803bf8>
  80bdd0:	300b883a 	mov	r5,r6
  80bdd4:	dfc00917 	ldw	ra,36(sp)
  80bdd8:	df000817 	ldw	fp,32(sp)
  80bddc:	ddc00717 	ldw	r23,28(sp)
  80bde0:	dd800617 	ldw	r22,24(sp)
  80bde4:	dd400517 	ldw	r21,20(sp)
  80bde8:	dd000417 	ldw	r20,16(sp)
  80bdec:	dcc00317 	ldw	r19,12(sp)
  80bdf0:	dc800217 	ldw	r18,8(sp)
  80bdf4:	dc400117 	ldw	r17,4(sp)
  80bdf8:	dc000017 	ldw	r16,0(sp)
  80bdfc:	dec00a04 	addi	sp,sp,40
  80be00:	08095841 	jmpi	809584 <_malloc_r>
  80be04:	a8c00017 	ldw	r3,0(r21)
  80be08:	90c00015 	stw	r3,0(r18)
  80be0c:	a8c00117 	ldw	r3,4(r21)
  80be10:	90c00115 	stw	r3,4(r18)
  80be14:	00c006c4 	movi	r3,27
  80be18:	19804536 	bltu	r3,r6,80bf30 <_realloc_r+0x470>
  80be1c:	90800204 	addi	r2,r18,8
  80be20:	a8c00204 	addi	r3,r21,8
  80be24:	003f6306 	br	80bbb4 <__alt_mem_onchip_mem+0xff803bb4>
  80be28:	9005883a 	mov	r2,r18
  80be2c:	a8c00017 	ldw	r3,0(r21)
  80be30:	b821883a 	mov	r16,r23
  80be34:	b027883a 	mov	r19,r22
  80be38:	10c00015 	stw	r3,0(r2)
  80be3c:	a8c00117 	ldw	r3,4(r21)
  80be40:	10c00115 	stw	r3,4(r2)
  80be44:	a8c00217 	ldw	r3,8(r21)
  80be48:	10c00215 	stw	r3,8(r2)
  80be4c:	003f6a06 	br	80bbf8 <__alt_mem_onchip_mem+0xff803bf8>
  80be50:	9c67883a 	add	r19,r19,r17
  80be54:	4445c83a 	sub	r2,r8,r17
  80be58:	e4c00215 	stw	r19,8(fp)
  80be5c:	10800054 	ori	r2,r2,1
  80be60:	98800115 	stw	r2,4(r19)
  80be64:	a8bfff17 	ldw	r2,-4(r21)
  80be68:	a009883a 	mov	r4,r20
  80be6c:	1080004c 	andi	r2,r2,1
  80be70:	1462b03a 	or	r17,r2,r17
  80be74:	ac7fff15 	stw	r17,-4(r21)
  80be78:	080cafc0 	call	80cafc <__malloc_unlock>
  80be7c:	a805883a 	mov	r2,r21
  80be80:	003f6b06 	br	80bc30 <__alt_mem_onchip_mem+0xff803c30>
  80be84:	a80b883a 	mov	r5,r21
  80be88:	9009883a 	mov	r4,r18
  80be8c:	080b9040 	call	80b904 <memmove>
  80be90:	003f4e06 	br	80bbcc <__alt_mem_onchip_mem+0xff803bcc>
  80be94:	89000404 	addi	r4,r17,16
  80be98:	b93fbc16 	blt	r23,r4,80bd8c <__alt_mem_onchip_mem+0xff803d8c>
  80be9c:	b0800317 	ldw	r2,12(r22)
  80bea0:	b0c00217 	ldw	r3,8(r22)
  80bea4:	81bfff04 	addi	r6,r16,-4
  80bea8:	01000904 	movi	r4,36
  80beac:	18800315 	stw	r2,12(r3)
  80beb0:	10c00215 	stw	r3,8(r2)
  80beb4:	b4800204 	addi	r18,r22,8
  80beb8:	21804336 	bltu	r4,r6,80bfc8 <_realloc_r+0x508>
  80bebc:	008004c4 	movi	r2,19
  80bec0:	11803f2e 	bgeu	r2,r6,80bfc0 <_realloc_r+0x500>
  80bec4:	a8800017 	ldw	r2,0(r21)
  80bec8:	b0800215 	stw	r2,8(r22)
  80becc:	a8800117 	ldw	r2,4(r21)
  80bed0:	b0800315 	stw	r2,12(r22)
  80bed4:	008006c4 	movi	r2,27
  80bed8:	11803f36 	bltu	r2,r6,80bfd8 <_realloc_r+0x518>
  80bedc:	b0800404 	addi	r2,r22,16
  80bee0:	ad400204 	addi	r21,r21,8
  80bee4:	a8c00017 	ldw	r3,0(r21)
  80bee8:	10c00015 	stw	r3,0(r2)
  80beec:	a8c00117 	ldw	r3,4(r21)
  80bef0:	10c00115 	stw	r3,4(r2)
  80bef4:	a8c00217 	ldw	r3,8(r21)
  80bef8:	10c00215 	stw	r3,8(r2)
  80befc:	b447883a 	add	r3,r22,r17
  80bf00:	bc45c83a 	sub	r2,r23,r17
  80bf04:	e0c00215 	stw	r3,8(fp)
  80bf08:	10800054 	ori	r2,r2,1
  80bf0c:	18800115 	stw	r2,4(r3)
  80bf10:	b0800117 	ldw	r2,4(r22)
  80bf14:	a009883a 	mov	r4,r20
  80bf18:	1080004c 	andi	r2,r2,1
  80bf1c:	1462b03a 	or	r17,r2,r17
  80bf20:	b4400115 	stw	r17,4(r22)
  80bf24:	080cafc0 	call	80cafc <__malloc_unlock>
  80bf28:	9005883a 	mov	r2,r18
  80bf2c:	003f4006 	br	80bc30 <__alt_mem_onchip_mem+0xff803c30>
  80bf30:	a8c00217 	ldw	r3,8(r21)
  80bf34:	90c00215 	stw	r3,8(r18)
  80bf38:	a8c00317 	ldw	r3,12(r21)
  80bf3c:	90c00315 	stw	r3,12(r18)
  80bf40:	30801126 	beq	r6,r2,80bf88 <_realloc_r+0x4c8>
  80bf44:	90800404 	addi	r2,r18,16
  80bf48:	a8c00404 	addi	r3,r21,16
  80bf4c:	003f1906 	br	80bbb4 <__alt_mem_onchip_mem+0xff803bb4>
  80bf50:	90ffff17 	ldw	r3,-4(r18)
  80bf54:	00bfff04 	movi	r2,-4
  80bf58:	a825883a 	mov	r18,r21
  80bf5c:	1884703a 	and	r2,r3,r2
  80bf60:	80a1883a 	add	r16,r16,r2
  80bf64:	003f2406 	br	80bbf8 <__alt_mem_onchip_mem+0xff803bf8>
  80bf68:	a8800217 	ldw	r2,8(r21)
  80bf6c:	b0800415 	stw	r2,16(r22)
  80bf70:	a8800317 	ldw	r2,12(r21)
  80bf74:	b0800515 	stw	r2,20(r22)
  80bf78:	31000a26 	beq	r6,r4,80bfa4 <_realloc_r+0x4e4>
  80bf7c:	b0800604 	addi	r2,r22,24
  80bf80:	ad400404 	addi	r21,r21,16
  80bf84:	003fa906 	br	80be2c <__alt_mem_onchip_mem+0xff803e2c>
  80bf88:	a9000417 	ldw	r4,16(r21)
  80bf8c:	90800604 	addi	r2,r18,24
  80bf90:	a8c00604 	addi	r3,r21,24
  80bf94:	91000415 	stw	r4,16(r18)
  80bf98:	a9000517 	ldw	r4,20(r21)
  80bf9c:	91000515 	stw	r4,20(r18)
  80bfa0:	003f0406 	br	80bbb4 <__alt_mem_onchip_mem+0xff803bb4>
  80bfa4:	a8c00417 	ldw	r3,16(r21)
  80bfa8:	ad400604 	addi	r21,r21,24
  80bfac:	b0800804 	addi	r2,r22,32
  80bfb0:	b0c00615 	stw	r3,24(r22)
  80bfb4:	a8ffff17 	ldw	r3,-4(r21)
  80bfb8:	b0c00715 	stw	r3,28(r22)
  80bfbc:	003f9b06 	br	80be2c <__alt_mem_onchip_mem+0xff803e2c>
  80bfc0:	9005883a 	mov	r2,r18
  80bfc4:	003fc706 	br	80bee4 <__alt_mem_onchip_mem+0xff803ee4>
  80bfc8:	a80b883a 	mov	r5,r21
  80bfcc:	9009883a 	mov	r4,r18
  80bfd0:	080b9040 	call	80b904 <memmove>
  80bfd4:	003fc906 	br	80befc <__alt_mem_onchip_mem+0xff803efc>
  80bfd8:	a8800217 	ldw	r2,8(r21)
  80bfdc:	b0800415 	stw	r2,16(r22)
  80bfe0:	a8800317 	ldw	r2,12(r21)
  80bfe4:	b0800515 	stw	r2,20(r22)
  80bfe8:	31000726 	beq	r6,r4,80c008 <_realloc_r+0x548>
  80bfec:	b0800604 	addi	r2,r22,24
  80bff0:	ad400404 	addi	r21,r21,16
  80bff4:	003fbb06 	br	80bee4 <__alt_mem_onchip_mem+0xff803ee4>
  80bff8:	a009883a 	mov	r4,r20
  80bffc:	080cafc0 	call	80cafc <__malloc_unlock>
  80c000:	0005883a 	mov	r2,zero
  80c004:	003f0a06 	br	80bc30 <__alt_mem_onchip_mem+0xff803c30>
  80c008:	a8c00417 	ldw	r3,16(r21)
  80c00c:	ad400604 	addi	r21,r21,24
  80c010:	b0800804 	addi	r2,r22,32
  80c014:	b0c00615 	stw	r3,24(r22)
  80c018:	a8ffff17 	ldw	r3,-4(r21)
  80c01c:	b0c00715 	stw	r3,28(r22)
  80c020:	003fb006 	br	80bee4 <__alt_mem_onchip_mem+0xff803ee4>

0080c024 <__swsetup_r>:
  80c024:	00802074 	movhi	r2,129
  80c028:	defffd04 	addi	sp,sp,-12
  80c02c:	10895c04 	addi	r2,r2,9584
  80c030:	dc400115 	stw	r17,4(sp)
  80c034:	2023883a 	mov	r17,r4
  80c038:	11000017 	ldw	r4,0(r2)
  80c03c:	dc000015 	stw	r16,0(sp)
  80c040:	dfc00215 	stw	ra,8(sp)
  80c044:	2821883a 	mov	r16,r5
  80c048:	20000226 	beq	r4,zero,80c054 <__swsetup_r+0x30>
  80c04c:	20800e17 	ldw	r2,56(r4)
  80c050:	10003126 	beq	r2,zero,80c118 <__swsetup_r+0xf4>
  80c054:	8080030b 	ldhu	r2,12(r16)
  80c058:	10c0020c 	andi	r3,r2,8
  80c05c:	1009883a 	mov	r4,r2
  80c060:	18000f26 	beq	r3,zero,80c0a0 <__swsetup_r+0x7c>
  80c064:	80c00417 	ldw	r3,16(r16)
  80c068:	18001526 	beq	r3,zero,80c0c0 <__swsetup_r+0x9c>
  80c06c:	1100004c 	andi	r4,r2,1
  80c070:	20001c1e 	bne	r4,zero,80c0e4 <__swsetup_r+0xc0>
  80c074:	1080008c 	andi	r2,r2,2
  80c078:	1000291e 	bne	r2,zero,80c120 <__swsetup_r+0xfc>
  80c07c:	80800517 	ldw	r2,20(r16)
  80c080:	80800215 	stw	r2,8(r16)
  80c084:	18001c26 	beq	r3,zero,80c0f8 <__swsetup_r+0xd4>
  80c088:	0005883a 	mov	r2,zero
  80c08c:	dfc00217 	ldw	ra,8(sp)
  80c090:	dc400117 	ldw	r17,4(sp)
  80c094:	dc000017 	ldw	r16,0(sp)
  80c098:	dec00304 	addi	sp,sp,12
  80c09c:	f800283a 	ret
  80c0a0:	2080040c 	andi	r2,r4,16
  80c0a4:	10002e26 	beq	r2,zero,80c160 <__swsetup_r+0x13c>
  80c0a8:	2080010c 	andi	r2,r4,4
  80c0ac:	10001e1e 	bne	r2,zero,80c128 <__swsetup_r+0x104>
  80c0b0:	80c00417 	ldw	r3,16(r16)
  80c0b4:	20800214 	ori	r2,r4,8
  80c0b8:	8080030d 	sth	r2,12(r16)
  80c0bc:	183feb1e 	bne	r3,zero,80c06c <__alt_mem_onchip_mem+0xff80406c>
  80c0c0:	1100a00c 	andi	r4,r2,640
  80c0c4:	01408004 	movi	r5,512
  80c0c8:	217fe826 	beq	r4,r5,80c06c <__alt_mem_onchip_mem+0xff80406c>
  80c0cc:	800b883a 	mov	r5,r16
  80c0d0:	8809883a 	mov	r4,r17
  80c0d4:	08093c80 	call	8093c8 <__smakebuf_r>
  80c0d8:	8080030b 	ldhu	r2,12(r16)
  80c0dc:	80c00417 	ldw	r3,16(r16)
  80c0e0:	003fe206 	br	80c06c <__alt_mem_onchip_mem+0xff80406c>
  80c0e4:	80800517 	ldw	r2,20(r16)
  80c0e8:	80000215 	stw	zero,8(r16)
  80c0ec:	0085c83a 	sub	r2,zero,r2
  80c0f0:	80800615 	stw	r2,24(r16)
  80c0f4:	183fe41e 	bne	r3,zero,80c088 <__alt_mem_onchip_mem+0xff804088>
  80c0f8:	80c0030b 	ldhu	r3,12(r16)
  80c0fc:	0005883a 	mov	r2,zero
  80c100:	1900200c 	andi	r4,r3,128
  80c104:	203fe126 	beq	r4,zero,80c08c <__alt_mem_onchip_mem+0xff80408c>
  80c108:	18c01014 	ori	r3,r3,64
  80c10c:	80c0030d 	sth	r3,12(r16)
  80c110:	00bfffc4 	movi	r2,-1
  80c114:	003fdd06 	br	80c08c <__alt_mem_onchip_mem+0xff80408c>
  80c118:	080aab00 	call	80aab0 <__sinit>
  80c11c:	003fcd06 	br	80c054 <__alt_mem_onchip_mem+0xff804054>
  80c120:	0005883a 	mov	r2,zero
  80c124:	003fd606 	br	80c080 <__alt_mem_onchip_mem+0xff804080>
  80c128:	81400c17 	ldw	r5,48(r16)
  80c12c:	28000626 	beq	r5,zero,80c148 <__swsetup_r+0x124>
  80c130:	80801004 	addi	r2,r16,64
  80c134:	28800326 	beq	r5,r2,80c144 <__swsetup_r+0x120>
  80c138:	8809883a 	mov	r4,r17
  80c13c:	080acd00 	call	80acd0 <_free_r>
  80c140:	8100030b 	ldhu	r4,12(r16)
  80c144:	80000c15 	stw	zero,48(r16)
  80c148:	80c00417 	ldw	r3,16(r16)
  80c14c:	00bff6c4 	movi	r2,-37
  80c150:	1108703a 	and	r4,r2,r4
  80c154:	80000115 	stw	zero,4(r16)
  80c158:	80c00015 	stw	r3,0(r16)
  80c15c:	003fd506 	br	80c0b4 <__alt_mem_onchip_mem+0xff8040b4>
  80c160:	00800244 	movi	r2,9
  80c164:	88800015 	stw	r2,0(r17)
  80c168:	20801014 	ori	r2,r4,64
  80c16c:	8080030d 	sth	r2,12(r16)
  80c170:	00bfffc4 	movi	r2,-1
  80c174:	003fc506 	br	80c08c <__alt_mem_onchip_mem+0xff80408c>

0080c178 <_fclose_r>:
  80c178:	28003926 	beq	r5,zero,80c260 <_fclose_r+0xe8>
  80c17c:	defffc04 	addi	sp,sp,-16
  80c180:	dc400115 	stw	r17,4(sp)
  80c184:	dc000015 	stw	r16,0(sp)
  80c188:	dfc00315 	stw	ra,12(sp)
  80c18c:	dc800215 	stw	r18,8(sp)
  80c190:	2023883a 	mov	r17,r4
  80c194:	2821883a 	mov	r16,r5
  80c198:	20000226 	beq	r4,zero,80c1a4 <_fclose_r+0x2c>
  80c19c:	20800e17 	ldw	r2,56(r4)
  80c1a0:	10002726 	beq	r2,zero,80c240 <_fclose_r+0xc8>
  80c1a4:	8080030f 	ldh	r2,12(r16)
  80c1a8:	1000071e 	bne	r2,zero,80c1c8 <_fclose_r+0x50>
  80c1ac:	0005883a 	mov	r2,zero
  80c1b0:	dfc00317 	ldw	ra,12(sp)
  80c1b4:	dc800217 	ldw	r18,8(sp)
  80c1b8:	dc400117 	ldw	r17,4(sp)
  80c1bc:	dc000017 	ldw	r16,0(sp)
  80c1c0:	dec00404 	addi	sp,sp,16
  80c1c4:	f800283a 	ret
  80c1c8:	800b883a 	mov	r5,r16
  80c1cc:	8809883a 	mov	r4,r17
  80c1d0:	080a4b80 	call	80a4b8 <__sflush_r>
  80c1d4:	1025883a 	mov	r18,r2
  80c1d8:	80800b17 	ldw	r2,44(r16)
  80c1dc:	10000426 	beq	r2,zero,80c1f0 <_fclose_r+0x78>
  80c1e0:	81400717 	ldw	r5,28(r16)
  80c1e4:	8809883a 	mov	r4,r17
  80c1e8:	103ee83a 	callr	r2
  80c1ec:	10001616 	blt	r2,zero,80c248 <_fclose_r+0xd0>
  80c1f0:	8080030b 	ldhu	r2,12(r16)
  80c1f4:	1080200c 	andi	r2,r2,128
  80c1f8:	1000151e 	bne	r2,zero,80c250 <_fclose_r+0xd8>
  80c1fc:	81400c17 	ldw	r5,48(r16)
  80c200:	28000526 	beq	r5,zero,80c218 <_fclose_r+0xa0>
  80c204:	80801004 	addi	r2,r16,64
  80c208:	28800226 	beq	r5,r2,80c214 <_fclose_r+0x9c>
  80c20c:	8809883a 	mov	r4,r17
  80c210:	080acd00 	call	80acd0 <_free_r>
  80c214:	80000c15 	stw	zero,48(r16)
  80c218:	81401117 	ldw	r5,68(r16)
  80c21c:	28000326 	beq	r5,zero,80c22c <_fclose_r+0xb4>
  80c220:	8809883a 	mov	r4,r17
  80c224:	080acd00 	call	80acd0 <_free_r>
  80c228:	80001115 	stw	zero,68(r16)
  80c22c:	080aac00 	call	80aac0 <__sfp_lock_acquire>
  80c230:	8000030d 	sth	zero,12(r16)
  80c234:	080aac40 	call	80aac4 <__sfp_lock_release>
  80c238:	9005883a 	mov	r2,r18
  80c23c:	003fdc06 	br	80c1b0 <__alt_mem_onchip_mem+0xff8041b0>
  80c240:	080aab00 	call	80aab0 <__sinit>
  80c244:	003fd706 	br	80c1a4 <__alt_mem_onchip_mem+0xff8041a4>
  80c248:	04bfffc4 	movi	r18,-1
  80c24c:	003fe806 	br	80c1f0 <__alt_mem_onchip_mem+0xff8041f0>
  80c250:	81400417 	ldw	r5,16(r16)
  80c254:	8809883a 	mov	r4,r17
  80c258:	080acd00 	call	80acd0 <_free_r>
  80c25c:	003fe706 	br	80c1fc <__alt_mem_onchip_mem+0xff8041fc>
  80c260:	0005883a 	mov	r2,zero
  80c264:	f800283a 	ret

0080c268 <fclose>:
  80c268:	00802074 	movhi	r2,129
  80c26c:	10895c04 	addi	r2,r2,9584
  80c270:	200b883a 	mov	r5,r4
  80c274:	11000017 	ldw	r4,0(r2)
  80c278:	080c1781 	jmpi	80c178 <_fclose_r>

0080c27c <__divsi3>:
  80c27c:	20001b16 	blt	r4,zero,80c2ec <__divsi3+0x70>
  80c280:	000f883a 	mov	r7,zero
  80c284:	28001616 	blt	r5,zero,80c2e0 <__divsi3+0x64>
  80c288:	200d883a 	mov	r6,r4
  80c28c:	29001a2e 	bgeu	r5,r4,80c2f8 <__divsi3+0x7c>
  80c290:	00800804 	movi	r2,32
  80c294:	00c00044 	movi	r3,1
  80c298:	00000106 	br	80c2a0 <__divsi3+0x24>
  80c29c:	10000d26 	beq	r2,zero,80c2d4 <__divsi3+0x58>
  80c2a0:	294b883a 	add	r5,r5,r5
  80c2a4:	10bfffc4 	addi	r2,r2,-1
  80c2a8:	18c7883a 	add	r3,r3,r3
  80c2ac:	293ffb36 	bltu	r5,r4,80c29c <__alt_mem_onchip_mem+0xff80429c>
  80c2b0:	0005883a 	mov	r2,zero
  80c2b4:	18000726 	beq	r3,zero,80c2d4 <__divsi3+0x58>
  80c2b8:	0005883a 	mov	r2,zero
  80c2bc:	31400236 	bltu	r6,r5,80c2c8 <__divsi3+0x4c>
  80c2c0:	314dc83a 	sub	r6,r6,r5
  80c2c4:	10c4b03a 	or	r2,r2,r3
  80c2c8:	1806d07a 	srli	r3,r3,1
  80c2cc:	280ad07a 	srli	r5,r5,1
  80c2d0:	183ffa1e 	bne	r3,zero,80c2bc <__alt_mem_onchip_mem+0xff8042bc>
  80c2d4:	38000126 	beq	r7,zero,80c2dc <__divsi3+0x60>
  80c2d8:	0085c83a 	sub	r2,zero,r2
  80c2dc:	f800283a 	ret
  80c2e0:	014bc83a 	sub	r5,zero,r5
  80c2e4:	39c0005c 	xori	r7,r7,1
  80c2e8:	003fe706 	br	80c288 <__alt_mem_onchip_mem+0xff804288>
  80c2ec:	0109c83a 	sub	r4,zero,r4
  80c2f0:	01c00044 	movi	r7,1
  80c2f4:	003fe306 	br	80c284 <__alt_mem_onchip_mem+0xff804284>
  80c2f8:	00c00044 	movi	r3,1
  80c2fc:	003fee06 	br	80c2b8 <__alt_mem_onchip_mem+0xff8042b8>

0080c300 <__modsi3>:
  80c300:	20001716 	blt	r4,zero,80c360 <__modsi3+0x60>
  80c304:	000f883a 	mov	r7,zero
  80c308:	2005883a 	mov	r2,r4
  80c30c:	28001216 	blt	r5,zero,80c358 <__modsi3+0x58>
  80c310:	2900162e 	bgeu	r5,r4,80c36c <__modsi3+0x6c>
  80c314:	01800804 	movi	r6,32
  80c318:	00c00044 	movi	r3,1
  80c31c:	00000106 	br	80c324 <__modsi3+0x24>
  80c320:	30000a26 	beq	r6,zero,80c34c <__modsi3+0x4c>
  80c324:	294b883a 	add	r5,r5,r5
  80c328:	31bfffc4 	addi	r6,r6,-1
  80c32c:	18c7883a 	add	r3,r3,r3
  80c330:	293ffb36 	bltu	r5,r4,80c320 <__alt_mem_onchip_mem+0xff804320>
  80c334:	18000526 	beq	r3,zero,80c34c <__modsi3+0x4c>
  80c338:	1806d07a 	srli	r3,r3,1
  80c33c:	11400136 	bltu	r2,r5,80c344 <__modsi3+0x44>
  80c340:	1145c83a 	sub	r2,r2,r5
  80c344:	280ad07a 	srli	r5,r5,1
  80c348:	183ffb1e 	bne	r3,zero,80c338 <__alt_mem_onchip_mem+0xff804338>
  80c34c:	38000126 	beq	r7,zero,80c354 <__modsi3+0x54>
  80c350:	0085c83a 	sub	r2,zero,r2
  80c354:	f800283a 	ret
  80c358:	014bc83a 	sub	r5,zero,r5
  80c35c:	003fec06 	br	80c310 <__alt_mem_onchip_mem+0xff804310>
  80c360:	0109c83a 	sub	r4,zero,r4
  80c364:	01c00044 	movi	r7,1
  80c368:	003fe706 	br	80c308 <__alt_mem_onchip_mem+0xff804308>
  80c36c:	00c00044 	movi	r3,1
  80c370:	003ff106 	br	80c338 <__alt_mem_onchip_mem+0xff804338>

0080c374 <__udivsi3>:
  80c374:	200d883a 	mov	r6,r4
  80c378:	2900152e 	bgeu	r5,r4,80c3d0 <__udivsi3+0x5c>
  80c37c:	28001416 	blt	r5,zero,80c3d0 <__udivsi3+0x5c>
  80c380:	00800804 	movi	r2,32
  80c384:	00c00044 	movi	r3,1
  80c388:	00000206 	br	80c394 <__udivsi3+0x20>
  80c38c:	10000e26 	beq	r2,zero,80c3c8 <__udivsi3+0x54>
  80c390:	28000516 	blt	r5,zero,80c3a8 <__udivsi3+0x34>
  80c394:	294b883a 	add	r5,r5,r5
  80c398:	10bfffc4 	addi	r2,r2,-1
  80c39c:	18c7883a 	add	r3,r3,r3
  80c3a0:	293ffa36 	bltu	r5,r4,80c38c <__alt_mem_onchip_mem+0xff80438c>
  80c3a4:	18000826 	beq	r3,zero,80c3c8 <__udivsi3+0x54>
  80c3a8:	0005883a 	mov	r2,zero
  80c3ac:	31400236 	bltu	r6,r5,80c3b8 <__udivsi3+0x44>
  80c3b0:	314dc83a 	sub	r6,r6,r5
  80c3b4:	10c4b03a 	or	r2,r2,r3
  80c3b8:	1806d07a 	srli	r3,r3,1
  80c3bc:	280ad07a 	srli	r5,r5,1
  80c3c0:	183ffa1e 	bne	r3,zero,80c3ac <__alt_mem_onchip_mem+0xff8043ac>
  80c3c4:	f800283a 	ret
  80c3c8:	0005883a 	mov	r2,zero
  80c3cc:	f800283a 	ret
  80c3d0:	00c00044 	movi	r3,1
  80c3d4:	003ff406 	br	80c3a8 <__alt_mem_onchip_mem+0xff8043a8>

0080c3d8 <__umodsi3>:
  80c3d8:	2005883a 	mov	r2,r4
  80c3dc:	2900122e 	bgeu	r5,r4,80c428 <__umodsi3+0x50>
  80c3e0:	28001116 	blt	r5,zero,80c428 <__umodsi3+0x50>
  80c3e4:	01800804 	movi	r6,32
  80c3e8:	00c00044 	movi	r3,1
  80c3ec:	00000206 	br	80c3f8 <__umodsi3+0x20>
  80c3f0:	30000c26 	beq	r6,zero,80c424 <__umodsi3+0x4c>
  80c3f4:	28000516 	blt	r5,zero,80c40c <__umodsi3+0x34>
  80c3f8:	294b883a 	add	r5,r5,r5
  80c3fc:	31bfffc4 	addi	r6,r6,-1
  80c400:	18c7883a 	add	r3,r3,r3
  80c404:	293ffa36 	bltu	r5,r4,80c3f0 <__alt_mem_onchip_mem+0xff8043f0>
  80c408:	18000626 	beq	r3,zero,80c424 <__umodsi3+0x4c>
  80c40c:	1806d07a 	srli	r3,r3,1
  80c410:	11400136 	bltu	r2,r5,80c418 <__umodsi3+0x40>
  80c414:	1145c83a 	sub	r2,r2,r5
  80c418:	280ad07a 	srli	r5,r5,1
  80c41c:	183ffb1e 	bne	r3,zero,80c40c <__alt_mem_onchip_mem+0xff80440c>
  80c420:	f800283a 	ret
  80c424:	f800283a 	ret
  80c428:	00c00044 	movi	r3,1
  80c42c:	003ff706 	br	80c40c <__alt_mem_onchip_mem+0xff80440c>

0080c430 <alt_alarm_start>:
 */ 

int alt_alarm_start (alt_alarm* alarm, alt_u32 nticks,
                     alt_u32 (*callback) (void* context),
                     void* context)
{
  80c430:	defff504 	addi	sp,sp,-44
  80c434:	df000a15 	stw	fp,40(sp)
  80c438:	df000a04 	addi	fp,sp,40
  80c43c:	e13ffc15 	stw	r4,-16(fp)
  80c440:	e17ffd15 	stw	r5,-12(fp)
  80c444:	e1bffe15 	stw	r6,-8(fp)
  80c448:	e1ffff15 	stw	r7,-4(fp)
  alt_irq_context irq_context;
  alt_u32 current_nticks = 0;
  80c44c:	e03ff615 	stw	zero,-40(fp)
 * Obtain the system clock rate in ticks/s. 
 */

static ALT_INLINE alt_u32 ALT_ALWAYS_INLINE alt_ticks_per_second (void)
{
  return _alt_tick_rate;
  80c450:	d0a73317 	ldw	r2,-25396(gp)
  
  if (alt_ticks_per_second ())
  80c454:	10003c26 	beq	r2,zero,80c548 <alt_alarm_start+0x118>
  {
    if (alarm)
  80c458:	e0bffc17 	ldw	r2,-16(fp)
  80c45c:	10003826 	beq	r2,zero,80c540 <alt_alarm_start+0x110>
    {
      alarm->callback = callback;
  80c460:	e0bffc17 	ldw	r2,-16(fp)
  80c464:	e0fffe17 	ldw	r3,-8(fp)
  80c468:	10c00315 	stw	r3,12(r2)
      alarm->context  = context;
  80c46c:	e0bffc17 	ldw	r2,-16(fp)
  80c470:	e0ffff17 	ldw	r3,-4(fp)
  80c474:	10c00515 	stw	r3,20(r2)
static ALT_INLINE alt_irq_context ALT_ALWAYS_INLINE 
       alt_irq_disable_all (void)
{
  alt_irq_context context;

  NIOS2_READ_STATUS (context);
  80c478:	0005303a 	rdctl	r2,status
  80c47c:	e0bff915 	stw	r2,-28(fp)

  NIOS2_WRITE_STATUS (context & ~NIOS2_STATUS_PIE_MSK);
  80c480:	e0fff917 	ldw	r3,-28(fp)
  80c484:	00bfff84 	movi	r2,-2
  80c488:	1884703a 	and	r2,r3,r2
  80c48c:	1001703a 	wrctl	status,r2
  
  return context;
  80c490:	e0bff917 	ldw	r2,-28(fp)
 
      irq_context = alt_irq_disable_all ();
  80c494:	e0bff815 	stw	r2,-32(fp)
 * alt_nticks() returns the elapsed number of system clock ticks since reset.
 */

static ALT_INLINE alt_u32 ALT_ALWAYS_INLINE alt_nticks (void)
{
  return _alt_nticks;
  80c498:	d0a73417 	ldw	r2,-25392(gp)
      
      current_nticks = alt_nticks();
  80c49c:	e0bff615 	stw	r2,-40(fp)
      
      alarm->time = nticks + current_nticks + 1; 
  80c4a0:	e0fffd17 	ldw	r3,-12(fp)
  80c4a4:	e0bff617 	ldw	r2,-40(fp)
  80c4a8:	1885883a 	add	r2,r3,r2
  80c4ac:	10c00044 	addi	r3,r2,1
  80c4b0:	e0bffc17 	ldw	r2,-16(fp)
  80c4b4:	10c00215 	stw	r3,8(r2)
      /* 
       * If the desired alarm time causes a roll-over, set the rollover
       * flag. This will prevent the subsequent tick event from causing
       * an alarm too early.
       */
      if(alarm->time < current_nticks)
  80c4b8:	e0bffc17 	ldw	r2,-16(fp)
  80c4bc:	10c00217 	ldw	r3,8(r2)
  80c4c0:	e0bff617 	ldw	r2,-40(fp)
  80c4c4:	1880042e 	bgeu	r3,r2,80c4d8 <alt_alarm_start+0xa8>
      {
        alarm->rollover = 1;
  80c4c8:	e0bffc17 	ldw	r2,-16(fp)
  80c4cc:	00c00044 	movi	r3,1
  80c4d0:	10c00405 	stb	r3,16(r2)
  80c4d4:	00000206 	br	80c4e0 <alt_alarm_start+0xb0>
      }
      else
      {
        alarm->rollover = 0;
  80c4d8:	e0bffc17 	ldw	r2,-16(fp)
  80c4dc:	10000405 	stb	zero,16(r2)
      }
    
      alt_llist_insert (&alt_alarm_list, &alarm->llist);
  80c4e0:	e0bffc17 	ldw	r2,-16(fp)
  80c4e4:	d0e00c04 	addi	r3,gp,-32720
  80c4e8:	e0fffa15 	stw	r3,-24(fp)
  80c4ec:	e0bffb15 	stw	r2,-20(fp)
 */

static ALT_INLINE void ALT_ALWAYS_INLINE alt_llist_insert(alt_llist* list, 
                alt_llist* entry)
{
  entry->previous = list;
  80c4f0:	e0bffb17 	ldw	r2,-20(fp)
  80c4f4:	e0fffa17 	ldw	r3,-24(fp)
  80c4f8:	10c00115 	stw	r3,4(r2)
  entry->next     = list->next;
  80c4fc:	e0bffa17 	ldw	r2,-24(fp)
  80c500:	10c00017 	ldw	r3,0(r2)
  80c504:	e0bffb17 	ldw	r2,-20(fp)
  80c508:	10c00015 	stw	r3,0(r2)

  list->next->previous = entry;
  80c50c:	e0bffa17 	ldw	r2,-24(fp)
  80c510:	10800017 	ldw	r2,0(r2)
  80c514:	e0fffb17 	ldw	r3,-20(fp)
  80c518:	10c00115 	stw	r3,4(r2)
  list->next           = entry;
  80c51c:	e0bffa17 	ldw	r2,-24(fp)
  80c520:	e0fffb17 	ldw	r3,-20(fp)
  80c524:	10c00015 	stw	r3,0(r2)
  80c528:	e0bff817 	ldw	r2,-32(fp)
  80c52c:	e0bff715 	stw	r2,-36(fp)
  status &= ~NIOS2_STATUS_PIE_MSK;
  status |= (context & NIOS2_STATUS_PIE_MSK);
  
  NIOS2_WRITE_STATUS (status);
#else
  NIOS2_WRITE_STATUS (context);
  80c530:	e0bff717 	ldw	r2,-36(fp)
  80c534:	1001703a 	wrctl	status,r2
      alt_irq_enable_all (irq_context);

      return 0;
  80c538:	0005883a 	mov	r2,zero
  80c53c:	00000306 	br	80c54c <alt_alarm_start+0x11c>
    }
    else
    {
      return -EINVAL;
  80c540:	00bffa84 	movi	r2,-22
  80c544:	00000106 	br	80c54c <alt_alarm_start+0x11c>
    }
  }
  else
  {
    return -ENOTSUP;
  80c548:	00bfde84 	movi	r2,-134
  }
}
  80c54c:	e037883a 	mov	sp,fp
  80c550:	df000017 	ldw	fp,0(sp)
  80c554:	dec00104 	addi	sp,sp,4
  80c558:	f800283a 	ret

0080c55c <alt_get_errno>:
#undef errno

extern int errno;

static ALT_INLINE int* alt_get_errno(void)
{
  80c55c:	defffe04 	addi	sp,sp,-8
  80c560:	dfc00115 	stw	ra,4(sp)
  80c564:	df000015 	stw	fp,0(sp)
  80c568:	d839883a 	mov	fp,sp
  return ((alt_errno) ? alt_errno() : &errno);
  80c56c:	d0a00a17 	ldw	r2,-32728(gp)
  80c570:	10000326 	beq	r2,zero,80c580 <alt_get_errno+0x24>
  80c574:	d0a00a17 	ldw	r2,-32728(gp)
  80c578:	103ee83a 	callr	r2
  80c57c:	00000106 	br	80c584 <alt_get_errno+0x28>
  80c580:	d0a72c04 	addi	r2,gp,-25424
}
  80c584:	e037883a 	mov	sp,fp
  80c588:	dfc00117 	ldw	ra,4(sp)
  80c58c:	df000017 	ldw	fp,0(sp)
  80c590:	dec00204 	addi	sp,sp,8
  80c594:	f800283a 	ret

0080c598 <close>:
 *
 * ALT_CLOSE is mapped onto the close() system call in alt_syscall.h
 */
 
int ALT_CLOSE (int fildes)
{
  80c598:	defffb04 	addi	sp,sp,-20
  80c59c:	dfc00415 	stw	ra,16(sp)
  80c5a0:	df000315 	stw	fp,12(sp)
  80c5a4:	df000304 	addi	fp,sp,12
  80c5a8:	e13fff15 	stw	r4,-4(fp)
   * A common error case is that when the file descriptor was created, the call
   * to open() failed resulting in a negative file descriptor. This is trapped
   * below so that we don't try and process an invalid file descriptor.
   */

  fd = (fildes < 0) ? NULL : &alt_fd_list[fildes];
  80c5ac:	e0bfff17 	ldw	r2,-4(fp)
  80c5b0:	10000616 	blt	r2,zero,80c5cc <close+0x34>
  80c5b4:	e0bfff17 	ldw	r2,-4(fp)
  80c5b8:	10c00324 	muli	r3,r2,12
  80c5bc:	00802074 	movhi	r2,129
  80c5c0:	10846904 	addi	r2,r2,4516
  80c5c4:	1885883a 	add	r2,r3,r2
  80c5c8:	00000106 	br	80c5d0 <close+0x38>
  80c5cc:	0005883a 	mov	r2,zero
  80c5d0:	e0bffd15 	stw	r2,-12(fp)

  if (fd)
  80c5d4:	e0bffd17 	ldw	r2,-12(fp)
  80c5d8:	10001926 	beq	r2,zero,80c640 <close+0xa8>
    /*
     * If the associated file system/device has a close function, call it so 
     * that any necessary cleanup code can run.
     */

    rval = (fd->dev->close) ? fd->dev->close(fd) : 0;
  80c5dc:	e0bffd17 	ldw	r2,-12(fp)
  80c5e0:	10800017 	ldw	r2,0(r2)
  80c5e4:	10800417 	ldw	r2,16(r2)
  80c5e8:	10000626 	beq	r2,zero,80c604 <close+0x6c>
  80c5ec:	e0bffd17 	ldw	r2,-12(fp)
  80c5f0:	10800017 	ldw	r2,0(r2)
  80c5f4:	10800417 	ldw	r2,16(r2)
  80c5f8:	e13ffd17 	ldw	r4,-12(fp)
  80c5fc:	103ee83a 	callr	r2
  80c600:	00000106 	br	80c608 <close+0x70>
  80c604:	0005883a 	mov	r2,zero
  80c608:	e0bffe15 	stw	r2,-8(fp)

    /* Free the file descriptor structure and return. */

    alt_release_fd (fildes);
  80c60c:	e13fff17 	ldw	r4,-4(fp)
  80c610:	080ceac0 	call	80ceac <alt_release_fd>
    if (rval < 0)
  80c614:	e0bffe17 	ldw	r2,-8(fp)
  80c618:	1000070e 	bge	r2,zero,80c638 <close+0xa0>
    {
      ALT_ERRNO = -rval;
  80c61c:	080c55c0 	call	80c55c <alt_get_errno>
  80c620:	1007883a 	mov	r3,r2
  80c624:	e0bffe17 	ldw	r2,-8(fp)
  80c628:	0085c83a 	sub	r2,zero,r2
  80c62c:	18800015 	stw	r2,0(r3)
      return -1;
  80c630:	00bfffc4 	movi	r2,-1
  80c634:	00000706 	br	80c654 <close+0xbc>
    }
    return 0;
  80c638:	0005883a 	mov	r2,zero
  80c63c:	00000506 	br	80c654 <close+0xbc>
  }
  else
  {
    ALT_ERRNO = EBADFD;
  80c640:	080c55c0 	call	80c55c <alt_get_errno>
  80c644:	1007883a 	mov	r3,r2
  80c648:	00801444 	movi	r2,81
  80c64c:	18800015 	stw	r2,0(r3)
    return -1;
  80c650:	00bfffc4 	movi	r2,-1
  }
}
  80c654:	e037883a 	mov	sp,fp
  80c658:	dfc00117 	ldw	ra,4(sp)
  80c65c:	df000017 	ldw	fp,0(sp)
  80c660:	dec00204 	addi	sp,sp,8
  80c664:	f800283a 	ret

0080c668 <alt_dev_null_write>:
 * by the alt_dev_null device. It simple discards all data passed to it, and
 * indicates that the data has been successfully transmitted.
 */

static int alt_dev_null_write (alt_fd* fd, const char* ptr, int len)
{
  80c668:	defffc04 	addi	sp,sp,-16
  80c66c:	df000315 	stw	fp,12(sp)
  80c670:	df000304 	addi	fp,sp,12
  80c674:	e13ffd15 	stw	r4,-12(fp)
  80c678:	e17ffe15 	stw	r5,-8(fp)
  80c67c:	e1bfff15 	stw	r6,-4(fp)
  return len;
  80c680:	e0bfff17 	ldw	r2,-4(fp)
}
  80c684:	e037883a 	mov	sp,fp
  80c688:	df000017 	ldw	fp,0(sp)
  80c68c:	dec00104 	addi	sp,sp,4
  80c690:	f800283a 	ret

0080c694 <alt_get_errno>:
#undef errno

extern int errno;

static ALT_INLINE int* alt_get_errno(void)
{
  80c694:	defffe04 	addi	sp,sp,-8
  80c698:	dfc00115 	stw	ra,4(sp)
  80c69c:	df000015 	stw	fp,0(sp)
  80c6a0:	d839883a 	mov	fp,sp
  return ((alt_errno) ? alt_errno() : &errno);
  80c6a4:	d0a00a17 	ldw	r2,-32728(gp)
  80c6a8:	10000326 	beq	r2,zero,80c6b8 <alt_get_errno+0x24>
  80c6ac:	d0a00a17 	ldw	r2,-32728(gp)
  80c6b0:	103ee83a 	callr	r2
  80c6b4:	00000106 	br	80c6bc <alt_get_errno+0x28>
  80c6b8:	d0a72c04 	addi	r2,gp,-25424
}
  80c6bc:	e037883a 	mov	sp,fp
  80c6c0:	dfc00117 	ldw	ra,4(sp)
  80c6c4:	df000017 	ldw	fp,0(sp)
  80c6c8:	dec00204 	addi	sp,sp,8
  80c6cc:	f800283a 	ret

0080c6d0 <fstat>:
}

#else /* !ALT_USE_DIRECT_DRIVERS */

int ALT_FSTAT (int file, struct stat *st)
{
  80c6d0:	defffb04 	addi	sp,sp,-20
  80c6d4:	dfc00415 	stw	ra,16(sp)
  80c6d8:	df000315 	stw	fp,12(sp)
  80c6dc:	df000304 	addi	fp,sp,12
  80c6e0:	e13ffe15 	stw	r4,-8(fp)
  80c6e4:	e17fff15 	stw	r5,-4(fp)
   * A common error case is that when the file descriptor was created, the call
   * to open() failed resulting in a negative file descriptor. This is trapped
   * below so that we don't try and process an invalid file descriptor.
   */

  fd = (file < 0) ? NULL : &alt_fd_list[file];
  80c6e8:	e0bffe17 	ldw	r2,-8(fp)
  80c6ec:	10000616 	blt	r2,zero,80c708 <fstat+0x38>
  80c6f0:	e0bffe17 	ldw	r2,-8(fp)
  80c6f4:	10c00324 	muli	r3,r2,12
  80c6f8:	00802074 	movhi	r2,129
  80c6fc:	10846904 	addi	r2,r2,4516
  80c700:	1885883a 	add	r2,r3,r2
  80c704:	00000106 	br	80c70c <fstat+0x3c>
  80c708:	0005883a 	mov	r2,zero
  80c70c:	e0bffd15 	stw	r2,-12(fp)
  
  if (fd)
  80c710:	e0bffd17 	ldw	r2,-12(fp)
  80c714:	10001026 	beq	r2,zero,80c758 <fstat+0x88>
  {
    /* Call the drivers fstat() function to fill out the "st" structure. */

    if (fd->dev->fstat)
  80c718:	e0bffd17 	ldw	r2,-12(fp)
  80c71c:	10800017 	ldw	r2,0(r2)
  80c720:	10800817 	ldw	r2,32(r2)
  80c724:	10000726 	beq	r2,zero,80c744 <fstat+0x74>
    {
      return fd->dev->fstat(fd, st);
  80c728:	e0bffd17 	ldw	r2,-12(fp)
  80c72c:	10800017 	ldw	r2,0(r2)
  80c730:	10800817 	ldw	r2,32(r2)
  80c734:	e17fff17 	ldw	r5,-4(fp)
  80c738:	e13ffd17 	ldw	r4,-12(fp)
  80c73c:	103ee83a 	callr	r2
  80c740:	00000a06 	br	80c76c <fstat+0x9c>
     * device.
     */
 
    else
    {
      st->st_mode = _IFCHR;
  80c744:	e0bfff17 	ldw	r2,-4(fp)
  80c748:	00c80004 	movi	r3,8192
  80c74c:	10c00115 	stw	r3,4(r2)
      return 0;
  80c750:	0005883a 	mov	r2,zero
  80c754:	00000506 	br	80c76c <fstat+0x9c>
    }
  }
  else
  {
    ALT_ERRNO = EBADFD;
  80c758:	080c6940 	call	80c694 <alt_get_errno>
  80c75c:	1007883a 	mov	r3,r2
  80c760:	00801444 	movi	r2,81
  80c764:	18800015 	stw	r2,0(r3)
    return -1;
  80c768:	00bfffc4 	movi	r2,-1
  }
}
  80c76c:	e037883a 	mov	sp,fp
  80c770:	dfc00117 	ldw	ra,4(sp)
  80c774:	df000017 	ldw	fp,0(sp)
  80c778:	dec00204 	addi	sp,sp,8
  80c77c:	f800283a 	ret

0080c780 <alt_get_errno>:
#undef errno

extern int errno;

static ALT_INLINE int* alt_get_errno(void)
{
  80c780:	defffe04 	addi	sp,sp,-8
  80c784:	dfc00115 	stw	ra,4(sp)
  80c788:	df000015 	stw	fp,0(sp)
  80c78c:	d839883a 	mov	fp,sp
  return ((alt_errno) ? alt_errno() : &errno);
  80c790:	d0a00a17 	ldw	r2,-32728(gp)
  80c794:	10000326 	beq	r2,zero,80c7a4 <alt_get_errno+0x24>
  80c798:	d0a00a17 	ldw	r2,-32728(gp)
  80c79c:	103ee83a 	callr	r2
  80c7a0:	00000106 	br	80c7a8 <alt_get_errno+0x28>
  80c7a4:	d0a72c04 	addi	r2,gp,-25424
}
  80c7a8:	e037883a 	mov	sp,fp
  80c7ac:	dfc00117 	ldw	ra,4(sp)
  80c7b0:	df000017 	ldw	fp,0(sp)
  80c7b4:	dec00204 	addi	sp,sp,8
  80c7b8:	f800283a 	ret

0080c7bc <isatty>:
 *
 * ALT_ISATTY is mapped onto the isatty() system call in alt_syscall.h
 */
 
int ALT_ISATTY (int file)
{
  80c7bc:	deffed04 	addi	sp,sp,-76
  80c7c0:	dfc01215 	stw	ra,72(sp)
  80c7c4:	df001115 	stw	fp,68(sp)
  80c7c8:	df001104 	addi	fp,sp,68
  80c7cc:	e13fff15 	stw	r4,-4(fp)
   * A common error case is that when the file descriptor was created, the call
   * to open() failed resulting in a negative file descriptor. This is trapped
   * below so that we don't try and process an invalid file descriptor.
   */

  fd = (file < 0) ? NULL : &alt_fd_list[file];
  80c7d0:	e0bfff17 	ldw	r2,-4(fp)
  80c7d4:	10000616 	blt	r2,zero,80c7f0 <isatty+0x34>
  80c7d8:	e0bfff17 	ldw	r2,-4(fp)
  80c7dc:	10c00324 	muli	r3,r2,12
  80c7e0:	00802074 	movhi	r2,129
  80c7e4:	10846904 	addi	r2,r2,4516
  80c7e8:	1885883a 	add	r2,r3,r2
  80c7ec:	00000106 	br	80c7f4 <isatty+0x38>
  80c7f0:	0005883a 	mov	r2,zero
  80c7f4:	e0bfef15 	stw	r2,-68(fp)
  
  if (fd)
  80c7f8:	e0bfef17 	ldw	r2,-68(fp)
  80c7fc:	10000e26 	beq	r2,zero,80c838 <isatty+0x7c>
    /*
     * If a device driver does not provide an fstat() function, then it is 
     * treated as a terminal device by default.
     */

    if (!fd->dev->fstat)
  80c800:	e0bfef17 	ldw	r2,-68(fp)
  80c804:	10800017 	ldw	r2,0(r2)
  80c808:	10800817 	ldw	r2,32(r2)
  80c80c:	1000021e 	bne	r2,zero,80c818 <isatty+0x5c>
    {
      return 1;
  80c810:	00800044 	movi	r2,1
  80c814:	00000d06 	br	80c84c <isatty+0x90>
     * this is called so that the device can identify itself.
     */ 

    else
    {
      fstat (file, &stat);
  80c818:	e0bff004 	addi	r2,fp,-64
  80c81c:	100b883a 	mov	r5,r2
  80c820:	e13fff17 	ldw	r4,-4(fp)
  80c824:	080c6d00 	call	80c6d0 <fstat>
      return (stat.st_mode == _IFCHR) ? 1 : 0;
  80c828:	e0bff117 	ldw	r2,-60(fp)
  80c82c:	10880020 	cmpeqi	r2,r2,8192
  80c830:	10803fcc 	andi	r2,r2,255
  80c834:	00000506 	br	80c84c <isatty+0x90>
    }
  }
  else
  {
    ALT_ERRNO = EBADFD;
  80c838:	080c7800 	call	80c780 <alt_get_errno>
  80c83c:	1007883a 	mov	r3,r2
  80c840:	00801444 	movi	r2,81
  80c844:	18800015 	stw	r2,0(r3)
    return 0;
  80c848:	0005883a 	mov	r2,zero
  }
}
  80c84c:	e037883a 	mov	sp,fp
  80c850:	dfc00117 	ldw	ra,4(sp)
  80c854:	df000017 	ldw	fp,0(sp)
  80c858:	dec00204 	addi	sp,sp,8
  80c85c:	f800283a 	ret

0080c860 <alt_load_section>:
 */

static void ALT_INLINE alt_load_section (alt_u32* from, 
                                         alt_u32* to, 
                                         alt_u32* end)
{
  80c860:	defffc04 	addi	sp,sp,-16
  80c864:	df000315 	stw	fp,12(sp)
  80c868:	df000304 	addi	fp,sp,12
  80c86c:	e13ffd15 	stw	r4,-12(fp)
  80c870:	e17ffe15 	stw	r5,-8(fp)
  80c874:	e1bfff15 	stw	r6,-4(fp)
  if (to != from)
  80c878:	e0fffe17 	ldw	r3,-8(fp)
  80c87c:	e0bffd17 	ldw	r2,-12(fp)
  80c880:	18800c26 	beq	r3,r2,80c8b4 <alt_load_section+0x54>
  {
    while( to != end )
  80c884:	00000806 	br	80c8a8 <alt_load_section+0x48>
    {
      *to++ = *from++;
  80c888:	e0bffe17 	ldw	r2,-8(fp)
  80c88c:	10c00104 	addi	r3,r2,4
  80c890:	e0fffe15 	stw	r3,-8(fp)
  80c894:	e0fffd17 	ldw	r3,-12(fp)
  80c898:	19000104 	addi	r4,r3,4
  80c89c:	e13ffd15 	stw	r4,-12(fp)
  80c8a0:	18c00017 	ldw	r3,0(r3)
  80c8a4:	10c00015 	stw	r3,0(r2)
                                         alt_u32* to, 
                                         alt_u32* end)
{
  if (to != from)
  {
    while( to != end )
  80c8a8:	e0fffe17 	ldw	r3,-8(fp)
  80c8ac:	e0bfff17 	ldw	r2,-4(fp)
  80c8b0:	18bff51e 	bne	r3,r2,80c888 <__alt_mem_onchip_mem+0xff804888>
    {
      *to++ = *from++;
    }
  }
}
  80c8b4:	0001883a 	nop
  80c8b8:	e037883a 	mov	sp,fp
  80c8bc:	df000017 	ldw	fp,0(sp)
  80c8c0:	dec00104 	addi	sp,sp,4
  80c8c4:	f800283a 	ret

0080c8c8 <alt_load>:
 * there is no bootloader, so this application is responsible for loading to
 * RAM any sections that are required.
 */  

void alt_load (void)
{
  80c8c8:	defffe04 	addi	sp,sp,-8
  80c8cc:	dfc00115 	stw	ra,4(sp)
  80c8d0:	df000015 	stw	fp,0(sp)
  80c8d4:	d839883a 	mov	fp,sp
  /* 
   * Copy the .rwdata section. 
   */

  alt_load_section (&__flash_rwdata_start, 
  80c8d8:	01802074 	movhi	r6,129
  80c8dc:	31896b04 	addi	r6,r6,9644
  80c8e0:	01402074 	movhi	r5,129
  80c8e4:	29425404 	addi	r5,r5,2384
  80c8e8:	01002074 	movhi	r4,129
  80c8ec:	21096b04 	addi	r4,r4,9644
  80c8f0:	080c8600 	call	80c860 <alt_load_section>

  /*
   * Copy the exception handler.
   */

  alt_load_section (&__flash_exceptions_start, 
  80c8f4:	01802034 	movhi	r6,128
  80c8f8:	31809104 	addi	r6,r6,580
  80c8fc:	01402034 	movhi	r5,128
  80c900:	29400804 	addi	r5,r5,32
  80c904:	01002034 	movhi	r4,128
  80c908:	21000804 	addi	r4,r4,32
  80c90c:	080c8600 	call	80c860 <alt_load_section>

  /*
   * Copy the .rodata section.
   */

  alt_load_section (&__flash_rodata_start, 
  80c910:	01802074 	movhi	r6,129
  80c914:	31825404 	addi	r6,r6,2384
  80c918:	01402074 	movhi	r5,129
  80c91c:	29415404 	addi	r5,r5,1360
  80c920:	01002074 	movhi	r4,129
  80c924:	21015404 	addi	r4,r4,1360
  80c928:	080c8600 	call	80c860 <alt_load_section>
  
  /*
   * Now ensure that the caches are in synch.
   */
  
  alt_dcache_flush_all();
  80c92c:	080f6ac0 	call	80f6ac <alt_dcache_flush_all>
  alt_icache_flush_all();
  80c930:	080fad00 	call	80fad0 <alt_icache_flush_all>
}
  80c934:	0001883a 	nop
  80c938:	e037883a 	mov	sp,fp
  80c93c:	dfc00117 	ldw	ra,4(sp)
  80c940:	df000017 	ldw	fp,0(sp)
  80c944:	dec00204 	addi	sp,sp,8
  80c948:	f800283a 	ret

0080c94c <alt_get_errno>:
#undef errno

extern int errno;

static ALT_INLINE int* alt_get_errno(void)
{
  80c94c:	defffe04 	addi	sp,sp,-8
  80c950:	dfc00115 	stw	ra,4(sp)
  80c954:	df000015 	stw	fp,0(sp)
  80c958:	d839883a 	mov	fp,sp
  return ((alt_errno) ? alt_errno() : &errno);
  80c95c:	d0a00a17 	ldw	r2,-32728(gp)
  80c960:	10000326 	beq	r2,zero,80c970 <alt_get_errno+0x24>
  80c964:	d0a00a17 	ldw	r2,-32728(gp)
  80c968:	103ee83a 	callr	r2
  80c96c:	00000106 	br	80c974 <alt_get_errno+0x28>
  80c970:	d0a72c04 	addi	r2,gp,-25424
}
  80c974:	e037883a 	mov	sp,fp
  80c978:	dfc00117 	ldw	ra,4(sp)
  80c97c:	df000017 	ldw	fp,0(sp)
  80c980:	dec00204 	addi	sp,sp,8
  80c984:	f800283a 	ret

0080c988 <lseek>:
 * ALT_LSEEK is mapped onto the lseek() system call in alt_syscall.h
 *
 */

off_t ALT_LSEEK (int file, off_t ptr, int dir)
{
  80c988:	defff904 	addi	sp,sp,-28
  80c98c:	dfc00615 	stw	ra,24(sp)
  80c990:	df000515 	stw	fp,20(sp)
  80c994:	df000504 	addi	fp,sp,20
  80c998:	e13ffd15 	stw	r4,-12(fp)
  80c99c:	e17ffe15 	stw	r5,-8(fp)
  80c9a0:	e1bfff15 	stw	r6,-4(fp)
  alt_fd* fd;
  off_t   rc = 0; 
  80c9a4:	e03ffb15 	stw	zero,-20(fp)
   * A common error case is that when the file descriptor was created, the call
   * to open() failed resulting in a negative file descriptor. This is trapped
   * below so that we don't try and process an invalid file descriptor.
   */

  fd = (file < 0) ? NULL : &alt_fd_list[file];
  80c9a8:	e0bffd17 	ldw	r2,-12(fp)
  80c9ac:	10000616 	blt	r2,zero,80c9c8 <lseek+0x40>
  80c9b0:	e0bffd17 	ldw	r2,-12(fp)
  80c9b4:	10c00324 	muli	r3,r2,12
  80c9b8:	00802074 	movhi	r2,129
  80c9bc:	10846904 	addi	r2,r2,4516
  80c9c0:	1885883a 	add	r2,r3,r2
  80c9c4:	00000106 	br	80c9cc <lseek+0x44>
  80c9c8:	0005883a 	mov	r2,zero
  80c9cc:	e0bffc15 	stw	r2,-16(fp)
  
  if (fd) 
  80c9d0:	e0bffc17 	ldw	r2,-16(fp)
  80c9d4:	10001026 	beq	r2,zero,80ca18 <lseek+0x90>
    /*
     * If the device driver provides an implementation of the lseek() function,
     * then call that to process the request.
     */
 
    if (fd->dev->lseek)
  80c9d8:	e0bffc17 	ldw	r2,-16(fp)
  80c9dc:	10800017 	ldw	r2,0(r2)
  80c9e0:	10800717 	ldw	r2,28(r2)
  80c9e4:	10000926 	beq	r2,zero,80ca0c <lseek+0x84>
    {
      rc = fd->dev->lseek(fd, ptr, dir);
  80c9e8:	e0bffc17 	ldw	r2,-16(fp)
  80c9ec:	10800017 	ldw	r2,0(r2)
  80c9f0:	10800717 	ldw	r2,28(r2)
  80c9f4:	e1bfff17 	ldw	r6,-4(fp)
  80c9f8:	e17ffe17 	ldw	r5,-8(fp)
  80c9fc:	e13ffc17 	ldw	r4,-16(fp)
  80ca00:	103ee83a 	callr	r2
  80ca04:	e0bffb15 	stw	r2,-20(fp)
  80ca08:	00000506 	br	80ca20 <lseek+0x98>
     * Otherwise return an error.
     */

    else
    {
      rc = -ENOTSUP;
  80ca0c:	00bfde84 	movi	r2,-134
  80ca10:	e0bffb15 	stw	r2,-20(fp)
  80ca14:	00000206 	br	80ca20 <lseek+0x98>
    }
  }
  else  
  {
    rc = -EBADFD;
  80ca18:	00bfebc4 	movi	r2,-81
  80ca1c:	e0bffb15 	stw	r2,-20(fp)
  }

  if (rc < 0)
  80ca20:	e0bffb17 	ldw	r2,-20(fp)
  80ca24:	1000070e 	bge	r2,zero,80ca44 <lseek+0xbc>
  {
    ALT_ERRNO = -rc;
  80ca28:	080c94c0 	call	80c94c <alt_get_errno>
  80ca2c:	1007883a 	mov	r3,r2
  80ca30:	e0bffb17 	ldw	r2,-20(fp)
  80ca34:	0085c83a 	sub	r2,zero,r2
  80ca38:	18800015 	stw	r2,0(r3)
    rc = -1;
  80ca3c:	00bfffc4 	movi	r2,-1
  80ca40:	e0bffb15 	stw	r2,-20(fp)
  }

  return rc;
  80ca44:	e0bffb17 	ldw	r2,-20(fp)
}
  80ca48:	e037883a 	mov	sp,fp
  80ca4c:	dfc00117 	ldw	ra,4(sp)
  80ca50:	df000017 	ldw	fp,0(sp)
  80ca54:	dec00204 	addi	sp,sp,8
  80ca58:	f800283a 	ret

0080ca5c <alt_main>:
 * devices/filesystems/components in the system; and call the entry point for
 * the users application, i.e. main().
 */

void alt_main (void)
{
  80ca5c:	defffd04 	addi	sp,sp,-12
  80ca60:	dfc00215 	stw	ra,8(sp)
  80ca64:	df000115 	stw	fp,4(sp)
  80ca68:	df000104 	addi	fp,sp,4
#endif

  /* ALT LOG - please see HAL/sys/alt_log_printf.h for details */
  ALT_LOG_PRINT_BOOT("[alt_main.c] Entering alt_main, calling alt_irq_init.\r\n");
  /* Initialize the interrupt controller. */
  alt_irq_init (NULL);
  80ca6c:	0009883a 	mov	r4,zero
  80ca70:	080d2cc0 	call	80d2cc <alt_irq_init>

  /* Initialize the operating system */
  ALT_LOG_PRINT_BOOT("[alt_main.c] Done alt_irq_init, calling alt_os_init.\r\n");
  ALT_OS_INIT();
  80ca74:	0001883a 	nop
  ALT_LOG_PRINT_BOOT("[alt_main.c] Done OS Init, calling alt_sem_create.\r\n");
  ALT_SEM_CREATE (&alt_fd_list_lock, 1);

  /* Initialize the device drivers/software components. */
  ALT_LOG_PRINT_BOOT("[alt_main.c] Calling alt_sys_init.\r\n");
  alt_sys_init();
  80ca78:	080d3040 	call	80d304 <alt_sys_init>
   * devices be present (not equal to /dev/null) and if direct drivers
   * aren't being used.
   */

    ALT_LOG_PRINT_BOOT("[alt_main.c] Redirecting IO.\r\n");
    alt_io_redirect(ALT_STDOUT, ALT_STDIN, ALT_STDERR);
  80ca7c:	01802074 	movhi	r6,129
  80ca80:	3181a604 	addi	r6,r6,1688
  80ca84:	01402074 	movhi	r5,129
  80ca88:	2941a604 	addi	r5,r5,1688
  80ca8c:	01002074 	movhi	r4,129
  80ca90:	2101a604 	addi	r4,r4,1688
  80ca94:	080fe680 	call	80fe68 <alt_io_redirect>
  /* 
   * Call the C++ constructors 
   */

  ALT_LOG_PRINT_BOOT("[alt_main.c] Calling C++ constructors.\r\n");
  _do_ctors ();
  80ca98:	080f7d40 	call	80f7d4 <_do_ctors>
   * redefined as _exit()). This is in the interest of reducing code footprint,
   * in that the atexit() overhead is removed when it's not needed.
   */

  ALT_LOG_PRINT_BOOT("[alt_main.c] Calling atexit.\r\n");
  atexit (_do_dtors);
  80ca9c:	01002074 	movhi	r4,129
  80caa0:	213e0d04 	addi	r4,r4,-1996
  80caa4:	08101bc0 	call	8101bc <atexit>
  ALT_LOG_PRINT_BOOT("[alt_main.c] Calling main.\r\n");

#ifdef ALT_NO_EXIT
  main (alt_argc, alt_argv, alt_envp);
#else
  result = main (alt_argc, alt_argv, alt_envp);
  80caa8:	d0a73017 	ldw	r2,-25408(gp)
  80caac:	d0e73117 	ldw	r3,-25404(gp)
  80cab0:	d1273217 	ldw	r4,-25400(gp)
  80cab4:	200d883a 	mov	r6,r4
  80cab8:	180b883a 	mov	r5,r3
  80cabc:	1009883a 	mov	r4,r2
  80cac0:	08005300 	call	800530 <main>
  80cac4:	e0bfff15 	stw	r2,-4(fp)
  close(STDOUT_FILENO);
  80cac8:	01000044 	movi	r4,1
  80cacc:	080c5980 	call	80c598 <close>
  exit (result);
  80cad0:	e13fff17 	ldw	r4,-4(fp)
  80cad4:	08101d00 	call	8101d0 <exit>

0080cad8 <__malloc_lock>:
 * configuration is single threaded, so there is nothing to do here. Note that 
 * this requires that malloc is never called by an interrupt service routine.
 */

void __malloc_lock ( struct _reent *_r )
{
  80cad8:	defffe04 	addi	sp,sp,-8
  80cadc:	df000115 	stw	fp,4(sp)
  80cae0:	df000104 	addi	fp,sp,4
  80cae4:	e13fff15 	stw	r4,-4(fp)
}
  80cae8:	0001883a 	nop
  80caec:	e037883a 	mov	sp,fp
  80caf0:	df000017 	ldw	fp,0(sp)
  80caf4:	dec00104 	addi	sp,sp,4
  80caf8:	f800283a 	ret

0080cafc <__malloc_unlock>:
/*
 *
 */

void __malloc_unlock ( struct _reent *_r )
{
  80cafc:	defffe04 	addi	sp,sp,-8
  80cb00:	df000115 	stw	fp,4(sp)
  80cb04:	df000104 	addi	fp,sp,4
  80cb08:	e13fff15 	stw	r4,-4(fp)
}
  80cb0c:	0001883a 	nop
  80cb10:	e037883a 	mov	sp,fp
  80cb14:	df000017 	ldw	fp,0(sp)
  80cb18:	dec00104 	addi	sp,sp,4
  80cb1c:	f800283a 	ret

0080cb20 <alt_get_errno>:
#undef errno

extern int errno;

static ALT_INLINE int* alt_get_errno(void)
{
  80cb20:	defffe04 	addi	sp,sp,-8
  80cb24:	dfc00115 	stw	ra,4(sp)
  80cb28:	df000015 	stw	fp,0(sp)
  80cb2c:	d839883a 	mov	fp,sp
  return ((alt_errno) ? alt_errno() : &errno);
  80cb30:	d0a00a17 	ldw	r2,-32728(gp)
  80cb34:	10000326 	beq	r2,zero,80cb44 <alt_get_errno+0x24>
  80cb38:	d0a00a17 	ldw	r2,-32728(gp)
  80cb3c:	103ee83a 	callr	r2
  80cb40:	00000106 	br	80cb48 <alt_get_errno+0x28>
  80cb44:	d0a72c04 	addi	r2,gp,-25424
}
  80cb48:	e037883a 	mov	sp,fp
  80cb4c:	dfc00117 	ldw	ra,4(sp)
  80cb50:	df000017 	ldw	fp,0(sp)
  80cb54:	dec00204 	addi	sp,sp,8
  80cb58:	f800283a 	ret

0080cb5c <alt_file_locked>:
 * performed for devices. Filesystems are required to handle the ioctl() call
 * themselves, and report the error from the filesystems open() function. 
 */ 

static int alt_file_locked (alt_fd* fd)
{
  80cb5c:	defffd04 	addi	sp,sp,-12
  80cb60:	df000215 	stw	fp,8(sp)
  80cb64:	df000204 	addi	fp,sp,8
  80cb68:	e13fff15 	stw	r4,-4(fp)

  /*
   * Mark the file descriptor as belonging to a device.
   */

  fd->fd_flags |= ALT_FD_DEV;
  80cb6c:	e0bfff17 	ldw	r2,-4(fp)
  80cb70:	10800217 	ldw	r2,8(r2)
  80cb74:	10d00034 	orhi	r3,r2,16384
  80cb78:	e0bfff17 	ldw	r2,-4(fp)
  80cb7c:	10c00215 	stw	r3,8(r2)
  /*
   * Loop through all current file descriptors searching for one that's locked
   * for exclusive access. If a match is found, generate an error.
   */

  for (i = 0; i <= alt_max_fd; i++)
  80cb80:	e03ffe15 	stw	zero,-8(fp)
  80cb84:	00001d06 	br	80cbfc <alt_file_locked+0xa0>
  {
    if ((alt_fd_list[i].dev == fd->dev) &&
  80cb88:	00802074 	movhi	r2,129
  80cb8c:	10846904 	addi	r2,r2,4516
  80cb90:	e0fffe17 	ldw	r3,-8(fp)
  80cb94:	18c00324 	muli	r3,r3,12
  80cb98:	10c5883a 	add	r2,r2,r3
  80cb9c:	10c00017 	ldw	r3,0(r2)
  80cba0:	e0bfff17 	ldw	r2,-4(fp)
  80cba4:	10800017 	ldw	r2,0(r2)
  80cba8:	1880111e 	bne	r3,r2,80cbf0 <alt_file_locked+0x94>
        (alt_fd_list[i].fd_flags & ALT_FD_EXCL) &&
  80cbac:	00802074 	movhi	r2,129
  80cbb0:	10846904 	addi	r2,r2,4516
  80cbb4:	e0fffe17 	ldw	r3,-8(fp)
  80cbb8:	18c00324 	muli	r3,r3,12
  80cbbc:	10c5883a 	add	r2,r2,r3
  80cbc0:	10800204 	addi	r2,r2,8
  80cbc4:	10800017 	ldw	r2,0(r2)
   * for exclusive access. If a match is found, generate an error.
   */

  for (i = 0; i <= alt_max_fd; i++)
  {
    if ((alt_fd_list[i].dev == fd->dev) &&
  80cbc8:	1000090e 	bge	r2,zero,80cbf0 <alt_file_locked+0x94>
        (alt_fd_list[i].fd_flags & ALT_FD_EXCL) &&
        (&alt_fd_list[i] != fd))
  80cbcc:	e0bffe17 	ldw	r2,-8(fp)
  80cbd0:	10c00324 	muli	r3,r2,12
  80cbd4:	00802074 	movhi	r2,129
  80cbd8:	10846904 	addi	r2,r2,4516
  80cbdc:	1887883a 	add	r3,r3,r2
   */

  for (i = 0; i <= alt_max_fd; i++)
  {
    if ((alt_fd_list[i].dev == fd->dev) &&
        (alt_fd_list[i].fd_flags & ALT_FD_EXCL) &&
  80cbe0:	e0bfff17 	ldw	r2,-4(fp)
  80cbe4:	18800226 	beq	r3,r2,80cbf0 <alt_file_locked+0x94>
        (&alt_fd_list[i] != fd))
    {
      return -EACCES;
  80cbe8:	00bffcc4 	movi	r2,-13
  80cbec:	00000806 	br	80cc10 <alt_file_locked+0xb4>
  /*
   * Loop through all current file descriptors searching for one that's locked
   * for exclusive access. If a match is found, generate an error.
   */

  for (i = 0; i <= alt_max_fd; i++)
  80cbf0:	e0bffe17 	ldw	r2,-8(fp)
  80cbf4:	10800044 	addi	r2,r2,1
  80cbf8:	e0bffe15 	stw	r2,-8(fp)
  80cbfc:	d0a00917 	ldw	r2,-32732(gp)
  80cc00:	1007883a 	mov	r3,r2
  80cc04:	e0bffe17 	ldw	r2,-8(fp)
  80cc08:	18bfdf2e 	bgeu	r3,r2,80cb88 <__alt_mem_onchip_mem+0xff804b88>
    }
  }
  
  /* The device is not locked */
 
  return 0;
  80cc0c:	0005883a 	mov	r2,zero
}
  80cc10:	e037883a 	mov	sp,fp
  80cc14:	df000017 	ldw	fp,0(sp)
  80cc18:	dec00104 	addi	sp,sp,4
  80cc1c:	f800283a 	ret

0080cc20 <open>:
 *
 * ALT_OPEN is mapped onto the open() system call in alt_syscall.h
 */
 
int ALT_OPEN (const char* file, int flags, int mode)
{ 
  80cc20:	defff604 	addi	sp,sp,-40
  80cc24:	dfc00915 	stw	ra,36(sp)
  80cc28:	df000815 	stw	fp,32(sp)
  80cc2c:	df000804 	addi	fp,sp,32
  80cc30:	e13ffd15 	stw	r4,-12(fp)
  80cc34:	e17ffe15 	stw	r5,-8(fp)
  80cc38:	e1bfff15 	stw	r6,-4(fp)
  alt_dev* dev;
  alt_fd*  fd;
  int index  = -1;
  80cc3c:	00bfffc4 	movi	r2,-1
  80cc40:	e0bff915 	stw	r2,-28(fp)
  int status = -ENODEV;
  80cc44:	00bffb44 	movi	r2,-19
  80cc48:	e0bffa15 	stw	r2,-24(fp)
  int isafs = 0;
  80cc4c:	e03ffb15 	stw	zero,-20(fp)
  /* 
   * Check the device list, to see if a device with a matching name is 
   * registered.
   */
  
  if (!(dev = alt_find_dev (file, &alt_dev_list)))
  80cc50:	d1600704 	addi	r5,gp,-32740
  80cc54:	e13ffd17 	ldw	r4,-12(fp)
  80cc58:	080f8940 	call	80f894 <alt_find_dev>
  80cc5c:	e0bff815 	stw	r2,-32(fp)
  80cc60:	e0bff817 	ldw	r2,-32(fp)
  80cc64:	1000051e 	bne	r2,zero,80cc7c <open+0x5c>
  {
    /* No matching device, so try the filesystem list */

    dev   = alt_find_file (file);
  80cc68:	e13ffd17 	ldw	r4,-12(fp)
  80cc6c:	080f9240 	call	80f924 <alt_find_file>
  80cc70:	e0bff815 	stw	r2,-32(fp)
    isafs = 1;
  80cc74:	00800044 	movi	r2,1
  80cc78:	e0bffb15 	stw	r2,-20(fp)

  /* 
   * If a matching device or filesystem is found, allocate a file descriptor. 
   */

  if (dev)
  80cc7c:	e0bff817 	ldw	r2,-32(fp)
  80cc80:	10002926 	beq	r2,zero,80cd28 <open+0x108>
  {
    if ((index = alt_get_fd (dev)) < 0)
  80cc84:	e13ff817 	ldw	r4,-32(fp)
  80cc88:	080fa2c0 	call	80fa2c <alt_get_fd>
  80cc8c:	e0bff915 	stw	r2,-28(fp)
  80cc90:	e0bff917 	ldw	r2,-28(fp)
  80cc94:	1000030e 	bge	r2,zero,80cca4 <open+0x84>
    {
      status = index;
  80cc98:	e0bff917 	ldw	r2,-28(fp)
  80cc9c:	e0bffa15 	stw	r2,-24(fp)
  80cca0:	00002306 	br	80cd30 <open+0x110>
    }
    else
    {
      fd = &alt_fd_list[index];
  80cca4:	e0bff917 	ldw	r2,-28(fp)
  80cca8:	10c00324 	muli	r3,r2,12
  80ccac:	00802074 	movhi	r2,129
  80ccb0:	10846904 	addi	r2,r2,4516
  80ccb4:	1885883a 	add	r2,r3,r2
  80ccb8:	e0bffc15 	stw	r2,-16(fp)
      fd->fd_flags = (flags & ~ALT_FD_FLAGS_MASK);
  80ccbc:	e0fffe17 	ldw	r3,-8(fp)
  80ccc0:	00900034 	movhi	r2,16384
  80ccc4:	10bfffc4 	addi	r2,r2,-1
  80ccc8:	1886703a 	and	r3,r3,r2
  80cccc:	e0bffc17 	ldw	r2,-16(fp)
  80ccd0:	10c00215 	stw	r3,8(r2)
      
      /* If this is a device, ensure it isn't already locked */

      if (isafs || ((status = alt_file_locked (fd)) >= 0))
  80ccd4:	e0bffb17 	ldw	r2,-20(fp)
  80ccd8:	1000051e 	bne	r2,zero,80ccf0 <open+0xd0>
  80ccdc:	e13ffc17 	ldw	r4,-16(fp)
  80cce0:	080cb5c0 	call	80cb5c <alt_file_locked>
  80cce4:	e0bffa15 	stw	r2,-24(fp)
  80cce8:	e0bffa17 	ldw	r2,-24(fp)
  80ccec:	10001016 	blt	r2,zero,80cd30 <open+0x110>
        /* 
         * If the device or filesystem provides an open() callback function,
         * call it now to perform any device/filesystem specific operations.
         */
    
        status = (dev->open) ? dev->open(fd, file, flags, mode): 0;
  80ccf0:	e0bff817 	ldw	r2,-32(fp)
  80ccf4:	10800317 	ldw	r2,12(r2)
  80ccf8:	10000826 	beq	r2,zero,80cd1c <open+0xfc>
  80ccfc:	e0bff817 	ldw	r2,-32(fp)
  80cd00:	10800317 	ldw	r2,12(r2)
  80cd04:	e1ffff17 	ldw	r7,-4(fp)
  80cd08:	e1bffe17 	ldw	r6,-8(fp)
  80cd0c:	e17ffd17 	ldw	r5,-12(fp)
  80cd10:	e13ffc17 	ldw	r4,-16(fp)
  80cd14:	103ee83a 	callr	r2
  80cd18:	00000106 	br	80cd20 <open+0x100>
  80cd1c:	0005883a 	mov	r2,zero
  80cd20:	e0bffa15 	stw	r2,-24(fp)
  80cd24:	00000206 	br	80cd30 <open+0x110>
      }
    }
  }
  else
  {
    status = -ENODEV;
  80cd28:	00bffb44 	movi	r2,-19
  80cd2c:	e0bffa15 	stw	r2,-24(fp)
  }

  /* Allocation failed, so clean up and return an error */ 

  if (status < 0)
  80cd30:	e0bffa17 	ldw	r2,-24(fp)
  80cd34:	1000090e 	bge	r2,zero,80cd5c <open+0x13c>
  {
    alt_release_fd (index);  
  80cd38:	e13ff917 	ldw	r4,-28(fp)
  80cd3c:	080ceac0 	call	80ceac <alt_release_fd>
    ALT_ERRNO = -status;
  80cd40:	080cb200 	call	80cb20 <alt_get_errno>
  80cd44:	1007883a 	mov	r3,r2
  80cd48:	e0bffa17 	ldw	r2,-24(fp)
  80cd4c:	0085c83a 	sub	r2,zero,r2
  80cd50:	18800015 	stw	r2,0(r3)
    return -1;
  80cd54:	00bfffc4 	movi	r2,-1
  80cd58:	00000106 	br	80cd60 <open+0x140>
  }
  
  /* return the reference upon success */

  return index;
  80cd5c:	e0bff917 	ldw	r2,-28(fp)
}
  80cd60:	e037883a 	mov	sp,fp
  80cd64:	dfc00117 	ldw	ra,4(sp)
  80cd68:	df000017 	ldw	fp,0(sp)
  80cd6c:	dec00204 	addi	sp,sp,8
  80cd70:	f800283a 	ret

0080cd74 <alt_get_errno>:
#undef errno

extern int errno;

static ALT_INLINE int* alt_get_errno(void)
{
  80cd74:	defffe04 	addi	sp,sp,-8
  80cd78:	dfc00115 	stw	ra,4(sp)
  80cd7c:	df000015 	stw	fp,0(sp)
  80cd80:	d839883a 	mov	fp,sp
  return ((alt_errno) ? alt_errno() : &errno);
  80cd84:	d0a00a17 	ldw	r2,-32728(gp)
  80cd88:	10000326 	beq	r2,zero,80cd98 <alt_get_errno+0x24>
  80cd8c:	d0a00a17 	ldw	r2,-32728(gp)
  80cd90:	103ee83a 	callr	r2
  80cd94:	00000106 	br	80cd9c <alt_get_errno+0x28>
  80cd98:	d0a72c04 	addi	r2,gp,-25424
}
  80cd9c:	e037883a 	mov	sp,fp
  80cda0:	dfc00117 	ldw	ra,4(sp)
  80cda4:	df000017 	ldw	fp,0(sp)
  80cda8:	dec00204 	addi	sp,sp,8
  80cdac:	f800283a 	ret

0080cdb0 <read>:
}

#else /* !ALT_USE_DIRECT_DRIVERS */

int ALT_READ (int file, void *ptr, size_t len)
{
  80cdb0:	defff904 	addi	sp,sp,-28
  80cdb4:	dfc00615 	stw	ra,24(sp)
  80cdb8:	df000515 	stw	fp,20(sp)
  80cdbc:	df000504 	addi	fp,sp,20
  80cdc0:	e13ffd15 	stw	r4,-12(fp)
  80cdc4:	e17ffe15 	stw	r5,-8(fp)
  80cdc8:	e1bfff15 	stw	r6,-4(fp)
   * A common error case is that when the file descriptor was created, the call
   * to open() failed resulting in a negative file descriptor. This is trapped
   * below so that we don't try and process an invalid file descriptor.
   */

  fd = (file < 0) ? NULL : &alt_fd_list[file];
  80cdcc:	e0bffd17 	ldw	r2,-12(fp)
  80cdd0:	10000616 	blt	r2,zero,80cdec <read+0x3c>
  80cdd4:	e0bffd17 	ldw	r2,-12(fp)
  80cdd8:	10c00324 	muli	r3,r2,12
  80cddc:	00802074 	movhi	r2,129
  80cde0:	10846904 	addi	r2,r2,4516
  80cde4:	1885883a 	add	r2,r3,r2
  80cde8:	00000106 	br	80cdf0 <read+0x40>
  80cdec:	0005883a 	mov	r2,zero
  80cdf0:	e0bffb15 	stw	r2,-20(fp)
  
  if (fd)
  80cdf4:	e0bffb17 	ldw	r2,-20(fp)
  80cdf8:	10002226 	beq	r2,zero,80ce84 <read+0xd4>
     * If the file has not been opened with read access, or if the driver does
     * not provide an implementation of read(), generate an error. Otherwise
     * call the drivers read() function to process the request.
     */

    if (((fd->fd_flags & O_ACCMODE) != O_WRONLY) && 
  80cdfc:	e0bffb17 	ldw	r2,-20(fp)
  80ce00:	10800217 	ldw	r2,8(r2)
  80ce04:	108000cc 	andi	r2,r2,3
  80ce08:	10800060 	cmpeqi	r2,r2,1
  80ce0c:	1000181e 	bne	r2,zero,80ce70 <read+0xc0>
        (fd->dev->read))
  80ce10:	e0bffb17 	ldw	r2,-20(fp)
  80ce14:	10800017 	ldw	r2,0(r2)
  80ce18:	10800517 	ldw	r2,20(r2)
     * If the file has not been opened with read access, or if the driver does
     * not provide an implementation of read(), generate an error. Otherwise
     * call the drivers read() function to process the request.
     */

    if (((fd->fd_flags & O_ACCMODE) != O_WRONLY) && 
  80ce1c:	10001426 	beq	r2,zero,80ce70 <read+0xc0>
        (fd->dev->read))
      {
        if ((rval = fd->dev->read(fd, ptr, len)) < 0)
  80ce20:	e0bffb17 	ldw	r2,-20(fp)
  80ce24:	10800017 	ldw	r2,0(r2)
  80ce28:	10800517 	ldw	r2,20(r2)
  80ce2c:	e0ffff17 	ldw	r3,-4(fp)
  80ce30:	180d883a 	mov	r6,r3
  80ce34:	e17ffe17 	ldw	r5,-8(fp)
  80ce38:	e13ffb17 	ldw	r4,-20(fp)
  80ce3c:	103ee83a 	callr	r2
  80ce40:	e0bffc15 	stw	r2,-16(fp)
  80ce44:	e0bffc17 	ldw	r2,-16(fp)
  80ce48:	1000070e 	bge	r2,zero,80ce68 <read+0xb8>
        {
          ALT_ERRNO = -rval;
  80ce4c:	080cd740 	call	80cd74 <alt_get_errno>
  80ce50:	1007883a 	mov	r3,r2
  80ce54:	e0bffc17 	ldw	r2,-16(fp)
  80ce58:	0085c83a 	sub	r2,zero,r2
  80ce5c:	18800015 	stw	r2,0(r3)
          return -1;
  80ce60:	00bfffc4 	movi	r2,-1
  80ce64:	00000c06 	br	80ce98 <read+0xe8>
        }
        return rval;
  80ce68:	e0bffc17 	ldw	r2,-16(fp)
  80ce6c:	00000a06 	br	80ce98 <read+0xe8>
      }
      else
      {
        ALT_ERRNO = EACCES;
  80ce70:	080cd740 	call	80cd74 <alt_get_errno>
  80ce74:	1007883a 	mov	r3,r2
  80ce78:	00800344 	movi	r2,13
  80ce7c:	18800015 	stw	r2,0(r3)
  80ce80:	00000406 	br	80ce94 <read+0xe4>
      }
    }
  else
  {
    ALT_ERRNO = EBADFD;
  80ce84:	080cd740 	call	80cd74 <alt_get_errno>
  80ce88:	1007883a 	mov	r3,r2
  80ce8c:	00801444 	movi	r2,81
  80ce90:	18800015 	stw	r2,0(r3)
  }
  return -1;
  80ce94:	00bfffc4 	movi	r2,-1
}
  80ce98:	e037883a 	mov	sp,fp
  80ce9c:	dfc00117 	ldw	ra,4(sp)
  80cea0:	df000017 	ldw	fp,0(sp)
  80cea4:	dec00204 	addi	sp,sp,8
  80cea8:	f800283a 	ret

0080ceac <alt_release_fd>:
 * File descriptors correcponding to standard in, standard out and standard 
 * error cannont be released backed to the pool. They are always reserved.
 */

void alt_release_fd (int fd)
{
  80ceac:	defffe04 	addi	sp,sp,-8
  80ceb0:	df000115 	stw	fp,4(sp)
  80ceb4:	df000104 	addi	fp,sp,4
  80ceb8:	e13fff15 	stw	r4,-4(fp)
  if (fd > 2)
  80cebc:	e0bfff17 	ldw	r2,-4(fp)
  80cec0:	108000d0 	cmplti	r2,r2,3
  80cec4:	10000d1e 	bne	r2,zero,80cefc <alt_release_fd+0x50>
  {
    alt_fd_list[fd].fd_flags = 0;
  80cec8:	00802074 	movhi	r2,129
  80cecc:	10846904 	addi	r2,r2,4516
  80ced0:	e0ffff17 	ldw	r3,-4(fp)
  80ced4:	18c00324 	muli	r3,r3,12
  80ced8:	10c5883a 	add	r2,r2,r3
  80cedc:	10800204 	addi	r2,r2,8
  80cee0:	10000015 	stw	zero,0(r2)
    alt_fd_list[fd].dev      = 0;
  80cee4:	00802074 	movhi	r2,129
  80cee8:	10846904 	addi	r2,r2,4516
  80ceec:	e0ffff17 	ldw	r3,-4(fp)
  80cef0:	18c00324 	muli	r3,r3,12
  80cef4:	10c5883a 	add	r2,r2,r3
  80cef8:	10000015 	stw	zero,0(r2)
  }
}
  80cefc:	0001883a 	nop
  80cf00:	e037883a 	mov	sp,fp
  80cf04:	df000017 	ldw	fp,0(sp)
  80cf08:	dec00104 	addi	sp,sp,4
  80cf0c:	f800283a 	ret

0080cf10 <sbrk>:
#endif
 
caddr_t ALT_SBRK (int incr) __attribute__ ((no_instrument_function ));

caddr_t ALT_SBRK (int incr)
{ 
  80cf10:	defff904 	addi	sp,sp,-28
  80cf14:	df000615 	stw	fp,24(sp)
  80cf18:	df000604 	addi	fp,sp,24
  80cf1c:	e13fff15 	stw	r4,-4(fp)
static ALT_INLINE alt_irq_context ALT_ALWAYS_INLINE 
       alt_irq_disable_all (void)
{
  alt_irq_context context;

  NIOS2_READ_STATUS (context);
  80cf20:	0005303a 	rdctl	r2,status
  80cf24:	e0bffe15 	stw	r2,-8(fp)

  NIOS2_WRITE_STATUS (context & ~NIOS2_STATUS_PIE_MSK);
  80cf28:	e0fffe17 	ldw	r3,-8(fp)
  80cf2c:	00bfff84 	movi	r2,-2
  80cf30:	1884703a 	and	r2,r3,r2
  80cf34:	1001703a 	wrctl	status,r2
  
  return context;
  80cf38:	e0bffe17 	ldw	r2,-8(fp)
  alt_irq_context context;
  char *prev_heap_end; 

  context = alt_irq_disable_all();
  80cf3c:	e0bffb15 	stw	r2,-20(fp)

  /* Always return data aligned on a word boundary */
  heap_end = (char *)(((unsigned int)heap_end + 3) & ~3);
  80cf40:	d0a00b17 	ldw	r2,-32724(gp)
  80cf44:	10c000c4 	addi	r3,r2,3
  80cf48:	00bfff04 	movi	r2,-4
  80cf4c:	1884703a 	and	r2,r3,r2
  80cf50:	d0a00b15 	stw	r2,-32724(gp)
  if (((heap_end + incr) - __alt_heap_start) > ALT_MAX_HEAP_BYTES) {
    alt_irq_enable_all(context);
    return (caddr_t)-1;
  }
#else
  if ((heap_end + incr) > __alt_heap_limit) {
  80cf54:	d0e00b17 	ldw	r3,-32724(gp)
  80cf58:	e0bfff17 	ldw	r2,-4(fp)
  80cf5c:	1887883a 	add	r3,r3,r2
  80cf60:	00804034 	movhi	r2,256
  80cf64:	10800004 	addi	r2,r2,0
  80cf68:	10c0062e 	bgeu	r2,r3,80cf84 <sbrk+0x74>
  80cf6c:	e0bffb17 	ldw	r2,-20(fp)
  80cf70:	e0bffa15 	stw	r2,-24(fp)
  status &= ~NIOS2_STATUS_PIE_MSK;
  status |= (context & NIOS2_STATUS_PIE_MSK);
  
  NIOS2_WRITE_STATUS (status);
#else
  NIOS2_WRITE_STATUS (context);
  80cf74:	e0bffa17 	ldw	r2,-24(fp)
  80cf78:	1001703a 	wrctl	status,r2
    alt_irq_enable_all(context);
    return (caddr_t)-1;
  80cf7c:	00bfffc4 	movi	r2,-1
  80cf80:	00000b06 	br	80cfb0 <sbrk+0xa0>
  }
#endif

  prev_heap_end = heap_end; 
  80cf84:	d0a00b17 	ldw	r2,-32724(gp)
  80cf88:	e0bffd15 	stw	r2,-12(fp)
  heap_end += incr; 
  80cf8c:	d0e00b17 	ldw	r3,-32724(gp)
  80cf90:	e0bfff17 	ldw	r2,-4(fp)
  80cf94:	1885883a 	add	r2,r3,r2
  80cf98:	d0a00b15 	stw	r2,-32724(gp)
  80cf9c:	e0bffb17 	ldw	r2,-20(fp)
  80cfa0:	e0bffc15 	stw	r2,-16(fp)
  80cfa4:	e0bffc17 	ldw	r2,-16(fp)
  80cfa8:	1001703a 	wrctl	status,r2

#endif

  alt_irq_enable_all(context);

  return (caddr_t) prev_heap_end; 
  80cfac:	e0bffd17 	ldw	r2,-12(fp)
} 
  80cfb0:	e037883a 	mov	sp,fp
  80cfb4:	df000017 	ldw	fp,0(sp)
  80cfb8:	dec00104 	addi	sp,sp,4
  80cfbc:	f800283a 	ret

0080cfc0 <alt_alarm_stop>:
 * alarms. Alternatively an alarm can unregister itself by returning zero when 
 * the alarm executes.
 */

void alt_alarm_stop (alt_alarm* alarm)
{
  80cfc0:	defffa04 	addi	sp,sp,-24
  80cfc4:	df000515 	stw	fp,20(sp)
  80cfc8:	df000504 	addi	fp,sp,20
  80cfcc:	e13fff15 	stw	r4,-4(fp)
static ALT_INLINE alt_irq_context ALT_ALWAYS_INLINE 
       alt_irq_disable_all (void)
{
  alt_irq_context context;

  NIOS2_READ_STATUS (context);
  80cfd0:	0005303a 	rdctl	r2,status
  80cfd4:	e0bffc15 	stw	r2,-16(fp)

  NIOS2_WRITE_STATUS (context & ~NIOS2_STATUS_PIE_MSK);
  80cfd8:	e0fffc17 	ldw	r3,-16(fp)
  80cfdc:	00bfff84 	movi	r2,-2
  80cfe0:	1884703a 	and	r2,r3,r2
  80cfe4:	1001703a 	wrctl	status,r2
  
  return context;
  80cfe8:	e0bffc17 	ldw	r2,-16(fp)
  alt_irq_context irq_context;

  irq_context = alt_irq_disable_all();
  80cfec:	e0bffb15 	stw	r2,-20(fp)
  alt_llist_remove (&alarm->llist);
  80cff0:	e0bfff17 	ldw	r2,-4(fp)
  80cff4:	e0bffd15 	stw	r2,-12(fp)
 * input argument is the element to remove.
 */
     
static ALT_INLINE void ALT_ALWAYS_INLINE alt_llist_remove(alt_llist* entry)
{
  entry->next->previous = entry->previous;
  80cff8:	e0bffd17 	ldw	r2,-12(fp)
  80cffc:	10800017 	ldw	r2,0(r2)
  80d000:	e0fffd17 	ldw	r3,-12(fp)
  80d004:	18c00117 	ldw	r3,4(r3)
  80d008:	10c00115 	stw	r3,4(r2)
  entry->previous->next = entry->next;
  80d00c:	e0bffd17 	ldw	r2,-12(fp)
  80d010:	10800117 	ldw	r2,4(r2)
  80d014:	e0fffd17 	ldw	r3,-12(fp)
  80d018:	18c00017 	ldw	r3,0(r3)
  80d01c:	10c00015 	stw	r3,0(r2)
  /* 
   * Set the entry to point to itself, so that any further calls to
   * alt_llist_remove() are harmless.
   */

  entry->previous = entry;
  80d020:	e0bffd17 	ldw	r2,-12(fp)
  80d024:	e0fffd17 	ldw	r3,-12(fp)
  80d028:	10c00115 	stw	r3,4(r2)
  entry->next     = entry;
  80d02c:	e0bffd17 	ldw	r2,-12(fp)
  80d030:	e0fffd17 	ldw	r3,-12(fp)
  80d034:	10c00015 	stw	r3,0(r2)
  80d038:	e0bffb17 	ldw	r2,-20(fp)
  80d03c:	e0bffe15 	stw	r2,-8(fp)
  status &= ~NIOS2_STATUS_PIE_MSK;
  status |= (context & NIOS2_STATUS_PIE_MSK);
  
  NIOS2_WRITE_STATUS (status);
#else
  NIOS2_WRITE_STATUS (context);
  80d040:	e0bffe17 	ldw	r2,-8(fp)
  80d044:	1001703a 	wrctl	status,r2
  alt_irq_enable_all (irq_context);
}
  80d048:	0001883a 	nop
  80d04c:	e037883a 	mov	sp,fp
  80d050:	df000017 	ldw	fp,0(sp)
  80d054:	dec00104 	addi	sp,sp,4
  80d058:	f800283a 	ret

0080d05c <alt_tick>:
 * 
 * alt_tick() is expected to run at interrupt level.
 */

void alt_tick (void)
{
  80d05c:	defffb04 	addi	sp,sp,-20
  80d060:	dfc00415 	stw	ra,16(sp)
  80d064:	df000315 	stw	fp,12(sp)
  80d068:	df000304 	addi	fp,sp,12
  alt_alarm* next;
  alt_alarm* alarm = (alt_alarm*) alt_alarm_list.next;
  80d06c:	d0a00c17 	ldw	r2,-32720(gp)
  80d070:	e0bffd15 	stw	r2,-12(fp)

  alt_u32    next_callback;

  /* update the tick counter */

  _alt_nticks++;
  80d074:	d0a73417 	ldw	r2,-25392(gp)
  80d078:	10800044 	addi	r2,r2,1
  80d07c:	d0a73415 	stw	r2,-25392(gp)

  /* process the registered callbacks */

  while (alarm != (alt_alarm*) &alt_alarm_list)
  80d080:	00002e06 	br	80d13c <alt_tick+0xe0>
  {
    next = (alt_alarm*) alarm->llist.next;
  80d084:	e0bffd17 	ldw	r2,-12(fp)
  80d088:	10800017 	ldw	r2,0(r2)
  80d08c:	e0bffe15 	stw	r2,-8(fp)
    /* 
     * Upon the tick-counter rolling over it is safe to clear the 
     * roll-over flag; once the flag is cleared this (or subsequnt)
     * tick events are enabled to generate an alarm event. 
     */
    if ((alarm->rollover) && (_alt_nticks == 0))
  80d090:	e0bffd17 	ldw	r2,-12(fp)
  80d094:	10800403 	ldbu	r2,16(r2)
  80d098:	10803fcc 	andi	r2,r2,255
  80d09c:	10000426 	beq	r2,zero,80d0b0 <alt_tick+0x54>
  80d0a0:	d0a73417 	ldw	r2,-25392(gp)
  80d0a4:	1000021e 	bne	r2,zero,80d0b0 <alt_tick+0x54>
    {
      alarm->rollover = 0;
  80d0a8:	e0bffd17 	ldw	r2,-12(fp)
  80d0ac:	10000405 	stb	zero,16(r2)
    }
    
    /* if the alarm period has expired, make the callback */    
    if ((alarm->time <= _alt_nticks) && (alarm->rollover == 0))
  80d0b0:	e0bffd17 	ldw	r2,-12(fp)
  80d0b4:	10800217 	ldw	r2,8(r2)
  80d0b8:	d0e73417 	ldw	r3,-25392(gp)
  80d0bc:	18801d36 	bltu	r3,r2,80d134 <alt_tick+0xd8>
  80d0c0:	e0bffd17 	ldw	r2,-12(fp)
  80d0c4:	10800403 	ldbu	r2,16(r2)
  80d0c8:	10803fcc 	andi	r2,r2,255
  80d0cc:	1000191e 	bne	r2,zero,80d134 <alt_tick+0xd8>
    {
      next_callback = alarm->callback (alarm->context);
  80d0d0:	e0bffd17 	ldw	r2,-12(fp)
  80d0d4:	10800317 	ldw	r2,12(r2)
  80d0d8:	e0fffd17 	ldw	r3,-12(fp)
  80d0dc:	18c00517 	ldw	r3,20(r3)
  80d0e0:	1809883a 	mov	r4,r3
  80d0e4:	103ee83a 	callr	r2
  80d0e8:	e0bfff15 	stw	r2,-4(fp)

      /* deactivate the alarm if the return value is zero */

      if (next_callback == 0)
  80d0ec:	e0bfff17 	ldw	r2,-4(fp)
  80d0f0:	1000031e 	bne	r2,zero,80d100 <alt_tick+0xa4>
      {
        alt_alarm_stop (alarm);
  80d0f4:	e13ffd17 	ldw	r4,-12(fp)
  80d0f8:	080cfc00 	call	80cfc0 <alt_alarm_stop>
  80d0fc:	00000d06 	br	80d134 <alt_tick+0xd8>
      }
      else
      {
        alarm->time += next_callback;
  80d100:	e0bffd17 	ldw	r2,-12(fp)
  80d104:	10c00217 	ldw	r3,8(r2)
  80d108:	e0bfff17 	ldw	r2,-4(fp)
  80d10c:	1887883a 	add	r3,r3,r2
  80d110:	e0bffd17 	ldw	r2,-12(fp)
  80d114:	10c00215 	stw	r3,8(r2)
        /* 
         * If the desired alarm time causes a roll-over, set the rollover
         * flag. This will prevent the subsequent tick event from causing
         * an alarm too early.
         */
        if(alarm->time < _alt_nticks)
  80d118:	e0bffd17 	ldw	r2,-12(fp)
  80d11c:	10c00217 	ldw	r3,8(r2)
  80d120:	d0a73417 	ldw	r2,-25392(gp)
  80d124:	1880032e 	bgeu	r3,r2,80d134 <alt_tick+0xd8>
        {
          alarm->rollover = 1;
  80d128:	e0bffd17 	ldw	r2,-12(fp)
  80d12c:	00c00044 	movi	r3,1
  80d130:	10c00405 	stb	r3,16(r2)
        }
      }
    }
    alarm = next;
  80d134:	e0bffe17 	ldw	r2,-8(fp)
  80d138:	e0bffd15 	stw	r2,-12(fp)

  _alt_nticks++;

  /* process the registered callbacks */

  while (alarm != (alt_alarm*) &alt_alarm_list)
  80d13c:	e0fffd17 	ldw	r3,-12(fp)
  80d140:	d0a00c04 	addi	r2,gp,-32720
  80d144:	18bfcf1e 	bne	r3,r2,80d084 <__alt_mem_onchip_mem+0xff805084>

  /* 
   * Update the operating system specific timer facilities.
   */

  ALT_OS_TIME_TICK();
  80d148:	0001883a 	nop
}
  80d14c:	0001883a 	nop
  80d150:	e037883a 	mov	sp,fp
  80d154:	dfc00117 	ldw	ra,4(sp)
  80d158:	df000017 	ldw	fp,0(sp)
  80d15c:	dec00204 	addi	sp,sp,8
  80d160:	f800283a 	ret

0080d164 <alt_get_errno>:
#undef errno

extern int errno;

static ALT_INLINE int* alt_get_errno(void)
{
  80d164:	defffe04 	addi	sp,sp,-8
  80d168:	dfc00115 	stw	ra,4(sp)
  80d16c:	df000015 	stw	fp,0(sp)
  80d170:	d839883a 	mov	fp,sp
  return ((alt_errno) ? alt_errno() : &errno);
  80d174:	d0a00a17 	ldw	r2,-32728(gp)
  80d178:	10000326 	beq	r2,zero,80d188 <alt_get_errno+0x24>
  80d17c:	d0a00a17 	ldw	r2,-32728(gp)
  80d180:	103ee83a 	callr	r2
  80d184:	00000106 	br	80d18c <alt_get_errno+0x28>
  80d188:	d0a72c04 	addi	r2,gp,-25424
}
  80d18c:	e037883a 	mov	sp,fp
  80d190:	dfc00117 	ldw	ra,4(sp)
  80d194:	df000017 	ldw	fp,0(sp)
  80d198:	dec00204 	addi	sp,sp,8
  80d19c:	f800283a 	ret

0080d1a0 <write>:
}

#else /* !ALT_USE_DIRECT_DRIVERS */

int ALT_WRITE (int file, const void *ptr, size_t len)
{
  80d1a0:	defff904 	addi	sp,sp,-28
  80d1a4:	dfc00615 	stw	ra,24(sp)
  80d1a8:	df000515 	stw	fp,20(sp)
  80d1ac:	df000504 	addi	fp,sp,20
  80d1b0:	e13ffd15 	stw	r4,-12(fp)
  80d1b4:	e17ffe15 	stw	r5,-8(fp)
  80d1b8:	e1bfff15 	stw	r6,-4(fp)
   * A common error case is that when the file descriptor was created, the call
   * to open() failed resulting in a negative file descriptor. This is trapped
   * below so that we don't try and process an invalid file descriptor.
   */

  fd = (file < 0) ? NULL : &alt_fd_list[file];
  80d1bc:	e0bffd17 	ldw	r2,-12(fp)
  80d1c0:	10000616 	blt	r2,zero,80d1dc <write+0x3c>
  80d1c4:	e0bffd17 	ldw	r2,-12(fp)
  80d1c8:	10c00324 	muli	r3,r2,12
  80d1cc:	00802074 	movhi	r2,129
  80d1d0:	10846904 	addi	r2,r2,4516
  80d1d4:	1885883a 	add	r2,r3,r2
  80d1d8:	00000106 	br	80d1e0 <write+0x40>
  80d1dc:	0005883a 	mov	r2,zero
  80d1e0:	e0bffb15 	stw	r2,-20(fp)
  
  if (fd)
  80d1e4:	e0bffb17 	ldw	r2,-20(fp)
  80d1e8:	10002126 	beq	r2,zero,80d270 <write+0xd0>
     * If the file has not been opened with write access, or if the driver does
     * not provide an implementation of write(), generate an error. Otherwise
     * call the drivers write() function to process the request.
     */

    if (((fd->fd_flags & O_ACCMODE) != O_RDONLY) && fd->dev->write)
  80d1ec:	e0bffb17 	ldw	r2,-20(fp)
  80d1f0:	10800217 	ldw	r2,8(r2)
  80d1f4:	108000cc 	andi	r2,r2,3
  80d1f8:	10001826 	beq	r2,zero,80d25c <write+0xbc>
  80d1fc:	e0bffb17 	ldw	r2,-20(fp)
  80d200:	10800017 	ldw	r2,0(r2)
  80d204:	10800617 	ldw	r2,24(r2)
  80d208:	10001426 	beq	r2,zero,80d25c <write+0xbc>
    {
      
      /* ALT_LOG - see altera_hal/HAL/inc/sys/alt_log_printf.h */
      ALT_LOG_WRITE_FUNCTION(ptr,len);

      if ((rval = fd->dev->write(fd, ptr, len)) < 0)
  80d20c:	e0bffb17 	ldw	r2,-20(fp)
  80d210:	10800017 	ldw	r2,0(r2)
  80d214:	10800617 	ldw	r2,24(r2)
  80d218:	e0ffff17 	ldw	r3,-4(fp)
  80d21c:	180d883a 	mov	r6,r3
  80d220:	e17ffe17 	ldw	r5,-8(fp)
  80d224:	e13ffb17 	ldw	r4,-20(fp)
  80d228:	103ee83a 	callr	r2
  80d22c:	e0bffc15 	stw	r2,-16(fp)
  80d230:	e0bffc17 	ldw	r2,-16(fp)
  80d234:	1000070e 	bge	r2,zero,80d254 <write+0xb4>
      {
        ALT_ERRNO = -rval;
  80d238:	080d1640 	call	80d164 <alt_get_errno>
  80d23c:	1007883a 	mov	r3,r2
  80d240:	e0bffc17 	ldw	r2,-16(fp)
  80d244:	0085c83a 	sub	r2,zero,r2
  80d248:	18800015 	stw	r2,0(r3)
        return -1;
  80d24c:	00bfffc4 	movi	r2,-1
  80d250:	00000c06 	br	80d284 <write+0xe4>
      }
      return rval;
  80d254:	e0bffc17 	ldw	r2,-16(fp)
  80d258:	00000a06 	br	80d284 <write+0xe4>
    }
    else
    {
      ALT_ERRNO = EACCES;
  80d25c:	080d1640 	call	80d164 <alt_get_errno>
  80d260:	1007883a 	mov	r3,r2
  80d264:	00800344 	movi	r2,13
  80d268:	18800015 	stw	r2,0(r3)
  80d26c:	00000406 	br	80d280 <write+0xe0>
    }
  }
  else  
  {
    ALT_ERRNO = EBADFD;
  80d270:	080d1640 	call	80d164 <alt_get_errno>
  80d274:	1007883a 	mov	r3,r2
  80d278:	00801444 	movi	r2,81
  80d27c:	18800015 	stw	r2,0(r3)
  }
  return -1;
  80d280:	00bfffc4 	movi	r2,-1
}
  80d284:	e037883a 	mov	sp,fp
  80d288:	dfc00117 	ldw	ra,4(sp)
  80d28c:	df000017 	ldw	fp,0(sp)
  80d290:	dec00204 	addi	sp,sp,8
  80d294:	f800283a 	ret

0080d298 <alt_dev_reg>:
 */

extern int alt_fs_reg  (alt_dev* dev); 

static ALT_INLINE int alt_dev_reg (alt_dev* dev)
{
  80d298:	defffd04 	addi	sp,sp,-12
  80d29c:	dfc00215 	stw	ra,8(sp)
  80d2a0:	df000115 	stw	fp,4(sp)
  80d2a4:	df000104 	addi	fp,sp,4
  80d2a8:	e13fff15 	stw	r4,-4(fp)
  extern alt_llist alt_dev_list;

  return alt_dev_llist_insert ((alt_dev_llist*) dev, &alt_dev_list);
  80d2ac:	d1600704 	addi	r5,gp,-32740
  80d2b0:	e13fff17 	ldw	r4,-4(fp)
  80d2b4:	080f7300 	call	80f730 <alt_dev_llist_insert>
}
  80d2b8:	e037883a 	mov	sp,fp
  80d2bc:	dfc00117 	ldw	ra,4(sp)
  80d2c0:	df000017 	ldw	fp,0(sp)
  80d2c4:	dec00204 	addi	sp,sp,8
  80d2c8:	f800283a 	ret

0080d2cc <alt_irq_init>:
 * The "base" parameter is ignored and only
 * present for backwards-compatibility.
 */

void alt_irq_init ( const void* base )
{
  80d2cc:	defffd04 	addi	sp,sp,-12
  80d2d0:	dfc00215 	stw	ra,8(sp)
  80d2d4:	df000115 	stw	fp,4(sp)
  80d2d8:	df000104 	addi	fp,sp,4
  80d2dc:	e13fff15 	stw	r4,-4(fp)
    ALTERA_NIOS2_GEN2_IRQ_INIT ( CPU, cpu);
  80d2e0:	080ff140 	call	80ff14 <altera_nios2_gen2_irq_init>
 * alt_irq_cpu_enable_interrupts() enables the CPU to start taking interrupts.
 */
static ALT_INLINE void ALT_ALWAYS_INLINE 
       alt_irq_cpu_enable_interrupts (void)
{
    NIOS2_WRITE_STATUS(NIOS2_STATUS_PIE_MSK
  80d2e4:	00800044 	movi	r2,1
  80d2e8:	1001703a 	wrctl	status,r2
    alt_irq_cpu_enable_interrupts();
}
  80d2ec:	0001883a 	nop
  80d2f0:	e037883a 	mov	sp,fp
  80d2f4:	dfc00117 	ldw	ra,4(sp)
  80d2f8:	df000017 	ldw	fp,0(sp)
  80d2fc:	dec00204 	addi	sp,sp,8
  80d300:	f800283a 	ret

0080d304 <alt_sys_init>:
 * Initialize the non-interrupt controller devices.
 * Called after alt_irq_init().
 */

void alt_sys_init( void )
{
  80d304:	defffe04 	addi	sp,sp,-8
  80d308:	dfc00115 	stw	ra,4(sp)
  80d30c:	df000015 	stw	fp,0(sp)
  80d310:	d839883a 	mov	fp,sp
    ALTERA_AVALON_TIMER_INIT ( TIMER_0, timer_0);
  80d314:	01c0fa04 	movi	r7,1000
  80d318:	01800084 	movi	r6,2
  80d31c:	000b883a 	mov	r5,zero
  80d320:	01004074 	movhi	r4,257
  80d324:	21040804 	addi	r4,r4,4128
  80d328:	080ed580 	call	80ed58 <alt_avalon_timer_sc_init>
    ALTERA_AVALON_TIMER_INIT ( TIMER_1, timer_1);
    ALTERA_AVALON_JTAG_UART_INIT ( JTAG_UART, jtag_uart);
  80d32c:	01800044 	movi	r6,1
  80d330:	000b883a 	mov	r5,zero
  80d334:	01002074 	movhi	r4,129
  80d338:	2104d304 	addi	r4,r4,4940
  80d33c:	080d5000 	call	80d500 <altera_avalon_jtag_uart_init>
  80d340:	01002074 	movhi	r4,129
  80d344:	2104c904 	addi	r4,r4,4900
  80d348:	080d2980 	call	80d298 <alt_dev_reg>
    ALTERA_AVALON_LCD_16207_INIT ( LCD, lcd);
  80d34c:	01002074 	movhi	r4,129
  80d350:	2108eb04 	addi	r4,r4,9132
  80d354:	080eb4c0 	call	80eb4c <altera_avalon_lcd_16207_init>
  80d358:	01002074 	movhi	r4,129
  80d35c:	2108e104 	addi	r4,r4,9092
  80d360:	080d2980 	call	80d298 <alt_dev_reg>
    ALTERA_AVALON_UART_INIT ( UART, uart);
  80d364:	000d883a 	mov	r6,zero
  80d368:	000b883a 	mov	r5,zero
  80d36c:	01002074 	movhi	r4,129
  80d370:	21093304 	addi	r4,r4,9420
  80d374:	080eee40 	call	80eee4 <altera_avalon_uart_init>
  80d378:	01002074 	movhi	r4,129
  80d37c:	21092904 	addi	r4,r4,9380
  80d380:	080d2980 	call	80d298 <alt_dev_reg>
}
  80d384:	0001883a 	nop
  80d388:	e037883a 	mov	sp,fp
  80d38c:	dfc00117 	ldw	ra,4(sp)
  80d390:	df000017 	ldw	fp,0(sp)
  80d394:	dec00204 	addi	sp,sp,8
  80d398:	f800283a 	ret

0080d39c <altera_avalon_jtag_uart_read_fd>:
 *
 */

int 
altera_avalon_jtag_uart_read_fd(alt_fd* fd, char* buffer, int space)
{
  80d39c:	defffa04 	addi	sp,sp,-24
  80d3a0:	dfc00515 	stw	ra,20(sp)
  80d3a4:	df000415 	stw	fp,16(sp)
  80d3a8:	df000404 	addi	fp,sp,16
  80d3ac:	e13ffd15 	stw	r4,-12(fp)
  80d3b0:	e17ffe15 	stw	r5,-8(fp)
  80d3b4:	e1bfff15 	stw	r6,-4(fp)
    altera_avalon_jtag_uart_dev* dev = (altera_avalon_jtag_uart_dev*) fd->dev; 
  80d3b8:	e0bffd17 	ldw	r2,-12(fp)
  80d3bc:	10800017 	ldw	r2,0(r2)
  80d3c0:	e0bffc15 	stw	r2,-16(fp)

    return altera_avalon_jtag_uart_read(&dev->state, buffer, space,
  80d3c4:	e0bffc17 	ldw	r2,-16(fp)
  80d3c8:	10c00a04 	addi	r3,r2,40
  80d3cc:	e0bffd17 	ldw	r2,-12(fp)
  80d3d0:	10800217 	ldw	r2,8(r2)
  80d3d4:	100f883a 	mov	r7,r2
  80d3d8:	e1bfff17 	ldw	r6,-4(fp)
  80d3dc:	e17ffe17 	ldw	r5,-8(fp)
  80d3e0:	1809883a 	mov	r4,r3
  80d3e4:	080d9c40 	call	80d9c4 <altera_avalon_jtag_uart_read>
      fd->fd_flags);
}
  80d3e8:	e037883a 	mov	sp,fp
  80d3ec:	dfc00117 	ldw	ra,4(sp)
  80d3f0:	df000017 	ldw	fp,0(sp)
  80d3f4:	dec00204 	addi	sp,sp,8
  80d3f8:	f800283a 	ret

0080d3fc <altera_avalon_jtag_uart_write_fd>:

int 
altera_avalon_jtag_uart_write_fd(alt_fd* fd, const char* buffer, int space)
{
  80d3fc:	defffa04 	addi	sp,sp,-24
  80d400:	dfc00515 	stw	ra,20(sp)
  80d404:	df000415 	stw	fp,16(sp)
  80d408:	df000404 	addi	fp,sp,16
  80d40c:	e13ffd15 	stw	r4,-12(fp)
  80d410:	e17ffe15 	stw	r5,-8(fp)
  80d414:	e1bfff15 	stw	r6,-4(fp)
    altera_avalon_jtag_uart_dev* dev = (altera_avalon_jtag_uart_dev*) fd->dev; 
  80d418:	e0bffd17 	ldw	r2,-12(fp)
  80d41c:	10800017 	ldw	r2,0(r2)
  80d420:	e0bffc15 	stw	r2,-16(fp)

    return altera_avalon_jtag_uart_write(&dev->state, buffer, space,
  80d424:	e0bffc17 	ldw	r2,-16(fp)
  80d428:	10c00a04 	addi	r3,r2,40
  80d42c:	e0bffd17 	ldw	r2,-12(fp)
  80d430:	10800217 	ldw	r2,8(r2)
  80d434:	100f883a 	mov	r7,r2
  80d438:	e1bfff17 	ldw	r6,-4(fp)
  80d43c:	e17ffe17 	ldw	r5,-8(fp)
  80d440:	1809883a 	mov	r4,r3
  80d444:	080dbe00 	call	80dbe0 <altera_avalon_jtag_uart_write>
      fd->fd_flags);
}
  80d448:	e037883a 	mov	sp,fp
  80d44c:	dfc00117 	ldw	ra,4(sp)
  80d450:	df000017 	ldw	fp,0(sp)
  80d454:	dec00204 	addi	sp,sp,8
  80d458:	f800283a 	ret

0080d45c <altera_avalon_jtag_uart_close_fd>:

#ifndef ALTERA_AVALON_JTAG_UART_SMALL

int 
altera_avalon_jtag_uart_close_fd(alt_fd* fd)
{
  80d45c:	defffc04 	addi	sp,sp,-16
  80d460:	dfc00315 	stw	ra,12(sp)
  80d464:	df000215 	stw	fp,8(sp)
  80d468:	df000204 	addi	fp,sp,8
  80d46c:	e13fff15 	stw	r4,-4(fp)
    altera_avalon_jtag_uart_dev* dev = (altera_avalon_jtag_uart_dev*) fd->dev; 
  80d470:	e0bfff17 	ldw	r2,-4(fp)
  80d474:	10800017 	ldw	r2,0(r2)
  80d478:	e0bffe15 	stw	r2,-8(fp)

    return altera_avalon_jtag_uart_close(&dev->state, fd->fd_flags);
  80d47c:	e0bffe17 	ldw	r2,-8(fp)
  80d480:	10c00a04 	addi	r3,r2,40
  80d484:	e0bfff17 	ldw	r2,-4(fp)
  80d488:	10800217 	ldw	r2,8(r2)
  80d48c:	100b883a 	mov	r5,r2
  80d490:	1809883a 	mov	r4,r3
  80d494:	080d86c0 	call	80d86c <altera_avalon_jtag_uart_close>
}
  80d498:	e037883a 	mov	sp,fp
  80d49c:	dfc00117 	ldw	ra,4(sp)
  80d4a0:	df000017 	ldw	fp,0(sp)
  80d4a4:	dec00204 	addi	sp,sp,8
  80d4a8:	f800283a 	ret

0080d4ac <altera_avalon_jtag_uart_ioctl_fd>:

int 
altera_avalon_jtag_uart_ioctl_fd(alt_fd* fd, int req, void* arg)
{
  80d4ac:	defffa04 	addi	sp,sp,-24
  80d4b0:	dfc00515 	stw	ra,20(sp)
  80d4b4:	df000415 	stw	fp,16(sp)
  80d4b8:	df000404 	addi	fp,sp,16
  80d4bc:	e13ffd15 	stw	r4,-12(fp)
  80d4c0:	e17ffe15 	stw	r5,-8(fp)
  80d4c4:	e1bfff15 	stw	r6,-4(fp)
    altera_avalon_jtag_uart_dev* dev = (altera_avalon_jtag_uart_dev*) fd->dev;
  80d4c8:	e0bffd17 	ldw	r2,-12(fp)
  80d4cc:	10800017 	ldw	r2,0(r2)
  80d4d0:	e0bffc15 	stw	r2,-16(fp)

    return altera_avalon_jtag_uart_ioctl(&dev->state, req, arg);
  80d4d4:	e0bffc17 	ldw	r2,-16(fp)
  80d4d8:	10800a04 	addi	r2,r2,40
  80d4dc:	e1bfff17 	ldw	r6,-4(fp)
  80d4e0:	e17ffe17 	ldw	r5,-8(fp)
  80d4e4:	1009883a 	mov	r4,r2
  80d4e8:	080d8d40 	call	80d8d4 <altera_avalon_jtag_uart_ioctl>
}
  80d4ec:	e037883a 	mov	sp,fp
  80d4f0:	dfc00117 	ldw	ra,4(sp)
  80d4f4:	df000017 	ldw	fp,0(sp)
  80d4f8:	dec00204 	addi	sp,sp,8
  80d4fc:	f800283a 	ret

0080d500 <altera_avalon_jtag_uart_init>:
 * Return 1 on sucessful IRQ register and 0 on failure.
 */

void altera_avalon_jtag_uart_init(altera_avalon_jtag_uart_state* sp, 
                                  int irq_controller_id, int irq)
{
  80d500:	defffa04 	addi	sp,sp,-24
  80d504:	dfc00515 	stw	ra,20(sp)
  80d508:	df000415 	stw	fp,16(sp)
  80d50c:	df000404 	addi	fp,sp,16
  80d510:	e13ffd15 	stw	r4,-12(fp)
  80d514:	e17ffe15 	stw	r5,-8(fp)
  80d518:	e1bfff15 	stw	r6,-4(fp)
  ALT_FLAG_CREATE(&sp->events, 0);
  ALT_SEM_CREATE(&sp->read_lock, 1);
  ALT_SEM_CREATE(&sp->write_lock, 1);

  /* enable read interrupts at the device */
  sp->irq_enable = ALTERA_AVALON_JTAG_UART_CONTROL_RE_MSK;
  80d51c:	e0bffd17 	ldw	r2,-12(fp)
  80d520:	00c00044 	movi	r3,1
  80d524:	10c00815 	stw	r3,32(r2)

  IOWR_ALTERA_AVALON_JTAG_UART_CONTROL(sp->base, sp->irq_enable); 
  80d528:	e0bffd17 	ldw	r2,-12(fp)
  80d52c:	10800017 	ldw	r2,0(r2)
  80d530:	10800104 	addi	r2,r2,4
  80d534:	1007883a 	mov	r3,r2
  80d538:	e0bffd17 	ldw	r2,-12(fp)
  80d53c:	10800817 	ldw	r2,32(r2)
  80d540:	18800035 	stwio	r2,0(r3)
  
  /* register the interrupt handler */
#ifdef ALT_ENHANCED_INTERRUPT_API_PRESENT
  alt_ic_isr_register(irq_controller_id, irq, altera_avalon_jtag_uart_irq, 
  80d544:	e0bffe17 	ldw	r2,-8(fp)
  80d548:	e0ffff17 	ldw	r3,-4(fp)
  80d54c:	d8000015 	stw	zero,0(sp)
  80d550:	e1fffd17 	ldw	r7,-12(fp)
  80d554:	01802074 	movhi	r6,129
  80d558:	31b57004 	addi	r6,r6,-10816
  80d55c:	180b883a 	mov	r5,r3
  80d560:	1009883a 	mov	r4,r2
  80d564:	080fb040 	call	80fb04 <alt_ic_isr_register>
#else
  alt_irq_register(irq, sp, altera_avalon_jtag_uart_irq);
#endif  

  /* Register an alarm to go off every second to check for presence of host */
  sp->host_inactive = 0;
  80d568:	e0bffd17 	ldw	r2,-12(fp)
  80d56c:	10000915 	stw	zero,36(r2)

  if (alt_alarm_start(&sp->alarm, alt_ticks_per_second(), 
  80d570:	e0bffd17 	ldw	r2,-12(fp)
  80d574:	10800204 	addi	r2,r2,8
 * Obtain the system clock rate in ticks/s. 
 */

static ALT_INLINE alt_u32 ALT_ALWAYS_INLINE alt_ticks_per_second (void)
{
  return _alt_tick_rate;
  80d578:	d0e73317 	ldw	r3,-25396(gp)
  80d57c:	e1fffd17 	ldw	r7,-12(fp)
  80d580:	01802074 	movhi	r6,129
  80d584:	31b5f304 	addi	r6,r6,-10292
  80d588:	180b883a 	mov	r5,r3
  80d58c:	1009883a 	mov	r4,r2
  80d590:	080c4300 	call	80c430 <alt_alarm_start>
  80d594:	1000040e 	bge	r2,zero,80d5a8 <altera_avalon_jtag_uart_init+0xa8>
    &altera_avalon_jtag_uart_timeout, sp) < 0)
  {
    /* If we can't set the alarm then record "don't know if host present" 
     * and behave as though the host is present.
     */
    sp->timeout = INT_MAX;
  80d598:	e0fffd17 	ldw	r3,-12(fp)
  80d59c:	00a00034 	movhi	r2,32768
  80d5a0:	10bfffc4 	addi	r2,r2,-1
  80d5a4:	18800115 	stw	r2,4(r3)
  }

  /* ALT_LOG - see altera_hal/HAL/inc/sys/alt_log_printf.h */ 
  ALT_LOG_JTAG_UART_ALARM_REGISTER(sp, sp->base);
}
  80d5a8:	0001883a 	nop
  80d5ac:	e037883a 	mov	sp,fp
  80d5b0:	dfc00117 	ldw	ra,4(sp)
  80d5b4:	df000017 	ldw	fp,0(sp)
  80d5b8:	dec00204 	addi	sp,sp,8
  80d5bc:	f800283a 	ret

0080d5c0 <altera_avalon_jtag_uart_irq>:
#ifdef ALT_ENHANCED_INTERRUPT_API_PRESENT
static void altera_avalon_jtag_uart_irq(void* context)
#else
static void altera_avalon_jtag_uart_irq(void* context, alt_u32 id)
#endif
{
  80d5c0:	defff804 	addi	sp,sp,-32
  80d5c4:	df000715 	stw	fp,28(sp)
  80d5c8:	df000704 	addi	fp,sp,28
  80d5cc:	e13fff15 	stw	r4,-4(fp)
  altera_avalon_jtag_uart_state* sp = (altera_avalon_jtag_uart_state*) context;
  80d5d0:	e0bfff17 	ldw	r2,-4(fp)
  80d5d4:	e0bffb15 	stw	r2,-20(fp)
  unsigned int base = sp->base;
  80d5d8:	e0bffb17 	ldw	r2,-20(fp)
  80d5dc:	10800017 	ldw	r2,0(r2)
  80d5e0:	e0bffc15 	stw	r2,-16(fp)
  /* ALT_LOG - see altera_hal/HAL/inc/sys/alt_log_printf.h */ 
  ALT_LOG_JTAG_UART_ISR_FUNCTION(base, sp);

  for ( ; ; )
  {
    unsigned int control = IORD_ALTERA_AVALON_JTAG_UART_CONTROL(base);
  80d5e4:	e0bffc17 	ldw	r2,-16(fp)
  80d5e8:	10800104 	addi	r2,r2,4
  80d5ec:	10800037 	ldwio	r2,0(r2)
  80d5f0:	e0bffd15 	stw	r2,-12(fp)

    /* Return once nothing more to do */
    if ((control & (ALTERA_AVALON_JTAG_UART_CONTROL_RI_MSK | ALTERA_AVALON_JTAG_UART_CONTROL_WI_MSK)) == 0)
  80d5f4:	e0bffd17 	ldw	r2,-12(fp)
  80d5f8:	1080c00c 	andi	r2,r2,768
  80d5fc:	10006d26 	beq	r2,zero,80d7b4 <altera_avalon_jtag_uart_irq+0x1f4>
      break;

    if (control & ALTERA_AVALON_JTAG_UART_CONTROL_RI_MSK)
  80d600:	e0bffd17 	ldw	r2,-12(fp)
  80d604:	1080400c 	andi	r2,r2,256
  80d608:	10003526 	beq	r2,zero,80d6e0 <altera_avalon_jtag_uart_irq+0x120>
    {
      /* process a read irq.  Start by assuming that there is data in the
       * receive FIFO (otherwise why would we have been interrupted?)
       */
      unsigned int data = 1 << ALTERA_AVALON_JTAG_UART_DATA_RAVAIL_OFST;
  80d60c:	00800074 	movhi	r2,1
  80d610:	e0bff915 	stw	r2,-28(fp)
      for ( ; ; )
      {
        /* Check whether there is space in the buffer.  If not then we must not
         * read any characters from the buffer as they will be lost.
         */
        unsigned int next = (sp->rx_in + 1) % ALTERA_AVALON_JTAG_UART_BUF_LEN;
  80d614:	e0bffb17 	ldw	r2,-20(fp)
  80d618:	10800a17 	ldw	r2,40(r2)
  80d61c:	10800044 	addi	r2,r2,1
  80d620:	1081ffcc 	andi	r2,r2,2047
  80d624:	e0bffe15 	stw	r2,-8(fp)
        if (next == sp->rx_out)
  80d628:	e0bffb17 	ldw	r2,-20(fp)
  80d62c:	10c00b17 	ldw	r3,44(r2)
  80d630:	e0bffe17 	ldw	r2,-8(fp)
  80d634:	18801526 	beq	r3,r2,80d68c <altera_avalon_jtag_uart_irq+0xcc>
          break;

        /* Try to remove a character from the FIFO and find out whether there
         * are any more characters remaining.
         */
        data = IORD_ALTERA_AVALON_JTAG_UART_DATA(base);
  80d638:	e0bffc17 	ldw	r2,-16(fp)
  80d63c:	10800037 	ldwio	r2,0(r2)
  80d640:	e0bff915 	stw	r2,-28(fp)
        
        if ((data & ALTERA_AVALON_JTAG_UART_DATA_RVALID_MSK) == 0)
  80d644:	e0bff917 	ldw	r2,-28(fp)
  80d648:	10a0000c 	andi	r2,r2,32768
  80d64c:	10001126 	beq	r2,zero,80d694 <altera_avalon_jtag_uart_irq+0xd4>
          break;

        sp->rx_buf[sp->rx_in] = (data & ALTERA_AVALON_JTAG_UART_DATA_DATA_MSK) >> ALTERA_AVALON_JTAG_UART_DATA_DATA_OFST;
  80d650:	e0bffb17 	ldw	r2,-20(fp)
  80d654:	10800a17 	ldw	r2,40(r2)
  80d658:	e0fff917 	ldw	r3,-28(fp)
  80d65c:	1809883a 	mov	r4,r3
  80d660:	e0fffb17 	ldw	r3,-20(fp)
  80d664:	1885883a 	add	r2,r3,r2
  80d668:	10800e04 	addi	r2,r2,56
  80d66c:	11000005 	stb	r4,0(r2)
        sp->rx_in = (sp->rx_in + 1) % ALTERA_AVALON_JTAG_UART_BUF_LEN;
  80d670:	e0bffb17 	ldw	r2,-20(fp)
  80d674:	10800a17 	ldw	r2,40(r2)
  80d678:	10800044 	addi	r2,r2,1
  80d67c:	10c1ffcc 	andi	r3,r2,2047
  80d680:	e0bffb17 	ldw	r2,-20(fp)
  80d684:	10c00a15 	stw	r3,40(r2)

        /* Post an event to notify jtag_uart_read that a character has been read */
        ALT_FLAG_POST (sp->events, ALT_JTAG_UART_READ_RDY, OS_FLAG_SET);
      }
  80d688:	003fe206 	br	80d614 <__alt_mem_onchip_mem+0xff805614>
        /* Check whether there is space in the buffer.  If not then we must not
         * read any characters from the buffer as they will be lost.
         */
        unsigned int next = (sp->rx_in + 1) % ALTERA_AVALON_JTAG_UART_BUF_LEN;
        if (next == sp->rx_out)
          break;
  80d68c:	0001883a 	nop
  80d690:	00000106 	br	80d698 <altera_avalon_jtag_uart_irq+0xd8>
         * are any more characters remaining.
         */
        data = IORD_ALTERA_AVALON_JTAG_UART_DATA(base);
        
        if ((data & ALTERA_AVALON_JTAG_UART_DATA_RVALID_MSK) == 0)
          break;
  80d694:	0001883a 	nop

        /* Post an event to notify jtag_uart_read that a character has been read */
        ALT_FLAG_POST (sp->events, ALT_JTAG_UART_READ_RDY, OS_FLAG_SET);
      }

      if (data & ALTERA_AVALON_JTAG_UART_DATA_RAVAIL_MSK)
  80d698:	e0bff917 	ldw	r2,-28(fp)
  80d69c:	10bfffec 	andhi	r2,r2,65535
  80d6a0:	10000f26 	beq	r2,zero,80d6e0 <altera_avalon_jtag_uart_irq+0x120>
      {
        /* If there is still data available here then the buffer is full 
         * so turn off receive interrupts until some space becomes available.
         */
        sp->irq_enable &= ~ALTERA_AVALON_JTAG_UART_CONTROL_RE_MSK;
  80d6a4:	e0bffb17 	ldw	r2,-20(fp)
  80d6a8:	10c00817 	ldw	r3,32(r2)
  80d6ac:	00bfff84 	movi	r2,-2
  80d6b0:	1886703a 	and	r3,r3,r2
  80d6b4:	e0bffb17 	ldw	r2,-20(fp)
  80d6b8:	10c00815 	stw	r3,32(r2)
        IOWR_ALTERA_AVALON_JTAG_UART_CONTROL(base, sp->irq_enable);
  80d6bc:	e0bffc17 	ldw	r2,-16(fp)
  80d6c0:	10800104 	addi	r2,r2,4
  80d6c4:	1007883a 	mov	r3,r2
  80d6c8:	e0bffb17 	ldw	r2,-20(fp)
  80d6cc:	10800817 	ldw	r2,32(r2)
  80d6d0:	18800035 	stwio	r2,0(r3)
        
        /* Dummy read to ensure IRQ is cleared prior to ISR completion */
        IORD_ALTERA_AVALON_JTAG_UART_CONTROL(base);
  80d6d4:	e0bffc17 	ldw	r2,-16(fp)
  80d6d8:	10800104 	addi	r2,r2,4
  80d6dc:	10800037 	ldwio	r2,0(r2)
      }
    }

    if (control & ALTERA_AVALON_JTAG_UART_CONTROL_WI_MSK)
  80d6e0:	e0bffd17 	ldw	r2,-12(fp)
  80d6e4:	1080800c 	andi	r2,r2,512
  80d6e8:	103fbe26 	beq	r2,zero,80d5e4 <__alt_mem_onchip_mem+0xff8055e4>
    {
      /* process a write irq */
      unsigned int space = (control & ALTERA_AVALON_JTAG_UART_CONTROL_WSPACE_MSK) >> ALTERA_AVALON_JTAG_UART_CONTROL_WSPACE_OFST;
  80d6ec:	e0bffd17 	ldw	r2,-12(fp)
  80d6f0:	1004d43a 	srli	r2,r2,16
  80d6f4:	e0bffa15 	stw	r2,-24(fp)

      while (space > 0 && sp->tx_out != sp->tx_in)
  80d6f8:	00001406 	br	80d74c <altera_avalon_jtag_uart_irq+0x18c>
      {
        IOWR_ALTERA_AVALON_JTAG_UART_DATA(base, sp->tx_buf[sp->tx_out]);
  80d6fc:	e0bffc17 	ldw	r2,-16(fp)
  80d700:	e0fffb17 	ldw	r3,-20(fp)
  80d704:	18c00d17 	ldw	r3,52(r3)
  80d708:	e13ffb17 	ldw	r4,-20(fp)
  80d70c:	20c7883a 	add	r3,r4,r3
  80d710:	18c20e04 	addi	r3,r3,2104
  80d714:	18c00003 	ldbu	r3,0(r3)
  80d718:	18c03fcc 	andi	r3,r3,255
  80d71c:	18c0201c 	xori	r3,r3,128
  80d720:	18ffe004 	addi	r3,r3,-128
  80d724:	10c00035 	stwio	r3,0(r2)

        sp->tx_out = (sp->tx_out + 1) % ALTERA_AVALON_JTAG_UART_BUF_LEN;
  80d728:	e0bffb17 	ldw	r2,-20(fp)
  80d72c:	10800d17 	ldw	r2,52(r2)
  80d730:	10800044 	addi	r2,r2,1
  80d734:	10c1ffcc 	andi	r3,r2,2047
  80d738:	e0bffb17 	ldw	r2,-20(fp)
  80d73c:	10c00d15 	stw	r3,52(r2)

        /* Post an event to notify jtag_uart_write that a character has been written */
        ALT_FLAG_POST (sp->events, ALT_JTAG_UART_WRITE_RDY, OS_FLAG_SET);

        space--;
  80d740:	e0bffa17 	ldw	r2,-24(fp)
  80d744:	10bfffc4 	addi	r2,r2,-1
  80d748:	e0bffa15 	stw	r2,-24(fp)
    if (control & ALTERA_AVALON_JTAG_UART_CONTROL_WI_MSK)
    {
      /* process a write irq */
      unsigned int space = (control & ALTERA_AVALON_JTAG_UART_CONTROL_WSPACE_MSK) >> ALTERA_AVALON_JTAG_UART_CONTROL_WSPACE_OFST;

      while (space > 0 && sp->tx_out != sp->tx_in)
  80d74c:	e0bffa17 	ldw	r2,-24(fp)
  80d750:	10000526 	beq	r2,zero,80d768 <altera_avalon_jtag_uart_irq+0x1a8>
  80d754:	e0bffb17 	ldw	r2,-20(fp)
  80d758:	10c00d17 	ldw	r3,52(r2)
  80d75c:	e0bffb17 	ldw	r2,-20(fp)
  80d760:	10800c17 	ldw	r2,48(r2)
  80d764:	18bfe51e 	bne	r3,r2,80d6fc <__alt_mem_onchip_mem+0xff8056fc>
        ALT_FLAG_POST (sp->events, ALT_JTAG_UART_WRITE_RDY, OS_FLAG_SET);

        space--;
      }

      if (space > 0)
  80d768:	e0bffa17 	ldw	r2,-24(fp)
  80d76c:	103f9d26 	beq	r2,zero,80d5e4 <__alt_mem_onchip_mem+0xff8055e4>
      {
        /* If we don't have any more data available then turn off the TX interrupt */
        sp->irq_enable &= ~ALTERA_AVALON_JTAG_UART_CONTROL_WE_MSK;
  80d770:	e0bffb17 	ldw	r2,-20(fp)
  80d774:	10c00817 	ldw	r3,32(r2)
  80d778:	00bfff44 	movi	r2,-3
  80d77c:	1886703a 	and	r3,r3,r2
  80d780:	e0bffb17 	ldw	r2,-20(fp)
  80d784:	10c00815 	stw	r3,32(r2)
        IOWR_ALTERA_AVALON_JTAG_UART_CONTROL(sp->base, sp->irq_enable);
  80d788:	e0bffb17 	ldw	r2,-20(fp)
  80d78c:	10800017 	ldw	r2,0(r2)
  80d790:	10800104 	addi	r2,r2,4
  80d794:	1007883a 	mov	r3,r2
  80d798:	e0bffb17 	ldw	r2,-20(fp)
  80d79c:	10800817 	ldw	r2,32(r2)
  80d7a0:	18800035 	stwio	r2,0(r3)
        
        /* Dummy read to ensure IRQ is cleared prior to ISR completion */
        IORD_ALTERA_AVALON_JTAG_UART_CONTROL(base);
  80d7a4:	e0bffc17 	ldw	r2,-16(fp)
  80d7a8:	10800104 	addi	r2,r2,4
  80d7ac:	10800037 	ldwio	r2,0(r2)
      }
    }
  }
  80d7b0:	003f8c06 	br	80d5e4 <__alt_mem_onchip_mem+0xff8055e4>
  {
    unsigned int control = IORD_ALTERA_AVALON_JTAG_UART_CONTROL(base);

    /* Return once nothing more to do */
    if ((control & (ALTERA_AVALON_JTAG_UART_CONTROL_RI_MSK | ALTERA_AVALON_JTAG_UART_CONTROL_WI_MSK)) == 0)
      break;
  80d7b4:	0001883a 	nop
        /* Dummy read to ensure IRQ is cleared prior to ISR completion */
        IORD_ALTERA_AVALON_JTAG_UART_CONTROL(base);
      }
    }
  }
}
  80d7b8:	0001883a 	nop
  80d7bc:	e037883a 	mov	sp,fp
  80d7c0:	df000017 	ldw	fp,0(sp)
  80d7c4:	dec00104 	addi	sp,sp,4
  80d7c8:	f800283a 	ret

0080d7cc <altera_avalon_jtag_uart_timeout>:
 * Timeout routine is called every second
 */

static alt_u32 
altera_avalon_jtag_uart_timeout(void* context) 
{
  80d7cc:	defff804 	addi	sp,sp,-32
  80d7d0:	df000715 	stw	fp,28(sp)
  80d7d4:	df000704 	addi	fp,sp,28
  80d7d8:	e13ffb15 	stw	r4,-20(fp)
  altera_avalon_jtag_uart_state* sp = (altera_avalon_jtag_uart_state *) context;
  80d7dc:	e0bffb17 	ldw	r2,-20(fp)
  80d7e0:	e0bff915 	stw	r2,-28(fp)

  unsigned int control = IORD_ALTERA_AVALON_JTAG_UART_CONTROL(sp->base);
  80d7e4:	e0bff917 	ldw	r2,-28(fp)
  80d7e8:	10800017 	ldw	r2,0(r2)
  80d7ec:	10800104 	addi	r2,r2,4
  80d7f0:	10800037 	ldwio	r2,0(r2)
  80d7f4:	e0bffa15 	stw	r2,-24(fp)

  if (control & ALTERA_AVALON_JTAG_UART_CONTROL_AC_MSK)
  80d7f8:	e0bffa17 	ldw	r2,-24(fp)
  80d7fc:	1081000c 	andi	r2,r2,1024
  80d800:	10000b26 	beq	r2,zero,80d830 <altera_avalon_jtag_uart_timeout+0x64>
  {
    IOWR_ALTERA_AVALON_JTAG_UART_CONTROL(sp->base, sp->irq_enable | ALTERA_AVALON_JTAG_UART_CONTROL_AC_MSK);
  80d804:	e0bff917 	ldw	r2,-28(fp)
  80d808:	10800017 	ldw	r2,0(r2)
  80d80c:	10800104 	addi	r2,r2,4
  80d810:	1007883a 	mov	r3,r2
  80d814:	e0bff917 	ldw	r2,-28(fp)
  80d818:	10800817 	ldw	r2,32(r2)
  80d81c:	10810014 	ori	r2,r2,1024
  80d820:	18800035 	stwio	r2,0(r3)
    sp->host_inactive = 0;
  80d824:	e0bff917 	ldw	r2,-28(fp)
  80d828:	10000915 	stw	zero,36(r2)
  80d82c:	00000a06 	br	80d858 <altera_avalon_jtag_uart_timeout+0x8c>
  }
  else if (sp->host_inactive < INT_MAX - 2) {
  80d830:	e0bff917 	ldw	r2,-28(fp)
  80d834:	10c00917 	ldw	r3,36(r2)
  80d838:	00a00034 	movhi	r2,32768
  80d83c:	10bfff04 	addi	r2,r2,-4
  80d840:	10c00536 	bltu	r2,r3,80d858 <altera_avalon_jtag_uart_timeout+0x8c>
    sp->host_inactive++;
  80d844:	e0bff917 	ldw	r2,-28(fp)
  80d848:	10800917 	ldw	r2,36(r2)
  80d84c:	10c00044 	addi	r3,r2,1
  80d850:	e0bff917 	ldw	r2,-28(fp)
  80d854:	10c00915 	stw	r3,36(r2)
  80d858:	d0a73317 	ldw	r2,-25396(gp)
      ALT_FLAG_POST (sp->events, ALT_JTAG_UART_TIMEOUT, OS_FLAG_SET);
    }
  }

  return alt_ticks_per_second();
}
  80d85c:	e037883a 	mov	sp,fp
  80d860:	df000017 	ldw	fp,0(sp)
  80d864:	dec00104 	addi	sp,sp,4
  80d868:	f800283a 	ret

0080d86c <altera_avalon_jtag_uart_close>:
 * The close routine is not implemented for the small driver; instead it will
 * map to null. This is because the small driver simply waits while characters
 * are transmitted; there is no interrupt-serviced buffer to empty 
 */
int altera_avalon_jtag_uart_close(altera_avalon_jtag_uart_state* sp, int flags)
{
  80d86c:	defffd04 	addi	sp,sp,-12
  80d870:	df000215 	stw	fp,8(sp)
  80d874:	df000204 	addi	fp,sp,8
  80d878:	e13ffe15 	stw	r4,-8(fp)
  80d87c:	e17fff15 	stw	r5,-4(fp)
  /* 
   * Wait for all transmit data to be emptied by the JTAG UART ISR, or
   * for a host-inactivity timeout, in which case transmit data will be lost
   */
  while ( (sp->tx_out != sp->tx_in) && (sp->host_inactive < sp->timeout) ) {
  80d880:	00000506 	br	80d898 <altera_avalon_jtag_uart_close+0x2c>
    if (flags & O_NONBLOCK) {
  80d884:	e0bfff17 	ldw	r2,-4(fp)
  80d888:	1090000c 	andi	r2,r2,16384
  80d88c:	10000226 	beq	r2,zero,80d898 <altera_avalon_jtag_uart_close+0x2c>
      return -EWOULDBLOCK; 
  80d890:	00bffd44 	movi	r2,-11
  80d894:	00000b06 	br	80d8c4 <altera_avalon_jtag_uart_close+0x58>
{
  /* 
   * Wait for all transmit data to be emptied by the JTAG UART ISR, or
   * for a host-inactivity timeout, in which case transmit data will be lost
   */
  while ( (sp->tx_out != sp->tx_in) && (sp->host_inactive < sp->timeout) ) {
  80d898:	e0bffe17 	ldw	r2,-8(fp)
  80d89c:	10c00d17 	ldw	r3,52(r2)
  80d8a0:	e0bffe17 	ldw	r2,-8(fp)
  80d8a4:	10800c17 	ldw	r2,48(r2)
  80d8a8:	18800526 	beq	r3,r2,80d8c0 <altera_avalon_jtag_uart_close+0x54>
  80d8ac:	e0bffe17 	ldw	r2,-8(fp)
  80d8b0:	10c00917 	ldw	r3,36(r2)
  80d8b4:	e0bffe17 	ldw	r2,-8(fp)
  80d8b8:	10800117 	ldw	r2,4(r2)
  80d8bc:	18bff136 	bltu	r3,r2,80d884 <__alt_mem_onchip_mem+0xff805884>
    if (flags & O_NONBLOCK) {
      return -EWOULDBLOCK; 
    }
  }

  return 0;
  80d8c0:	0005883a 	mov	r2,zero
}
  80d8c4:	e037883a 	mov	sp,fp
  80d8c8:	df000017 	ldw	fp,0(sp)
  80d8cc:	dec00104 	addi	sp,sp,4
  80d8d0:	f800283a 	ret

0080d8d4 <altera_avalon_jtag_uart_ioctl>:
/* ----------------------------------------------------------- */

int 
altera_avalon_jtag_uart_ioctl(altera_avalon_jtag_uart_state* sp, int req,
  void* arg)
{
  80d8d4:	defffa04 	addi	sp,sp,-24
  80d8d8:	df000515 	stw	fp,20(sp)
  80d8dc:	df000504 	addi	fp,sp,20
  80d8e0:	e13ffd15 	stw	r4,-12(fp)
  80d8e4:	e17ffe15 	stw	r5,-8(fp)
  80d8e8:	e1bfff15 	stw	r6,-4(fp)
  int rc = -ENOTTY;
  80d8ec:	00bff9c4 	movi	r2,-25
  80d8f0:	e0bffb15 	stw	r2,-20(fp)

  switch (req)
  80d8f4:	e0bffe17 	ldw	r2,-8(fp)
  80d8f8:	10da8060 	cmpeqi	r3,r2,27137
  80d8fc:	1800031e 	bne	r3,zero,80d90c <altera_avalon_jtag_uart_ioctl+0x38>
  80d900:	109a80a0 	cmpeqi	r2,r2,27138
  80d904:	1000181e 	bne	r2,zero,80d968 <altera_avalon_jtag_uart_ioctl+0x94>
      rc = 0;
    }
    break;

  default:
    break;
  80d908:	00002906 	br	80d9b0 <altera_avalon_jtag_uart_ioctl+0xdc>

  switch (req)
  {
  case TIOCSTIMEOUT:
    /* Set the time to wait until assuming host is not connected */
    if (sp->timeout != INT_MAX)
  80d90c:	e0bffd17 	ldw	r2,-12(fp)
  80d910:	10c00117 	ldw	r3,4(r2)
  80d914:	00a00034 	movhi	r2,32768
  80d918:	10bfffc4 	addi	r2,r2,-1
  80d91c:	18802126 	beq	r3,r2,80d9a4 <altera_avalon_jtag_uart_ioctl+0xd0>
    {
      int timeout = *((int *)arg);
  80d920:	e0bfff17 	ldw	r2,-4(fp)
  80d924:	10800017 	ldw	r2,0(r2)
  80d928:	e0bffc15 	stw	r2,-16(fp)
      sp->timeout = (timeout >= 2 && timeout < INT_MAX) ? timeout : INT_MAX - 1;
  80d92c:	e0bffc17 	ldw	r2,-16(fp)
  80d930:	10800090 	cmplti	r2,r2,2
  80d934:	1000061e 	bne	r2,zero,80d950 <altera_avalon_jtag_uart_ioctl+0x7c>
  80d938:	e0fffc17 	ldw	r3,-16(fp)
  80d93c:	00a00034 	movhi	r2,32768
  80d940:	10bfffc4 	addi	r2,r2,-1
  80d944:	18800226 	beq	r3,r2,80d950 <altera_avalon_jtag_uart_ioctl+0x7c>
  80d948:	e0bffc17 	ldw	r2,-16(fp)
  80d94c:	00000206 	br	80d958 <altera_avalon_jtag_uart_ioctl+0x84>
  80d950:	00a00034 	movhi	r2,32768
  80d954:	10bfff84 	addi	r2,r2,-2
  80d958:	e0fffd17 	ldw	r3,-12(fp)
  80d95c:	18800115 	stw	r2,4(r3)
      rc = 0;
  80d960:	e03ffb15 	stw	zero,-20(fp)
    }
    break;
  80d964:	00000f06 	br	80d9a4 <altera_avalon_jtag_uart_ioctl+0xd0>

  case TIOCGCONNECTED:
    /* Find out whether host is connected */
    if (sp->timeout != INT_MAX)
  80d968:	e0bffd17 	ldw	r2,-12(fp)
  80d96c:	10c00117 	ldw	r3,4(r2)
  80d970:	00a00034 	movhi	r2,32768
  80d974:	10bfffc4 	addi	r2,r2,-1
  80d978:	18800c26 	beq	r3,r2,80d9ac <altera_avalon_jtag_uart_ioctl+0xd8>
    {
      *((int *)arg) = (sp->host_inactive < sp->timeout) ? 1 : 0;
  80d97c:	e0bffd17 	ldw	r2,-12(fp)
  80d980:	10c00917 	ldw	r3,36(r2)
  80d984:	e0bffd17 	ldw	r2,-12(fp)
  80d988:	10800117 	ldw	r2,4(r2)
  80d98c:	1885803a 	cmpltu	r2,r3,r2
  80d990:	10c03fcc 	andi	r3,r2,255
  80d994:	e0bfff17 	ldw	r2,-4(fp)
  80d998:	10c00015 	stw	r3,0(r2)
      rc = 0;
  80d99c:	e03ffb15 	stw	zero,-20(fp)
    }
    break;
  80d9a0:	00000206 	br	80d9ac <altera_avalon_jtag_uart_ioctl+0xd8>
    {
      int timeout = *((int *)arg);
      sp->timeout = (timeout >= 2 && timeout < INT_MAX) ? timeout : INT_MAX - 1;
      rc = 0;
    }
    break;
  80d9a4:	0001883a 	nop
  80d9a8:	00000106 	br	80d9b0 <altera_avalon_jtag_uart_ioctl+0xdc>
    if (sp->timeout != INT_MAX)
    {
      *((int *)arg) = (sp->host_inactive < sp->timeout) ? 1 : 0;
      rc = 0;
    }
    break;
  80d9ac:	0001883a 	nop

  default:
    break;
  }

  return rc;
  80d9b0:	e0bffb17 	ldw	r2,-20(fp)
}
  80d9b4:	e037883a 	mov	sp,fp
  80d9b8:	df000017 	ldw	fp,0(sp)
  80d9bc:	dec00104 	addi	sp,sp,4
  80d9c0:	f800283a 	ret

0080d9c4 <altera_avalon_jtag_uart_read>:
/* ----------------------------------------------------------- */

int 
altera_avalon_jtag_uart_read(altera_avalon_jtag_uart_state* sp, 
  char * buffer, int space, int flags)
{
  80d9c4:	defff304 	addi	sp,sp,-52
  80d9c8:	dfc00c15 	stw	ra,48(sp)
  80d9cc:	df000b15 	stw	fp,44(sp)
  80d9d0:	df000b04 	addi	fp,sp,44
  80d9d4:	e13ffc15 	stw	r4,-16(fp)
  80d9d8:	e17ffd15 	stw	r5,-12(fp)
  80d9dc:	e1bffe15 	stw	r6,-8(fp)
  80d9e0:	e1ffff15 	stw	r7,-4(fp)
  char * ptr = buffer;
  80d9e4:	e0bffd17 	ldw	r2,-12(fp)
  80d9e8:	e0bff515 	stw	r2,-44(fp)
   * When running in a multi threaded environment, obtain the "read_lock"
   * semaphore. This ensures that reading from the device is thread-safe.
   */
  ALT_SEM_PEND (sp->read_lock, 0);

  while (space > 0)
  80d9ec:	00004706 	br	80db0c <altera_avalon_jtag_uart_read+0x148>
    unsigned int in, out;

    /* Read as much data as possible */
    do
    {
      in  = sp->rx_in;
  80d9f0:	e0bffc17 	ldw	r2,-16(fp)
  80d9f4:	10800a17 	ldw	r2,40(r2)
  80d9f8:	e0bff715 	stw	r2,-36(fp)
      out = sp->rx_out;
  80d9fc:	e0bffc17 	ldw	r2,-16(fp)
  80da00:	10800b17 	ldw	r2,44(r2)
  80da04:	e0bff815 	stw	r2,-32(fp)

      if (in >= out)
  80da08:	e0fff717 	ldw	r3,-36(fp)
  80da0c:	e0bff817 	ldw	r2,-32(fp)
  80da10:	18800536 	bltu	r3,r2,80da28 <altera_avalon_jtag_uart_read+0x64>
        n = in - out;
  80da14:	e0fff717 	ldw	r3,-36(fp)
  80da18:	e0bff817 	ldw	r2,-32(fp)
  80da1c:	1885c83a 	sub	r2,r3,r2
  80da20:	e0bff615 	stw	r2,-40(fp)
  80da24:	00000406 	br	80da38 <altera_avalon_jtag_uart_read+0x74>
      else
        n = ALTERA_AVALON_JTAG_UART_BUF_LEN - out;
  80da28:	00c20004 	movi	r3,2048
  80da2c:	e0bff817 	ldw	r2,-32(fp)
  80da30:	1885c83a 	sub	r2,r3,r2
  80da34:	e0bff615 	stw	r2,-40(fp)

      if (n == 0)
  80da38:	e0bff617 	ldw	r2,-40(fp)
  80da3c:	10001e26 	beq	r2,zero,80dab8 <altera_avalon_jtag_uart_read+0xf4>
        break; /* No more data available */

      if (n > space)
  80da40:	e0fffe17 	ldw	r3,-8(fp)
  80da44:	e0bff617 	ldw	r2,-40(fp)
  80da48:	1880022e 	bgeu	r3,r2,80da54 <altera_avalon_jtag_uart_read+0x90>
        n = space;
  80da4c:	e0bffe17 	ldw	r2,-8(fp)
  80da50:	e0bff615 	stw	r2,-40(fp)

      memcpy(ptr, sp->rx_buf + out, n);
  80da54:	e0bffc17 	ldw	r2,-16(fp)
  80da58:	10c00e04 	addi	r3,r2,56
  80da5c:	e0bff817 	ldw	r2,-32(fp)
  80da60:	1885883a 	add	r2,r3,r2
  80da64:	e1bff617 	ldw	r6,-40(fp)
  80da68:	100b883a 	mov	r5,r2
  80da6c:	e13ff517 	ldw	r4,-44(fp)
  80da70:	080b7bc0 	call	80b7bc <memcpy>
      ptr   += n;
  80da74:	e0fff517 	ldw	r3,-44(fp)
  80da78:	e0bff617 	ldw	r2,-40(fp)
  80da7c:	1885883a 	add	r2,r3,r2
  80da80:	e0bff515 	stw	r2,-44(fp)
      space -= n;
  80da84:	e0fffe17 	ldw	r3,-8(fp)
  80da88:	e0bff617 	ldw	r2,-40(fp)
  80da8c:	1885c83a 	sub	r2,r3,r2
  80da90:	e0bffe15 	stw	r2,-8(fp)

      sp->rx_out = (out + n) % ALTERA_AVALON_JTAG_UART_BUF_LEN;
  80da94:	e0fff817 	ldw	r3,-32(fp)
  80da98:	e0bff617 	ldw	r2,-40(fp)
  80da9c:	1885883a 	add	r2,r3,r2
  80daa0:	10c1ffcc 	andi	r3,r2,2047
  80daa4:	e0bffc17 	ldw	r2,-16(fp)
  80daa8:	10c00b15 	stw	r3,44(r2)
    }
    while (space > 0);
  80daac:	e0bffe17 	ldw	r2,-8(fp)
  80dab0:	00bfcf16 	blt	zero,r2,80d9f0 <__alt_mem_onchip_mem+0xff8059f0>
  80dab4:	00000106 	br	80dabc <altera_avalon_jtag_uart_read+0xf8>
        n = in - out;
      else
        n = ALTERA_AVALON_JTAG_UART_BUF_LEN - out;

      if (n == 0)
        break; /* No more data available */
  80dab8:	0001883a 	nop
      sp->rx_out = (out + n) % ALTERA_AVALON_JTAG_UART_BUF_LEN;
    }
    while (space > 0);

    /* If we read any data then return it */
    if (ptr != buffer)
  80dabc:	e0fff517 	ldw	r3,-44(fp)
  80dac0:	e0bffd17 	ldw	r2,-12(fp)
  80dac4:	1880141e 	bne	r3,r2,80db18 <altera_avalon_jtag_uart_read+0x154>
      break;

    /* If in non-blocking mode then return error */
    if (flags & O_NONBLOCK)
  80dac8:	e0bfff17 	ldw	r2,-4(fp)
  80dacc:	1090000c 	andi	r2,r2,16384
  80dad0:	1000131e 	bne	r2,zero,80db20 <altera_avalon_jtag_uart_read+0x15c>
      while (in == sp->rx_in && sp->host_inactive < sp->timeout)
        ;
    }
#else
    /* No OS: Always spin */
    while (in == sp->rx_in && sp->host_inactive < sp->timeout)
  80dad4:	0001883a 	nop
  80dad8:	e0bffc17 	ldw	r2,-16(fp)
  80dadc:	10c00a17 	ldw	r3,40(r2)
  80dae0:	e0bff717 	ldw	r2,-36(fp)
  80dae4:	1880051e 	bne	r3,r2,80dafc <altera_avalon_jtag_uart_read+0x138>
  80dae8:	e0bffc17 	ldw	r2,-16(fp)
  80daec:	10c00917 	ldw	r3,36(r2)
  80daf0:	e0bffc17 	ldw	r2,-16(fp)
  80daf4:	10800117 	ldw	r2,4(r2)
  80daf8:	18bff736 	bltu	r3,r2,80dad8 <__alt_mem_onchip_mem+0xff805ad8>
      ;
#endif /* __ucosii__ */

    if (in == sp->rx_in)
  80dafc:	e0bffc17 	ldw	r2,-16(fp)
  80db00:	10c00a17 	ldw	r3,40(r2)
  80db04:	e0bff717 	ldw	r2,-36(fp)
  80db08:	18800726 	beq	r3,r2,80db28 <altera_avalon_jtag_uart_read+0x164>
   * When running in a multi threaded environment, obtain the "read_lock"
   * semaphore. This ensures that reading from the device is thread-safe.
   */
  ALT_SEM_PEND (sp->read_lock, 0);

  while (space > 0)
  80db0c:	e0bffe17 	ldw	r2,-8(fp)
  80db10:	00bfb716 	blt	zero,r2,80d9f0 <__alt_mem_onchip_mem+0xff8059f0>
  80db14:	00000506 	br	80db2c <altera_avalon_jtag_uart_read+0x168>
    }
    while (space > 0);

    /* If we read any data then return it */
    if (ptr != buffer)
      break;
  80db18:	0001883a 	nop
  80db1c:	00000306 	br	80db2c <altera_avalon_jtag_uart_read+0x168>

    /* If in non-blocking mode then return error */
    if (flags & O_NONBLOCK)
      break;
  80db20:	0001883a 	nop
  80db24:	00000106 	br	80db2c <altera_avalon_jtag_uart_read+0x168>
    while (in == sp->rx_in && sp->host_inactive < sp->timeout)
      ;
#endif /* __ucosii__ */

    if (in == sp->rx_in)
      break;
  80db28:	0001883a 	nop
   * semaphore so that other threads can access the buffer.
   */

  ALT_SEM_POST (sp->read_lock);

  if (ptr != buffer)
  80db2c:	e0fff517 	ldw	r3,-44(fp)
  80db30:	e0bffd17 	ldw	r2,-12(fp)
  80db34:	18801826 	beq	r3,r2,80db98 <altera_avalon_jtag_uart_read+0x1d4>
static ALT_INLINE alt_irq_context ALT_ALWAYS_INLINE 
       alt_irq_disable_all (void)
{
  alt_irq_context context;

  NIOS2_READ_STATUS (context);
  80db38:	0005303a 	rdctl	r2,status
  80db3c:	e0bffb15 	stw	r2,-20(fp)

  NIOS2_WRITE_STATUS (context & ~NIOS2_STATUS_PIE_MSK);
  80db40:	e0fffb17 	ldw	r3,-20(fp)
  80db44:	00bfff84 	movi	r2,-2
  80db48:	1884703a 	and	r2,r3,r2
  80db4c:	1001703a 	wrctl	status,r2
  
  return context;
  80db50:	e0bffb17 	ldw	r2,-20(fp)
  {
    /* If we read any data then there is space in the buffer so enable interrupts */
    context = alt_irq_disable_all();
  80db54:	e0bffa15 	stw	r2,-24(fp)
    sp->irq_enable |= ALTERA_AVALON_JTAG_UART_CONTROL_RE_MSK;
  80db58:	e0bffc17 	ldw	r2,-16(fp)
  80db5c:	10800817 	ldw	r2,32(r2)
  80db60:	10c00054 	ori	r3,r2,1
  80db64:	e0bffc17 	ldw	r2,-16(fp)
  80db68:	10c00815 	stw	r3,32(r2)
    IOWR_ALTERA_AVALON_JTAG_UART_CONTROL(sp->base, sp->irq_enable);
  80db6c:	e0bffc17 	ldw	r2,-16(fp)
  80db70:	10800017 	ldw	r2,0(r2)
  80db74:	10800104 	addi	r2,r2,4
  80db78:	1007883a 	mov	r3,r2
  80db7c:	e0bffc17 	ldw	r2,-16(fp)
  80db80:	10800817 	ldw	r2,32(r2)
  80db84:	18800035 	stwio	r2,0(r3)
  80db88:	e0bffa17 	ldw	r2,-24(fp)
  80db8c:	e0bff915 	stw	r2,-28(fp)
  status &= ~NIOS2_STATUS_PIE_MSK;
  status |= (context & NIOS2_STATUS_PIE_MSK);
  
  NIOS2_WRITE_STATUS (status);
#else
  NIOS2_WRITE_STATUS (context);
  80db90:	e0bff917 	ldw	r2,-28(fp)
  80db94:	1001703a 	wrctl	status,r2
    alt_irq_enable_all(context);
  }

  if (ptr != buffer)
  80db98:	e0fff517 	ldw	r3,-44(fp)
  80db9c:	e0bffd17 	ldw	r2,-12(fp)
  80dba0:	18800426 	beq	r3,r2,80dbb4 <altera_avalon_jtag_uart_read+0x1f0>
    return ptr - buffer;
  80dba4:	e0fff517 	ldw	r3,-44(fp)
  80dba8:	e0bffd17 	ldw	r2,-12(fp)
  80dbac:	1885c83a 	sub	r2,r3,r2
  80dbb0:	00000606 	br	80dbcc <altera_avalon_jtag_uart_read+0x208>
  else if (flags & O_NONBLOCK)
  80dbb4:	e0bfff17 	ldw	r2,-4(fp)
  80dbb8:	1090000c 	andi	r2,r2,16384
  80dbbc:	10000226 	beq	r2,zero,80dbc8 <altera_avalon_jtag_uart_read+0x204>
    return -EWOULDBLOCK;
  80dbc0:	00bffd44 	movi	r2,-11
  80dbc4:	00000106 	br	80dbcc <altera_avalon_jtag_uart_read+0x208>
  else
    return -EIO;
  80dbc8:	00bffec4 	movi	r2,-5
}
  80dbcc:	e037883a 	mov	sp,fp
  80dbd0:	dfc00117 	ldw	ra,4(sp)
  80dbd4:	df000017 	ldw	fp,0(sp)
  80dbd8:	dec00204 	addi	sp,sp,8
  80dbdc:	f800283a 	ret

0080dbe0 <altera_avalon_jtag_uart_write>:
/* ----------------------------------------------------------- */

int 
altera_avalon_jtag_uart_write(altera_avalon_jtag_uart_state* sp, 
  const char * ptr, int count, int flags)
{
  80dbe0:	defff304 	addi	sp,sp,-52
  80dbe4:	dfc00c15 	stw	ra,48(sp)
  80dbe8:	df000b15 	stw	fp,44(sp)
  80dbec:	df000b04 	addi	fp,sp,44
  80dbf0:	e13ffc15 	stw	r4,-16(fp)
  80dbf4:	e17ffd15 	stw	r5,-12(fp)
  80dbf8:	e1bffe15 	stw	r6,-8(fp)
  80dbfc:	e1ffff15 	stw	r7,-4(fp)
  /* Remove warning at optimisation level 03 by seting out to 0 */
  unsigned int in, out=0;
  80dc00:	e03ff515 	stw	zero,-44(fp)
  unsigned int n;
  alt_irq_context context;

  const char * start = ptr;
  80dc04:	e0bffd17 	ldw	r2,-12(fp)
  80dc08:	e0bff715 	stw	r2,-36(fp)
  ALT_SEM_PEND (sp->write_lock, 0);

  do
  {
    /* Copy as much as we can into the transmit buffer */
    while (count > 0)
  80dc0c:	00003706 	br	80dcec <altera_avalon_jtag_uart_write+0x10c>
    {
      /* We need a stable value of the out pointer to calculate the space available */
      in  = sp->tx_in;
  80dc10:	e0bffc17 	ldw	r2,-16(fp)
  80dc14:	10800c17 	ldw	r2,48(r2)
  80dc18:	e0bff915 	stw	r2,-28(fp)
      out = sp->tx_out;
  80dc1c:	e0bffc17 	ldw	r2,-16(fp)
  80dc20:	10800d17 	ldw	r2,52(r2)
  80dc24:	e0bff515 	stw	r2,-44(fp)

      if (in < out)
  80dc28:	e0fff917 	ldw	r3,-28(fp)
  80dc2c:	e0bff517 	ldw	r2,-44(fp)
  80dc30:	1880062e 	bgeu	r3,r2,80dc4c <altera_avalon_jtag_uart_write+0x6c>
        n = out - 1 - in;
  80dc34:	e0fff517 	ldw	r3,-44(fp)
  80dc38:	e0bff917 	ldw	r2,-28(fp)
  80dc3c:	1885c83a 	sub	r2,r3,r2
  80dc40:	10bfffc4 	addi	r2,r2,-1
  80dc44:	e0bff615 	stw	r2,-40(fp)
  80dc48:	00000b06 	br	80dc78 <altera_avalon_jtag_uart_write+0x98>
      else if (out > 0)
  80dc4c:	e0bff517 	ldw	r2,-44(fp)
  80dc50:	10000526 	beq	r2,zero,80dc68 <altera_avalon_jtag_uart_write+0x88>
        n = ALTERA_AVALON_JTAG_UART_BUF_LEN - in;
  80dc54:	00c20004 	movi	r3,2048
  80dc58:	e0bff917 	ldw	r2,-28(fp)
  80dc5c:	1885c83a 	sub	r2,r3,r2
  80dc60:	e0bff615 	stw	r2,-40(fp)
  80dc64:	00000406 	br	80dc78 <altera_avalon_jtag_uart_write+0x98>
      else
        n = ALTERA_AVALON_JTAG_UART_BUF_LEN - 1 - in;
  80dc68:	00c1ffc4 	movi	r3,2047
  80dc6c:	e0bff917 	ldw	r2,-28(fp)
  80dc70:	1885c83a 	sub	r2,r3,r2
  80dc74:	e0bff615 	stw	r2,-40(fp)

      if (n == 0)
  80dc78:	e0bff617 	ldw	r2,-40(fp)
  80dc7c:	10001e26 	beq	r2,zero,80dcf8 <altera_avalon_jtag_uart_write+0x118>
        break;

      if (n > count)
  80dc80:	e0fffe17 	ldw	r3,-8(fp)
  80dc84:	e0bff617 	ldw	r2,-40(fp)
  80dc88:	1880022e 	bgeu	r3,r2,80dc94 <altera_avalon_jtag_uart_write+0xb4>
        n = count;
  80dc8c:	e0bffe17 	ldw	r2,-8(fp)
  80dc90:	e0bff615 	stw	r2,-40(fp)

      memcpy(sp->tx_buf + in, ptr, n);
  80dc94:	e0bffc17 	ldw	r2,-16(fp)
  80dc98:	10c20e04 	addi	r3,r2,2104
  80dc9c:	e0bff917 	ldw	r2,-28(fp)
  80dca0:	1885883a 	add	r2,r3,r2
  80dca4:	e1bff617 	ldw	r6,-40(fp)
  80dca8:	e17ffd17 	ldw	r5,-12(fp)
  80dcac:	1009883a 	mov	r4,r2
  80dcb0:	080b7bc0 	call	80b7bc <memcpy>
      ptr   += n;
  80dcb4:	e0fffd17 	ldw	r3,-12(fp)
  80dcb8:	e0bff617 	ldw	r2,-40(fp)
  80dcbc:	1885883a 	add	r2,r3,r2
  80dcc0:	e0bffd15 	stw	r2,-12(fp)
      count -= n;
  80dcc4:	e0fffe17 	ldw	r3,-8(fp)
  80dcc8:	e0bff617 	ldw	r2,-40(fp)
  80dccc:	1885c83a 	sub	r2,r3,r2
  80dcd0:	e0bffe15 	stw	r2,-8(fp)

      sp->tx_in = (in + n) % ALTERA_AVALON_JTAG_UART_BUF_LEN;
  80dcd4:	e0fff917 	ldw	r3,-28(fp)
  80dcd8:	e0bff617 	ldw	r2,-40(fp)
  80dcdc:	1885883a 	add	r2,r3,r2
  80dce0:	10c1ffcc 	andi	r3,r2,2047
  80dce4:	e0bffc17 	ldw	r2,-16(fp)
  80dce8:	10c00c15 	stw	r3,48(r2)
  ALT_SEM_PEND (sp->write_lock, 0);

  do
  {
    /* Copy as much as we can into the transmit buffer */
    while (count > 0)
  80dcec:	e0bffe17 	ldw	r2,-8(fp)
  80dcf0:	00bfc716 	blt	zero,r2,80dc10 <__alt_mem_onchip_mem+0xff805c10>
  80dcf4:	00000106 	br	80dcfc <altera_avalon_jtag_uart_write+0x11c>
        n = ALTERA_AVALON_JTAG_UART_BUF_LEN - in;
      else
        n = ALTERA_AVALON_JTAG_UART_BUF_LEN - 1 - in;

      if (n == 0)
        break;
  80dcf8:	0001883a 	nop
static ALT_INLINE alt_irq_context ALT_ALWAYS_INLINE 
       alt_irq_disable_all (void)
{
  alt_irq_context context;

  NIOS2_READ_STATUS (context);
  80dcfc:	0005303a 	rdctl	r2,status
  80dd00:	e0bffb15 	stw	r2,-20(fp)

  NIOS2_WRITE_STATUS (context & ~NIOS2_STATUS_PIE_MSK);
  80dd04:	e0fffb17 	ldw	r3,-20(fp)
  80dd08:	00bfff84 	movi	r2,-2
  80dd0c:	1884703a 	and	r2,r3,r2
  80dd10:	1001703a 	wrctl	status,r2
  
  return context;
  80dd14:	e0bffb17 	ldw	r2,-20(fp)
     * to enable interrupts if there is no space left in the FIFO
     *
     * For now kick the interrupt routine every time to make it transmit 
     * the data 
     */
    context = alt_irq_disable_all();
  80dd18:	e0bffa15 	stw	r2,-24(fp)
    sp->irq_enable |= ALTERA_AVALON_JTAG_UART_CONTROL_WE_MSK;
  80dd1c:	e0bffc17 	ldw	r2,-16(fp)
  80dd20:	10800817 	ldw	r2,32(r2)
  80dd24:	10c00094 	ori	r3,r2,2
  80dd28:	e0bffc17 	ldw	r2,-16(fp)
  80dd2c:	10c00815 	stw	r3,32(r2)
    IOWR_ALTERA_AVALON_JTAG_UART_CONTROL(sp->base, sp->irq_enable);
  80dd30:	e0bffc17 	ldw	r2,-16(fp)
  80dd34:	10800017 	ldw	r2,0(r2)
  80dd38:	10800104 	addi	r2,r2,4
  80dd3c:	1007883a 	mov	r3,r2
  80dd40:	e0bffc17 	ldw	r2,-16(fp)
  80dd44:	10800817 	ldw	r2,32(r2)
  80dd48:	18800035 	stwio	r2,0(r3)
  80dd4c:	e0bffa17 	ldw	r2,-24(fp)
  80dd50:	e0bff815 	stw	r2,-32(fp)
  status &= ~NIOS2_STATUS_PIE_MSK;
  status |= (context & NIOS2_STATUS_PIE_MSK);
  
  NIOS2_WRITE_STATUS (status);
#else
  NIOS2_WRITE_STATUS (context);
  80dd54:	e0bff817 	ldw	r2,-32(fp)
  80dd58:	1001703a 	wrctl	status,r2
    /* 
     * If there is any data left then either return now or block until 
     * some has been sent 
     */
    /* consider: test whether there is anything there while doing this and delay for at most 2s. */
    if (count > 0)
  80dd5c:	e0bffe17 	ldw	r2,-8(fp)
  80dd60:	0080100e 	bge	zero,r2,80dda4 <altera_avalon_jtag_uart_write+0x1c4>
    {
      if (flags & O_NONBLOCK)
  80dd64:	e0bfff17 	ldw	r2,-4(fp)
  80dd68:	1090000c 	andi	r2,r2,16384
  80dd6c:	1000101e 	bne	r2,zero,80ddb0 <altera_avalon_jtag_uart_write+0x1d0>
      /*
       * No OS present: Always wait for data to be removed from buffer.  Once
       * the interrupt routine has removed some data then we will be able to
       * insert some more.
       */
      while (out == sp->tx_out && sp->host_inactive < sp->timeout)
  80dd70:	0001883a 	nop
  80dd74:	e0bffc17 	ldw	r2,-16(fp)
  80dd78:	10c00d17 	ldw	r3,52(r2)
  80dd7c:	e0bff517 	ldw	r2,-44(fp)
  80dd80:	1880051e 	bne	r3,r2,80dd98 <altera_avalon_jtag_uart_write+0x1b8>
  80dd84:	e0bffc17 	ldw	r2,-16(fp)
  80dd88:	10c00917 	ldw	r3,36(r2)
  80dd8c:	e0bffc17 	ldw	r2,-16(fp)
  80dd90:	10800117 	ldw	r2,4(r2)
  80dd94:	18bff736 	bltu	r3,r2,80dd74 <__alt_mem_onchip_mem+0xff805d74>
        ;
#endif /* __ucosii__ */

      if  (sp->host_inactive)
  80dd98:	e0bffc17 	ldw	r2,-16(fp)
  80dd9c:	10800917 	ldw	r2,36(r2)
  80dda0:	1000051e 	bne	r2,zero,80ddb8 <altera_avalon_jtag_uart_write+0x1d8>
         break;
    }
  }
  while (count > 0);
  80dda4:	e0bffe17 	ldw	r2,-8(fp)
  80dda8:	00bfd016 	blt	zero,r2,80dcec <__alt_mem_onchip_mem+0xff805cec>
  80ddac:	00000306 	br	80ddbc <altera_avalon_jtag_uart_write+0x1dc>
     */
    /* consider: test whether there is anything there while doing this and delay for at most 2s. */
    if (count > 0)
    {
      if (flags & O_NONBLOCK)
        break;
  80ddb0:	0001883a 	nop
  80ddb4:	00000106 	br	80ddbc <altera_avalon_jtag_uart_write+0x1dc>
      while (out == sp->tx_out && sp->host_inactive < sp->timeout)
        ;
#endif /* __ucosii__ */

      if  (sp->host_inactive)
         break;
  80ddb8:	0001883a 	nop
   * Now that access to the circular buffer is complete, release the write
   * semaphore so that other threads can access the buffer.
   */
  ALT_SEM_POST (sp->write_lock);

  if (ptr != start)
  80ddbc:	e0fffd17 	ldw	r3,-12(fp)
  80ddc0:	e0bff717 	ldw	r2,-36(fp)
  80ddc4:	18800426 	beq	r3,r2,80ddd8 <altera_avalon_jtag_uart_write+0x1f8>
    return ptr - start;
  80ddc8:	e0fffd17 	ldw	r3,-12(fp)
  80ddcc:	e0bff717 	ldw	r2,-36(fp)
  80ddd0:	1885c83a 	sub	r2,r3,r2
  80ddd4:	00000606 	br	80ddf0 <altera_avalon_jtag_uart_write+0x210>
  else if (flags & O_NONBLOCK)
  80ddd8:	e0bfff17 	ldw	r2,-4(fp)
  80dddc:	1090000c 	andi	r2,r2,16384
  80dde0:	10000226 	beq	r2,zero,80ddec <altera_avalon_jtag_uart_write+0x20c>
    return -EWOULDBLOCK;
  80dde4:	00bffd44 	movi	r2,-11
  80dde8:	00000106 	br	80ddf0 <altera_avalon_jtag_uart_write+0x210>
    sp->tx_out = sp->tx_in = 0;
    return ptr - start + count;
  }
#endif
  else
    return -EIO; /* Host not connected */
  80ddec:	00bffec4 	movi	r2,-5
}
  80ddf0:	e037883a 	mov	sp,fp
  80ddf4:	dfc00117 	ldw	ra,4(sp)
  80ddf8:	df000017 	ldw	fp,0(sp)
  80ddfc:	dec00204 	addi	sp,sp,8
  80de00:	f800283a 	ret

0080de04 <lcd_write_command>:

/* --------------------------------------------------------------------- */

static void lcd_write_command(altera_avalon_lcd_16207_state* sp, 
  unsigned char command)
{
  80de04:	defffa04 	addi	sp,sp,-24
  80de08:	dfc00515 	stw	ra,20(sp)
  80de0c:	df000415 	stw	fp,16(sp)
  80de10:	df000404 	addi	fp,sp,16
  80de14:	e13ffe15 	stw	r4,-8(fp)
  80de18:	2805883a 	mov	r2,r5
  80de1c:	e0bfff05 	stb	r2,-4(fp)
  unsigned int base = sp->base;
  80de20:	e0bffe17 	ldw	r2,-8(fp)
  80de24:	10800017 	ldw	r2,0(r2)
  80de28:	e0bffd15 	stw	r2,-12(fp)
  /* We impose a timeout on the driver in case the LCD panel isn't connected.
   * The first time we call this function the timeout is approx 25ms 
   * (assuming 5 cycles per loop and a 200MHz clock).  Obviously systems
   * with slower clocks, or debug builds, or slower memory will take longer.
   */
  int i = 1000000;
  80de2c:	008003f4 	movhi	r2,15
  80de30:	10909004 	addi	r2,r2,16960
  80de34:	e0bffc15 	stw	r2,-16(fp)

  /* Don't bother if the LCD panel didn't work before */
  if (sp->broken)
  80de38:	e0bffe17 	ldw	r2,-8(fp)
  80de3c:	10800803 	ldbu	r2,32(r2)
  80de40:	10803fcc 	andi	r2,r2,255
  80de44:	1080201c 	xori	r2,r2,128
  80de48:	10bfe004 	addi	r2,r2,-128
  80de4c:	1000151e 	bne	r2,zero,80dea4 <lcd_write_command+0xa0>
    return;

  /* Wait until LCD isn't busy. */
  while (IORD_ALTERA_AVALON_LCD_16207_STATUS(base) & ALTERA_AVALON_LCD_16207_STATUS_BUSY_MSK)
  80de50:	00000906 	br	80de78 <lcd_write_command+0x74>
    if (--i == 0)
  80de54:	e0bffc17 	ldw	r2,-16(fp)
  80de58:	10bfffc4 	addi	r2,r2,-1
  80de5c:	e0bffc15 	stw	r2,-16(fp)
  80de60:	e0bffc17 	ldw	r2,-16(fp)
  80de64:	1000041e 	bne	r2,zero,80de78 <lcd_write_command+0x74>
    {
      sp->broken = 1;
  80de68:	e0bffe17 	ldw	r2,-8(fp)
  80de6c:	00c00044 	movi	r3,1
  80de70:	10c00805 	stb	r3,32(r2)
      return;
  80de74:	00000c06 	br	80dea8 <lcd_write_command+0xa4>
  /* Don't bother if the LCD panel didn't work before */
  if (sp->broken)
    return;

  /* Wait until LCD isn't busy. */
  while (IORD_ALTERA_AVALON_LCD_16207_STATUS(base) & ALTERA_AVALON_LCD_16207_STATUS_BUSY_MSK)
  80de78:	e0bffd17 	ldw	r2,-12(fp)
  80de7c:	10800104 	addi	r2,r2,4
  80de80:	10800037 	ldwio	r2,0(r2)
  80de84:	1080200c 	andi	r2,r2,128
  80de88:	103ff21e 	bne	r2,zero,80de54 <__alt_mem_onchip_mem+0xff805e54>
    }

  /* Despite what it says in the datasheet, the LCD isn't ready to accept
   * a write immediately after it returns BUSY=0.  Wait for 100us more.
   */
  usleep(100);
  80de8c:	01001904 	movi	r4,100
  80de90:	080fee40 	call	80fee4 <usleep>

  IOWR_ALTERA_AVALON_LCD_16207_COMMAND(base, command);
  80de94:	e0bffd17 	ldw	r2,-12(fp)
  80de98:	e0ffff03 	ldbu	r3,-4(fp)
  80de9c:	10c00035 	stwio	r3,0(r2)
  80dea0:	00000106 	br	80dea8 <lcd_write_command+0xa4>
   */
  int i = 1000000;

  /* Don't bother if the LCD panel didn't work before */
  if (sp->broken)
    return;
  80dea4:	0001883a 	nop
   * a write immediately after it returns BUSY=0.  Wait for 100us more.
   */
  usleep(100);

  IOWR_ALTERA_AVALON_LCD_16207_COMMAND(base, command);
}
  80dea8:	e037883a 	mov	sp,fp
  80deac:	dfc00117 	ldw	ra,4(sp)
  80deb0:	df000017 	ldw	fp,0(sp)
  80deb4:	dec00204 	addi	sp,sp,8
  80deb8:	f800283a 	ret

0080debc <lcd_write_data>:

/* --------------------------------------------------------------------- */

static void lcd_write_data(altera_avalon_lcd_16207_state* sp, 
  unsigned char data)
{
  80debc:	defffa04 	addi	sp,sp,-24
  80dec0:	dfc00515 	stw	ra,20(sp)
  80dec4:	df000415 	stw	fp,16(sp)
  80dec8:	df000404 	addi	fp,sp,16
  80decc:	e13ffe15 	stw	r4,-8(fp)
  80ded0:	2805883a 	mov	r2,r5
  80ded4:	e0bfff05 	stb	r2,-4(fp)
  unsigned int base = sp->base;
  80ded8:	e0bffe17 	ldw	r2,-8(fp)
  80dedc:	10800017 	ldw	r2,0(r2)
  80dee0:	e0bffd15 	stw	r2,-12(fp)
  /* We impose a timeout on the driver in case the LCD panel isn't connected.
   * The first time we call this function the timeout is approx 25ms 
   * (assuming 5 cycles per loop and a 200MHz clock).  Obviously systems
   * with slower clocks, or debug builds, or slower memory will take longer.
   */
  int i = 1000000;
  80dee4:	008003f4 	movhi	r2,15
  80dee8:	10909004 	addi	r2,r2,16960
  80deec:	e0bffc15 	stw	r2,-16(fp)

  /* Don't bother if the LCD panel didn't work before */
  if (sp->broken)
  80def0:	e0bffe17 	ldw	r2,-8(fp)
  80def4:	10800803 	ldbu	r2,32(r2)
  80def8:	10803fcc 	andi	r2,r2,255
  80defc:	1080201c 	xori	r2,r2,128
  80df00:	10bfe004 	addi	r2,r2,-128
  80df04:	10001d1e 	bne	r2,zero,80df7c <lcd_write_data+0xc0>
    return;

  /* Wait until LCD isn't busy. */
  while (IORD_ALTERA_AVALON_LCD_16207_STATUS(base) & ALTERA_AVALON_LCD_16207_STATUS_BUSY_MSK)
  80df08:	00000906 	br	80df30 <lcd_write_data+0x74>
    if (--i == 0)
  80df0c:	e0bffc17 	ldw	r2,-16(fp)
  80df10:	10bfffc4 	addi	r2,r2,-1
  80df14:	e0bffc15 	stw	r2,-16(fp)
  80df18:	e0bffc17 	ldw	r2,-16(fp)
  80df1c:	1000041e 	bne	r2,zero,80df30 <lcd_write_data+0x74>
    {
      sp->broken = 1;
  80df20:	e0bffe17 	ldw	r2,-8(fp)
  80df24:	00c00044 	movi	r3,1
  80df28:	10c00805 	stb	r3,32(r2)
      return;
  80df2c:	00001406 	br	80df80 <lcd_write_data+0xc4>
  /* Don't bother if the LCD panel didn't work before */
  if (sp->broken)
    return;

  /* Wait until LCD isn't busy. */
  while (IORD_ALTERA_AVALON_LCD_16207_STATUS(base) & ALTERA_AVALON_LCD_16207_STATUS_BUSY_MSK)
  80df30:	e0bffd17 	ldw	r2,-12(fp)
  80df34:	10800104 	addi	r2,r2,4
  80df38:	10800037 	ldwio	r2,0(r2)
  80df3c:	1080200c 	andi	r2,r2,128
  80df40:	103ff21e 	bne	r2,zero,80df0c <__alt_mem_onchip_mem+0xff805f0c>
    }

  /* Despite what it says in the datasheet, the LCD isn't ready to accept
   * a write immediately after it returns BUSY=0.  Wait for 100us more.
   */
  usleep(100);
  80df44:	01001904 	movi	r4,100
  80df48:	080fee40 	call	80fee4 <usleep>

  IOWR_ALTERA_AVALON_LCD_16207_DATA(base, data);
  80df4c:	e0bffd17 	ldw	r2,-12(fp)
  80df50:	10800204 	addi	r2,r2,8
  80df54:	1007883a 	mov	r3,r2
  80df58:	e0bfff03 	ldbu	r2,-4(fp)
  80df5c:	18800035 	stwio	r2,0(r3)

  sp->address++;
  80df60:	e0bffe17 	ldw	r2,-8(fp)
  80df64:	108008c3 	ldbu	r2,35(r2)
  80df68:	10800044 	addi	r2,r2,1
  80df6c:	1007883a 	mov	r3,r2
  80df70:	e0bffe17 	ldw	r2,-8(fp)
  80df74:	10c008c5 	stb	r3,35(r2)
  80df78:	00000106 	br	80df80 <lcd_write_data+0xc4>
   */
  int i = 1000000;

  /* Don't bother if the LCD panel didn't work before */
  if (sp->broken)
    return;
  80df7c:	0001883a 	nop
  usleep(100);

  IOWR_ALTERA_AVALON_LCD_16207_DATA(base, data);

  sp->address++;
}
  80df80:	e037883a 	mov	sp,fp
  80df84:	dfc00117 	ldw	ra,4(sp)
  80df88:	df000017 	ldw	fp,0(sp)
  80df8c:	dec00204 	addi	sp,sp,8
  80df90:	f800283a 	ret

0080df94 <lcd_clear_screen>:

/* --------------------------------------------------------------------- */

static void lcd_clear_screen(altera_avalon_lcd_16207_state* sp)
{
  80df94:	defffc04 	addi	sp,sp,-16
  80df98:	dfc00315 	stw	ra,12(sp)
  80df9c:	df000215 	stw	fp,8(sp)
  80dfa0:	df000204 	addi	fp,sp,8
  80dfa4:	e13fff15 	stw	r4,-4(fp)
  int y;

  lcd_write_command(sp, LCD_CMD_CLEAR);
  80dfa8:	01400044 	movi	r5,1
  80dfac:	e13fff17 	ldw	r4,-4(fp)
  80dfb0:	080de040 	call	80de04 <lcd_write_command>

  sp->x = 0;
  80dfb4:	e0bfff17 	ldw	r2,-4(fp)
  80dfb8:	10000845 	stb	zero,33(r2)
  sp->y = 0;
  80dfbc:	e0bfff17 	ldw	r2,-4(fp)
  80dfc0:	10000885 	stb	zero,34(r2)
  sp->address = 0;
  80dfc4:	e0bfff17 	ldw	r2,-4(fp)
  80dfc8:	100008c5 	stb	zero,35(r2)

  for (y = 0 ; y < ALT_LCD_HEIGHT ; y++)
  80dfcc:	e03ffe15 	stw	zero,-8(fp)
  80dfd0:	00001b06 	br	80e040 <lcd_clear_screen+0xac>
  {
    memset(sp->line[y].data, ' ', sizeof(sp->line[0].data));
  80dfd4:	e0bffe17 	ldw	r2,-8(fp)
  80dfd8:	108018e4 	muli	r2,r2,99
  80dfdc:	10801004 	addi	r2,r2,64
  80dfe0:	e0ffff17 	ldw	r3,-4(fp)
  80dfe4:	1885883a 	add	r2,r3,r2
  80dfe8:	01801444 	movi	r6,81
  80dfec:	01400804 	movi	r5,32
  80dff0:	1009883a 	mov	r4,r2
  80dff4:	0809d900 	call	809d90 <memset>
    memset(sp->line[y].visible, ' ', sizeof(sp->line[0].visible));
  80dff8:	e0bffe17 	ldw	r2,-8(fp)
  80dffc:	108018e4 	muli	r2,r2,99
  80e000:	10800c04 	addi	r2,r2,48
  80e004:	e0ffff17 	ldw	r3,-4(fp)
  80e008:	1885883a 	add	r2,r3,r2
  80e00c:	01800404 	movi	r6,16
  80e010:	01400804 	movi	r5,32
  80e014:	1009883a 	mov	r4,r2
  80e018:	0809d900 	call	809d90 <memset>
    sp->line[y].width = 0;
  80e01c:	e0ffff17 	ldw	r3,-4(fp)
  80e020:	e0bffe17 	ldw	r2,-8(fp)
  80e024:	108018e4 	muli	r2,r2,99
  80e028:	1885883a 	add	r2,r3,r2
  80e02c:	10802444 	addi	r2,r2,145
  80e030:	10000005 	stb	zero,0(r2)

  sp->x = 0;
  sp->y = 0;
  sp->address = 0;

  for (y = 0 ; y < ALT_LCD_HEIGHT ; y++)
  80e034:	e0bffe17 	ldw	r2,-8(fp)
  80e038:	10800044 	addi	r2,r2,1
  80e03c:	e0bffe15 	stw	r2,-8(fp)
  80e040:	e0bffe17 	ldw	r2,-8(fp)
  80e044:	10800090 	cmplti	r2,r2,2
  80e048:	103fe21e 	bne	r2,zero,80dfd4 <__alt_mem_onchip_mem+0xff805fd4>
  {
    memset(sp->line[y].data, ' ', sizeof(sp->line[0].data));
    memset(sp->line[y].visible, ' ', sizeof(sp->line[0].visible));
    sp->line[y].width = 0;
  }
}
  80e04c:	0001883a 	nop
  80e050:	e037883a 	mov	sp,fp
  80e054:	dfc00117 	ldw	ra,4(sp)
  80e058:	df000017 	ldw	fp,0(sp)
  80e05c:	dec00204 	addi	sp,sp,8
  80e060:	f800283a 	ret

0080e064 <lcd_repaint_screen>:

/* --------------------------------------------------------------------- */

static void lcd_repaint_screen(altera_avalon_lcd_16207_state* sp)
{
  80e064:	defff704 	addi	sp,sp,-36
  80e068:	dfc00815 	stw	ra,32(sp)
  80e06c:	df000715 	stw	fp,28(sp)
  80e070:	df000704 	addi	fp,sp,28
  80e074:	e13fff15 	stw	r4,-4(fp)
  /* scrollpos controls how much the lines have scrolled round.  The speed
   * each line scrolls at is controlled by its speed variable - while
   * scrolline lines will wrap at the position set by width
   */

  int scrollpos = sp->scrollpos;
  80e078:	e0bfff17 	ldw	r2,-4(fp)
  80e07c:	10800943 	ldbu	r2,37(r2)
  80e080:	10803fcc 	andi	r2,r2,255
  80e084:	e0bffc15 	stw	r2,-16(fp)

  for (y = 0 ; y < ALT_LCD_HEIGHT ; y++)
  80e088:	e03ff915 	stw	zero,-28(fp)
  80e08c:	00006706 	br	80e22c <lcd_repaint_screen+0x1c8>
  {
    int width  = sp->line[y].width;
  80e090:	e0ffff17 	ldw	r3,-4(fp)
  80e094:	e0bff917 	ldw	r2,-28(fp)
  80e098:	108018e4 	muli	r2,r2,99
  80e09c:	1885883a 	add	r2,r3,r2
  80e0a0:	10802444 	addi	r2,r2,145
  80e0a4:	10800003 	ldbu	r2,0(r2)
  80e0a8:	10803fcc 	andi	r2,r2,255
  80e0ac:	1080201c 	xori	r2,r2,128
  80e0b0:	10bfe004 	addi	r2,r2,-128
  80e0b4:	e0bffd15 	stw	r2,-12(fp)
    int offset = (scrollpos * sp->line[y].speed) >> 8;
  80e0b8:	e0ffff17 	ldw	r3,-4(fp)
  80e0bc:	e0bff917 	ldw	r2,-28(fp)
  80e0c0:	108018e4 	muli	r2,r2,99
  80e0c4:	1885883a 	add	r2,r3,r2
  80e0c8:	10802484 	addi	r2,r2,146
  80e0cc:	10800003 	ldbu	r2,0(r2)
  80e0d0:	10c03fcc 	andi	r3,r2,255
  80e0d4:	e0bffc17 	ldw	r2,-16(fp)
  80e0d8:	1885383a 	mul	r2,r3,r2
  80e0dc:	1005d23a 	srai	r2,r2,8
  80e0e0:	e0bffb15 	stw	r2,-20(fp)
    if (offset >= width)
  80e0e4:	e0fffb17 	ldw	r3,-20(fp)
  80e0e8:	e0bffd17 	ldw	r2,-12(fp)
  80e0ec:	18800116 	blt	r3,r2,80e0f4 <lcd_repaint_screen+0x90>
      offset = 0;
  80e0f0:	e03ffb15 	stw	zero,-20(fp)

    for (x = 0 ; x < ALT_LCD_WIDTH ; x++)
  80e0f4:	e03ffa15 	stw	zero,-24(fp)
  80e0f8:	00004606 	br	80e214 <lcd_repaint_screen+0x1b0>
    {
      char c = sp->line[y].data[(x + offset) % width];
  80e0fc:	e0fffa17 	ldw	r3,-24(fp)
  80e100:	e0bffb17 	ldw	r2,-20(fp)
  80e104:	1885883a 	add	r2,r3,r2
  80e108:	e17ffd17 	ldw	r5,-12(fp)
  80e10c:	1009883a 	mov	r4,r2
  80e110:	080c3000 	call	80c300 <__modsi3>
  80e114:	1009883a 	mov	r4,r2
  80e118:	e0ffff17 	ldw	r3,-4(fp)
  80e11c:	e0bff917 	ldw	r2,-28(fp)
  80e120:	108018e4 	muli	r2,r2,99
  80e124:	1885883a 	add	r2,r3,r2
  80e128:	1105883a 	add	r2,r2,r4
  80e12c:	10801004 	addi	r2,r2,64
  80e130:	10800003 	ldbu	r2,0(r2)
  80e134:	e0bffe05 	stb	r2,-8(fp)

      /* Writing data takes 40us, so don't do it unless required */
      if (sp->line[y].visible[x] != c)
  80e138:	e0ffff17 	ldw	r3,-4(fp)
  80e13c:	e0bff917 	ldw	r2,-28(fp)
  80e140:	108018e4 	muli	r2,r2,99
  80e144:	1887883a 	add	r3,r3,r2
  80e148:	e0bffa17 	ldw	r2,-24(fp)
  80e14c:	1885883a 	add	r2,r3,r2
  80e150:	10800c04 	addi	r2,r2,48
  80e154:	10800003 	ldbu	r2,0(r2)
  80e158:	10c03fcc 	andi	r3,r2,255
  80e15c:	18c0201c 	xori	r3,r3,128
  80e160:	18ffe004 	addi	r3,r3,-128
  80e164:	e0bffe07 	ldb	r2,-8(fp)
  80e168:	18802726 	beq	r3,r2,80e208 <lcd_repaint_screen+0x1a4>
      {
        unsigned char address = x + colstart[y];
  80e16c:	e0fff917 	ldw	r3,-28(fp)
  80e170:	d0a00e04 	addi	r2,gp,-32712
  80e174:	1885883a 	add	r2,r3,r2
  80e178:	10800003 	ldbu	r2,0(r2)
  80e17c:	1007883a 	mov	r3,r2
  80e180:	e0bffa17 	ldw	r2,-24(fp)
  80e184:	1885883a 	add	r2,r3,r2
  80e188:	e0bffe45 	stb	r2,-7(fp)

        if (address != sp->address)
  80e18c:	e0fffe43 	ldbu	r3,-7(fp)
  80e190:	e0bfff17 	ldw	r2,-4(fp)
  80e194:	108008c3 	ldbu	r2,35(r2)
  80e198:	10803fcc 	andi	r2,r2,255
  80e19c:	1080201c 	xori	r2,r2,128
  80e1a0:	10bfe004 	addi	r2,r2,-128
  80e1a4:	18800a26 	beq	r3,r2,80e1d0 <lcd_repaint_screen+0x16c>
        {
          lcd_write_command(sp, LCD_CMD_WRITE_DATA | address);
  80e1a8:	e0fffe43 	ldbu	r3,-7(fp)
  80e1ac:	00bfe004 	movi	r2,-128
  80e1b0:	1884b03a 	or	r2,r3,r2
  80e1b4:	10803fcc 	andi	r2,r2,255
  80e1b8:	100b883a 	mov	r5,r2
  80e1bc:	e13fff17 	ldw	r4,-4(fp)
  80e1c0:	080de040 	call	80de04 <lcd_write_command>
          sp->address = address;
  80e1c4:	e0fffe43 	ldbu	r3,-7(fp)
  80e1c8:	e0bfff17 	ldw	r2,-4(fp)
  80e1cc:	10c008c5 	stb	r3,35(r2)
        }

        lcd_write_data(sp, c);
  80e1d0:	e0bffe03 	ldbu	r2,-8(fp)
  80e1d4:	10803fcc 	andi	r2,r2,255
  80e1d8:	100b883a 	mov	r5,r2
  80e1dc:	e13fff17 	ldw	r4,-4(fp)
  80e1e0:	080debc0 	call	80debc <lcd_write_data>
        sp->line[y].visible[x] = c;
  80e1e4:	e0ffff17 	ldw	r3,-4(fp)
  80e1e8:	e0bff917 	ldw	r2,-28(fp)
  80e1ec:	108018e4 	muli	r2,r2,99
  80e1f0:	1887883a 	add	r3,r3,r2
  80e1f4:	e0bffa17 	ldw	r2,-24(fp)
  80e1f8:	1885883a 	add	r2,r3,r2
  80e1fc:	10800c04 	addi	r2,r2,48
  80e200:	e0fffe03 	ldbu	r3,-8(fp)
  80e204:	10c00005 	stb	r3,0(r2)
    int width  = sp->line[y].width;
    int offset = (scrollpos * sp->line[y].speed) >> 8;
    if (offset >= width)
      offset = 0;

    for (x = 0 ; x < ALT_LCD_WIDTH ; x++)
  80e208:	e0bffa17 	ldw	r2,-24(fp)
  80e20c:	10800044 	addi	r2,r2,1
  80e210:	e0bffa15 	stw	r2,-24(fp)
  80e214:	e0bffa17 	ldw	r2,-24(fp)
  80e218:	10800410 	cmplti	r2,r2,16
  80e21c:	103fb71e 	bne	r2,zero,80e0fc <__alt_mem_onchip_mem+0xff8060fc>
   * scrolline lines will wrap at the position set by width
   */

  int scrollpos = sp->scrollpos;

  for (y = 0 ; y < ALT_LCD_HEIGHT ; y++)
  80e220:	e0bff917 	ldw	r2,-28(fp)
  80e224:	10800044 	addi	r2,r2,1
  80e228:	e0bff915 	stw	r2,-28(fp)
  80e22c:	e0bff917 	ldw	r2,-28(fp)
  80e230:	10800090 	cmplti	r2,r2,2
  80e234:	103f961e 	bne	r2,zero,80e090 <__alt_mem_onchip_mem+0xff806090>
        lcd_write_data(sp, c);
        sp->line[y].visible[x] = c;
      }
    }
  }
}
  80e238:	0001883a 	nop
  80e23c:	e037883a 	mov	sp,fp
  80e240:	dfc00117 	ldw	ra,4(sp)
  80e244:	df000017 	ldw	fp,0(sp)
  80e248:	dec00204 	addi	sp,sp,8
  80e24c:	f800283a 	ret

0080e250 <lcd_scroll_up>:

/* --------------------------------------------------------------------- */

static void lcd_scroll_up(altera_avalon_lcd_16207_state* sp)
{
  80e250:	defffc04 	addi	sp,sp,-16
  80e254:	dfc00315 	stw	ra,12(sp)
  80e258:	df000215 	stw	fp,8(sp)
  80e25c:	df000204 	addi	fp,sp,8
  80e260:	e13fff15 	stw	r4,-4(fp)
  int y;

  for (y = 0 ; y < ALT_LCD_HEIGHT ; y++)
  80e264:	e03ffe15 	stw	zero,-8(fp)
  80e268:	00001d06 	br	80e2e0 <lcd_scroll_up+0x90>
  {
    if (y < ALT_LCD_HEIGHT-1)
  80e26c:	e0bffe17 	ldw	r2,-8(fp)
  80e270:	00800f16 	blt	zero,r2,80e2b0 <lcd_scroll_up+0x60>
      memcpy(sp->line[y].data, sp->line[y+1].data, ALT_LCD_VIRTUAL_WIDTH);
  80e274:	e0bffe17 	ldw	r2,-8(fp)
  80e278:	108018e4 	muli	r2,r2,99
  80e27c:	10801004 	addi	r2,r2,64
  80e280:	e0ffff17 	ldw	r3,-4(fp)
  80e284:	1889883a 	add	r4,r3,r2
  80e288:	e0bffe17 	ldw	r2,-8(fp)
  80e28c:	10800044 	addi	r2,r2,1
  80e290:	108018e4 	muli	r2,r2,99
  80e294:	10801004 	addi	r2,r2,64
  80e298:	e0ffff17 	ldw	r3,-4(fp)
  80e29c:	1885883a 	add	r2,r3,r2
  80e2a0:	01801404 	movi	r6,80
  80e2a4:	100b883a 	mov	r5,r2
  80e2a8:	080b7bc0 	call	80b7bc <memcpy>
  80e2ac:	00000906 	br	80e2d4 <lcd_scroll_up+0x84>
    else
      memset(sp->line[y].data, ' ', ALT_LCD_VIRTUAL_WIDTH);
  80e2b0:	e0bffe17 	ldw	r2,-8(fp)
  80e2b4:	108018e4 	muli	r2,r2,99
  80e2b8:	10801004 	addi	r2,r2,64
  80e2bc:	e0ffff17 	ldw	r3,-4(fp)
  80e2c0:	1885883a 	add	r2,r3,r2
  80e2c4:	01801404 	movi	r6,80
  80e2c8:	01400804 	movi	r5,32
  80e2cc:	1009883a 	mov	r4,r2
  80e2d0:	0809d900 	call	809d90 <memset>

static void lcd_scroll_up(altera_avalon_lcd_16207_state* sp)
{
  int y;

  for (y = 0 ; y < ALT_LCD_HEIGHT ; y++)
  80e2d4:	e0bffe17 	ldw	r2,-8(fp)
  80e2d8:	10800044 	addi	r2,r2,1
  80e2dc:	e0bffe15 	stw	r2,-8(fp)
  80e2e0:	e0bffe17 	ldw	r2,-8(fp)
  80e2e4:	10800090 	cmplti	r2,r2,2
  80e2e8:	103fe01e 	bne	r2,zero,80e26c <__alt_mem_onchip_mem+0xff80626c>
      memcpy(sp->line[y].data, sp->line[y+1].data, ALT_LCD_VIRTUAL_WIDTH);
    else
      memset(sp->line[y].data, ' ', ALT_LCD_VIRTUAL_WIDTH);
  }

  sp->y--;
  80e2ec:	e0bfff17 	ldw	r2,-4(fp)
  80e2f0:	10800883 	ldbu	r2,34(r2)
  80e2f4:	10bfffc4 	addi	r2,r2,-1
  80e2f8:	1007883a 	mov	r3,r2
  80e2fc:	e0bfff17 	ldw	r2,-4(fp)
  80e300:	10c00885 	stb	r3,34(r2)
}
  80e304:	0001883a 	nop
  80e308:	e037883a 	mov	sp,fp
  80e30c:	dfc00117 	ldw	ra,4(sp)
  80e310:	df000017 	ldw	fp,0(sp)
  80e314:	dec00204 	addi	sp,sp,8
  80e318:	f800283a 	ret

0080e31c <lcd_handle_escape>:

/* --------------------------------------------------------------------- */

static void lcd_handle_escape(altera_avalon_lcd_16207_state* sp, char c)
{
  80e31c:	defff904 	addi	sp,sp,-28
  80e320:	dfc00615 	stw	ra,24(sp)
  80e324:	df000515 	stw	fp,20(sp)
  80e328:	df000504 	addi	fp,sp,20
  80e32c:	e13ffe15 	stw	r4,-8(fp)
  80e330:	2805883a 	mov	r2,r5
  80e334:	e0bfff05 	stb	r2,-4(fp)
  int parm1 = 0, parm2 = 0;
  80e338:	e03ffb15 	stw	zero,-20(fp)
  80e33c:	e03ffc15 	stw	zero,-16(fp)

  if (sp->escape[0] == '[')
  80e340:	e0bffe17 	ldw	r2,-8(fp)
  80e344:	10800a03 	ldbu	r2,40(r2)
  80e348:	10803fcc 	andi	r2,r2,255
  80e34c:	1080201c 	xori	r2,r2,128
  80e350:	10bfe004 	addi	r2,r2,-128
  80e354:	108016d8 	cmpnei	r2,r2,91
  80e358:	1000411e 	bne	r2,zero,80e460 <lcd_handle_escape+0x144>
  {
    char * ptr = sp->escape+1;
  80e35c:	e0bffe17 	ldw	r2,-8(fp)
  80e360:	10800a04 	addi	r2,r2,40
  80e364:	10800044 	addi	r2,r2,1
  80e368:	e0bffd15 	stw	r2,-12(fp)
    while (isdigit(*ptr))
  80e36c:	00000c06 	br	80e3a0 <lcd_handle_escape+0x84>
      parm1 = (parm1 * 10) + (*ptr++ - '0');
  80e370:	e0bffb17 	ldw	r2,-20(fp)
  80e374:	10c002a4 	muli	r3,r2,10
  80e378:	e0bffd17 	ldw	r2,-12(fp)
  80e37c:	11000044 	addi	r4,r2,1
  80e380:	e13ffd15 	stw	r4,-12(fp)
  80e384:	10800003 	ldbu	r2,0(r2)
  80e388:	10803fcc 	andi	r2,r2,255
  80e38c:	1080201c 	xori	r2,r2,128
  80e390:	10bfe004 	addi	r2,r2,-128
  80e394:	10bff404 	addi	r2,r2,-48
  80e398:	1885883a 	add	r2,r3,r2
  80e39c:	e0bffb15 	stw	r2,-20(fp)
  int parm1 = 0, parm2 = 0;

  if (sp->escape[0] == '[')
  {
    char * ptr = sp->escape+1;
    while (isdigit(*ptr))
  80e3a0:	d0e01017 	ldw	r3,-32704(gp)
  80e3a4:	e0bffd17 	ldw	r2,-12(fp)
  80e3a8:	10800003 	ldbu	r2,0(r2)
  80e3ac:	10803fcc 	andi	r2,r2,255
  80e3b0:	1080201c 	xori	r2,r2,128
  80e3b4:	10bfe004 	addi	r2,r2,-128
  80e3b8:	10800044 	addi	r2,r2,1
  80e3bc:	1885883a 	add	r2,r3,r2
  80e3c0:	10800003 	ldbu	r2,0(r2)
  80e3c4:	10803fcc 	andi	r2,r2,255
  80e3c8:	1080010c 	andi	r2,r2,4
  80e3cc:	103fe81e 	bne	r2,zero,80e370 <__alt_mem_onchip_mem+0xff806370>
      parm1 = (parm1 * 10) + (*ptr++ - '0');

    if (*ptr == ';')
  80e3d0:	e0bffd17 	ldw	r2,-12(fp)
  80e3d4:	10800003 	ldbu	r2,0(r2)
  80e3d8:	10803fcc 	andi	r2,r2,255
  80e3dc:	1080201c 	xori	r2,r2,128
  80e3e0:	10bfe004 	addi	r2,r2,-128
  80e3e4:	10800ed8 	cmpnei	r2,r2,59
  80e3e8:	10001f1e 	bne	r2,zero,80e468 <lcd_handle_escape+0x14c>
    {
      ptr++;
  80e3ec:	e0bffd17 	ldw	r2,-12(fp)
  80e3f0:	10800044 	addi	r2,r2,1
  80e3f4:	e0bffd15 	stw	r2,-12(fp)
      while (isdigit(*ptr))
  80e3f8:	00000c06 	br	80e42c <lcd_handle_escape+0x110>
        parm2 = (parm2 * 10) + (*ptr++ - '0');
  80e3fc:	e0bffc17 	ldw	r2,-16(fp)
  80e400:	10c002a4 	muli	r3,r2,10
  80e404:	e0bffd17 	ldw	r2,-12(fp)
  80e408:	11000044 	addi	r4,r2,1
  80e40c:	e13ffd15 	stw	r4,-12(fp)
  80e410:	10800003 	ldbu	r2,0(r2)
  80e414:	10803fcc 	andi	r2,r2,255
  80e418:	1080201c 	xori	r2,r2,128
  80e41c:	10bfe004 	addi	r2,r2,-128
  80e420:	10bff404 	addi	r2,r2,-48
  80e424:	1885883a 	add	r2,r3,r2
  80e428:	e0bffc15 	stw	r2,-16(fp)
      parm1 = (parm1 * 10) + (*ptr++ - '0');

    if (*ptr == ';')
    {
      ptr++;
      while (isdigit(*ptr))
  80e42c:	d0e01017 	ldw	r3,-32704(gp)
  80e430:	e0bffd17 	ldw	r2,-12(fp)
  80e434:	10800003 	ldbu	r2,0(r2)
  80e438:	10803fcc 	andi	r2,r2,255
  80e43c:	1080201c 	xori	r2,r2,128
  80e440:	10bfe004 	addi	r2,r2,-128
  80e444:	10800044 	addi	r2,r2,1
  80e448:	1885883a 	add	r2,r3,r2
  80e44c:	10800003 	ldbu	r2,0(r2)
  80e450:	10803fcc 	andi	r2,r2,255
  80e454:	1080010c 	andi	r2,r2,4
  80e458:	103fe81e 	bne	r2,zero,80e3fc <__alt_mem_onchip_mem+0xff8063fc>
  80e45c:	00000206 	br	80e468 <lcd_handle_escape+0x14c>
        parm2 = (parm2 * 10) + (*ptr++ - '0');
    }
  }
  else
    parm1 = -1;
  80e460:	00bfffc4 	movi	r2,-1
  80e464:	e0bffb15 	stw	r2,-20(fp)

  switch (c)
  80e468:	e0bfff07 	ldb	r2,-4(fp)
  80e46c:	10c012a0 	cmpeqi	r3,r2,74
  80e470:	1800291e 	bne	r3,zero,80e518 <lcd_handle_escape+0x1fc>
  80e474:	10c012c8 	cmpgei	r3,r2,75
  80e478:	1800031e 	bne	r3,zero,80e488 <lcd_handle_escape+0x16c>
  80e47c:	10801220 	cmpeqi	r2,r2,72
  80e480:	1000061e 	bne	r2,zero,80e49c <lcd_handle_escape+0x180>
      if (sp->x < ALT_LCD_VIRTUAL_WIDTH)
        memset(sp->line[sp->y].data + sp->x, ' ', ALT_LCD_VIRTUAL_WIDTH - sp->x);
    }
    break;
  }
}
  80e484:	00004a06 	br	80e5b0 <lcd_handle_escape+0x294>
    }
  }
  else
    parm1 = -1;

  switch (c)
  80e488:	10c012e0 	cmpeqi	r3,r2,75
  80e48c:	1800281e 	bne	r3,zero,80e530 <lcd_handle_escape+0x214>
  80e490:	108019a0 	cmpeqi	r2,r2,102
  80e494:	1000011e 	bne	r2,zero,80e49c <lcd_handle_escape+0x180>
      if (sp->x < ALT_LCD_VIRTUAL_WIDTH)
        memset(sp->line[sp->y].data + sp->x, ' ', ALT_LCD_VIRTUAL_WIDTH - sp->x);
    }
    break;
  }
}
  80e498:	00004506 	br	80e5b0 <lcd_handle_escape+0x294>

  switch (c)
  {
  case 'H': /* ESC '[' <y> ';' <x> 'H'  : Move cursor to location */
  case 'f': /* Same as above */
    if (parm2 > 0)
  80e49c:	e0bffc17 	ldw	r2,-16(fp)
  80e4a0:	0080050e 	bge	zero,r2,80e4b8 <lcd_handle_escape+0x19c>
      sp->x = parm2 - 1;
  80e4a4:	e0bffc17 	ldw	r2,-16(fp)
  80e4a8:	10bfffc4 	addi	r2,r2,-1
  80e4ac:	1007883a 	mov	r3,r2
  80e4b0:	e0bffe17 	ldw	r2,-8(fp)
  80e4b4:	10c00845 	stb	r3,33(r2)
    if (parm1 > 0)
  80e4b8:	e0bffb17 	ldw	r2,-20(fp)
  80e4bc:	0080370e 	bge	zero,r2,80e59c <lcd_handle_escape+0x280>
    {
      sp->y = parm1 - 1;
  80e4c0:	e0bffb17 	ldw	r2,-20(fp)
  80e4c4:	10bfffc4 	addi	r2,r2,-1
  80e4c8:	1007883a 	mov	r3,r2
  80e4cc:	e0bffe17 	ldw	r2,-8(fp)
  80e4d0:	10c00885 	stb	r3,34(r2)
      if (sp->y > ALT_LCD_HEIGHT * 2)
  80e4d4:	e0bffe17 	ldw	r2,-8(fp)
  80e4d8:	10800883 	ldbu	r2,34(r2)
  80e4dc:	10803fcc 	andi	r2,r2,255
  80e4e0:	10800170 	cmpltui	r2,r2,5
  80e4e4:	1000061e 	bne	r2,zero,80e500 <lcd_handle_escape+0x1e4>
        sp->y = ALT_LCD_HEIGHT * 2;
  80e4e8:	e0bffe17 	ldw	r2,-8(fp)
  80e4ec:	00c00104 	movi	r3,4
  80e4f0:	10c00885 	stb	r3,34(r2)
      while (sp->y > ALT_LCD_HEIGHT)
  80e4f4:	00000206 	br	80e500 <lcd_handle_escape+0x1e4>
        lcd_scroll_up(sp);
  80e4f8:	e13ffe17 	ldw	r4,-8(fp)
  80e4fc:	080e2500 	call	80e250 <lcd_scroll_up>
    if (parm1 > 0)
    {
      sp->y = parm1 - 1;
      if (sp->y > ALT_LCD_HEIGHT * 2)
        sp->y = ALT_LCD_HEIGHT * 2;
      while (sp->y > ALT_LCD_HEIGHT)
  80e500:	e0bffe17 	ldw	r2,-8(fp)
  80e504:	10800883 	ldbu	r2,34(r2)
  80e508:	10803fcc 	andi	r2,r2,255
  80e50c:	108000e8 	cmpgeui	r2,r2,3
  80e510:	103ff91e 	bne	r2,zero,80e4f8 <__alt_mem_onchip_mem+0xff8064f8>
        lcd_scroll_up(sp);
    }
    break;
  80e514:	00002106 	br	80e59c <lcd_handle_escape+0x280>
    /*   ESC J      is clear to beginning of line    [unimplemented]
     *   ESC [ 0 J  is clear to bottom of screen     [unimplemented]
     *   ESC [ 1 J  is clear to beginning of screen  [unimplemented]
     *   ESC [ 2 J  is clear screen
     */
    if (parm1 == 2)
  80e518:	e0bffb17 	ldw	r2,-20(fp)
  80e51c:	10800098 	cmpnei	r2,r2,2
  80e520:	1000201e 	bne	r2,zero,80e5a4 <lcd_handle_escape+0x288>
      lcd_clear_screen(sp);
  80e524:	e13ffe17 	ldw	r4,-8(fp)
  80e528:	080df940 	call	80df94 <lcd_clear_screen>
    break;
  80e52c:	00001d06 	br	80e5a4 <lcd_handle_escape+0x288>
    /*   ESC K      is clear to end of line
     *   ESC [ 0 K  is clear to end of line
     *   ESC [ 1 K  is clear to beginning of line    [unimplemented]
     *   ESC [ 2 K  is clear line                    [unimplemented]
     */
    if (parm1 < 1)
  80e530:	e0bffb17 	ldw	r2,-20(fp)
  80e534:	00801d16 	blt	zero,r2,80e5ac <lcd_handle_escape+0x290>
    {
      if (sp->x < ALT_LCD_VIRTUAL_WIDTH)
  80e538:	e0bffe17 	ldw	r2,-8(fp)
  80e53c:	10800843 	ldbu	r2,33(r2)
  80e540:	10803fcc 	andi	r2,r2,255
  80e544:	10801428 	cmpgeui	r2,r2,80
  80e548:	1000181e 	bne	r2,zero,80e5ac <lcd_handle_escape+0x290>
        memset(sp->line[sp->y].data + sp->x, ' ', ALT_LCD_VIRTUAL_WIDTH - sp->x);
  80e54c:	e0bffe17 	ldw	r2,-8(fp)
  80e550:	10800883 	ldbu	r2,34(r2)
  80e554:	10803fcc 	andi	r2,r2,255
  80e558:	108018e4 	muli	r2,r2,99
  80e55c:	10801004 	addi	r2,r2,64
  80e560:	e0fffe17 	ldw	r3,-8(fp)
  80e564:	1887883a 	add	r3,r3,r2
  80e568:	e0bffe17 	ldw	r2,-8(fp)
  80e56c:	10800843 	ldbu	r2,33(r2)
  80e570:	10803fcc 	andi	r2,r2,255
  80e574:	1889883a 	add	r4,r3,r2
  80e578:	e0bffe17 	ldw	r2,-8(fp)
  80e57c:	10800843 	ldbu	r2,33(r2)
  80e580:	10803fcc 	andi	r2,r2,255
  80e584:	00c01404 	movi	r3,80
  80e588:	1885c83a 	sub	r2,r3,r2
  80e58c:	100d883a 	mov	r6,r2
  80e590:	01400804 	movi	r5,32
  80e594:	0809d900 	call	809d90 <memset>
    }
    break;
  80e598:	00000406 	br	80e5ac <lcd_handle_escape+0x290>
      if (sp->y > ALT_LCD_HEIGHT * 2)
        sp->y = ALT_LCD_HEIGHT * 2;
      while (sp->y > ALT_LCD_HEIGHT)
        lcd_scroll_up(sp);
    }
    break;
  80e59c:	0001883a 	nop
  80e5a0:	00000306 	br	80e5b0 <lcd_handle_escape+0x294>
     *   ESC [ 1 J  is clear to beginning of screen  [unimplemented]
     *   ESC [ 2 J  is clear screen
     */
    if (parm1 == 2)
      lcd_clear_screen(sp);
    break;
  80e5a4:	0001883a 	nop
  80e5a8:	00000106 	br	80e5b0 <lcd_handle_escape+0x294>
    if (parm1 < 1)
    {
      if (sp->x < ALT_LCD_VIRTUAL_WIDTH)
        memset(sp->line[sp->y].data + sp->x, ' ', ALT_LCD_VIRTUAL_WIDTH - sp->x);
    }
    break;
  80e5ac:	0001883a 	nop
  }
}
  80e5b0:	0001883a 	nop
  80e5b4:	e037883a 	mov	sp,fp
  80e5b8:	dfc00117 	ldw	ra,4(sp)
  80e5bc:	df000017 	ldw	fp,0(sp)
  80e5c0:	dec00204 	addi	sp,sp,8
  80e5c4:	f800283a 	ret

0080e5c8 <altera_avalon_lcd_16207_write>:

/* --------------------------------------------------------------------- */

int altera_avalon_lcd_16207_write(altera_avalon_lcd_16207_state* sp, 
  const char* ptr, int len, int flags)
{
  80e5c8:	defff304 	addi	sp,sp,-52
  80e5cc:	dfc00c15 	stw	ra,48(sp)
  80e5d0:	df000b15 	stw	fp,44(sp)
  80e5d4:	df000b04 	addi	fp,sp,44
  80e5d8:	e13ffc15 	stw	r4,-16(fp)
  80e5dc:	e17ffd15 	stw	r5,-12(fp)
  80e5e0:	e1bffe15 	stw	r6,-8(fp)
  80e5e4:	e1ffff15 	stw	r7,-4(fp)
  const char* end = ptr + len;
  80e5e8:	e0bffe17 	ldw	r2,-8(fp)
  80e5ec:	e0fffd17 	ldw	r3,-12(fp)
  80e5f0:	1885883a 	add	r2,r3,r2
  80e5f4:	e0bff815 	stw	r2,-32(fp)

  ALT_SEM_PEND (sp->write_lock, 0);

  /* Tell the routine which is called off the timer interrupt that the
   * foreground routines are active so it must not repaint the display. */
  sp->active = 1;
  80e5f8:	e0bffc17 	ldw	r2,-16(fp)
  80e5fc:	00c00044 	movi	r3,1
  80e600:	10c009c5 	stb	r3,39(r2)

  for ( ; ptr < end ; ptr++)
  80e604:	00009906 	br	80e86c <altera_avalon_lcd_16207_write+0x2a4>
  {
    char c = *ptr;
  80e608:	e0bffd17 	ldw	r2,-12(fp)
  80e60c:	10800003 	ldbu	r2,0(r2)
  80e610:	e0bff905 	stb	r2,-28(fp)

    if (sp->esccount >= 0)
  80e614:	e0bffc17 	ldw	r2,-16(fp)
  80e618:	10800903 	ldbu	r2,36(r2)
  80e61c:	10803fcc 	andi	r2,r2,255
  80e620:	1080201c 	xori	r2,r2,128
  80e624:	10bfe004 	addi	r2,r2,-128
  80e628:	10003716 	blt	r2,zero,80e708 <altera_avalon_lcd_16207_write+0x140>
    {
      unsigned int esccount = sp->esccount;
  80e62c:	e0bffc17 	ldw	r2,-16(fp)
  80e630:	10800903 	ldbu	r2,36(r2)
  80e634:	10803fcc 	andi	r2,r2,255
  80e638:	1080201c 	xori	r2,r2,128
  80e63c:	10bfe004 	addi	r2,r2,-128
  80e640:	e0bffa15 	stw	r2,-24(fp)

      /* Single character escape sequences can end with any character
       * Multi character escape sequences start with '[' and contain
       * digits and semicolons before terminating
       */
      if ((esccount == 0 && c != '[') ||
  80e644:	e0bffa17 	ldw	r2,-24(fp)
  80e648:	1000031e 	bne	r2,zero,80e658 <altera_avalon_lcd_16207_write+0x90>
  80e64c:	e0bff907 	ldb	r2,-28(fp)
  80e650:	108016d8 	cmpnei	r2,r2,91
  80e654:	10000d1e 	bne	r2,zero,80e68c <altera_avalon_lcd_16207_write+0xc4>
  80e658:	e0bffa17 	ldw	r2,-24(fp)
  80e65c:	10001826 	beq	r2,zero,80e6c0 <altera_avalon_lcd_16207_write+0xf8>
          (esccount > 0 && !isdigit(c) && c != ';'))
  80e660:	d0e01017 	ldw	r3,-32704(gp)
  80e664:	e0bff907 	ldb	r2,-28(fp)
  80e668:	10800044 	addi	r2,r2,1
  80e66c:	1885883a 	add	r2,r3,r2
  80e670:	10800003 	ldbu	r2,0(r2)
  80e674:	10803fcc 	andi	r2,r2,255
  80e678:	1080010c 	andi	r2,r2,4
  80e67c:	1000101e 	bne	r2,zero,80e6c0 <altera_avalon_lcd_16207_write+0xf8>
  80e680:	e0bff907 	ldb	r2,-28(fp)
  80e684:	10800ee0 	cmpeqi	r2,r2,59
  80e688:	10000d1e 	bne	r2,zero,80e6c0 <altera_avalon_lcd_16207_write+0xf8>
      {
        sp->escape[esccount] = 0;
  80e68c:	e0fffc17 	ldw	r3,-16(fp)
  80e690:	e0bffa17 	ldw	r2,-24(fp)
  80e694:	1885883a 	add	r2,r3,r2
  80e698:	10800a04 	addi	r2,r2,40
  80e69c:	10000005 	stb	zero,0(r2)

        lcd_handle_escape(sp, c);
  80e6a0:	e0bff907 	ldb	r2,-28(fp)
  80e6a4:	100b883a 	mov	r5,r2
  80e6a8:	e13ffc17 	ldw	r4,-16(fp)
  80e6ac:	080e31c0 	call	80e31c <lcd_handle_escape>

        sp->esccount = -1;
  80e6b0:	e0bffc17 	ldw	r2,-16(fp)
  80e6b4:	00ffffc4 	movi	r3,-1
  80e6b8:	10c00905 	stb	r3,36(r2)
  80e6bc:	00006806 	br	80e860 <altera_avalon_lcd_16207_write+0x298>
      }
      else if (sp->esccount < sizeof(sp->escape)-1)
  80e6c0:	e0bffc17 	ldw	r2,-16(fp)
  80e6c4:	10800903 	ldbu	r2,36(r2)
  80e6c8:	10803fcc 	andi	r2,r2,255
  80e6cc:	108001e8 	cmpgeui	r2,r2,7
  80e6d0:	1000631e 	bne	r2,zero,80e860 <altera_avalon_lcd_16207_write+0x298>
      {
        sp->escape[esccount] = c;
  80e6d4:	e0fffc17 	ldw	r3,-16(fp)
  80e6d8:	e0bffa17 	ldw	r2,-24(fp)
  80e6dc:	1885883a 	add	r2,r3,r2
  80e6e0:	10800a04 	addi	r2,r2,40
  80e6e4:	e0fff903 	ldbu	r3,-28(fp)
  80e6e8:	10c00005 	stb	r3,0(r2)
        sp->esccount++;
  80e6ec:	e0bffc17 	ldw	r2,-16(fp)
  80e6f0:	10800903 	ldbu	r2,36(r2)
  80e6f4:	10800044 	addi	r2,r2,1
  80e6f8:	1007883a 	mov	r3,r2
  80e6fc:	e0bffc17 	ldw	r2,-16(fp)
  80e700:	10c00905 	stb	r3,36(r2)
  80e704:	00005606 	br	80e860 <altera_avalon_lcd_16207_write+0x298>
      }
    }
    else if (c == 27) /* ESC */
  80e708:	e0bff907 	ldb	r2,-28(fp)
  80e70c:	108006d8 	cmpnei	r2,r2,27
  80e710:	1000031e 	bne	r2,zero,80e720 <altera_avalon_lcd_16207_write+0x158>
    {
      sp->esccount = 0;
  80e714:	e0bffc17 	ldw	r2,-16(fp)
  80e718:	10000905 	stb	zero,36(r2)
  80e71c:	00005006 	br	80e860 <altera_avalon_lcd_16207_write+0x298>
    }
    else if (c == '\r')
  80e720:	e0bff907 	ldb	r2,-28(fp)
  80e724:	10800358 	cmpnei	r2,r2,13
  80e728:	1000031e 	bne	r2,zero,80e738 <altera_avalon_lcd_16207_write+0x170>
    {
      sp->x = 0;
  80e72c:	e0bffc17 	ldw	r2,-16(fp)
  80e730:	10000845 	stb	zero,33(r2)
  80e734:	00004a06 	br	80e860 <altera_avalon_lcd_16207_write+0x298>
    }
    else if (c == '\n')
  80e738:	e0bff907 	ldb	r2,-28(fp)
  80e73c:	10800298 	cmpnei	r2,r2,10
  80e740:	1000101e 	bne	r2,zero,80e784 <altera_avalon_lcd_16207_write+0x1bc>
    {
      sp->x = 0;
  80e744:	e0bffc17 	ldw	r2,-16(fp)
  80e748:	10000845 	stb	zero,33(r2)
      sp->y++;
  80e74c:	e0bffc17 	ldw	r2,-16(fp)
  80e750:	10800883 	ldbu	r2,34(r2)
  80e754:	10800044 	addi	r2,r2,1
  80e758:	1007883a 	mov	r3,r2
  80e75c:	e0bffc17 	ldw	r2,-16(fp)
  80e760:	10c00885 	stb	r3,34(r2)

      /* Let the cursor sit at X=0, Y=HEIGHT without scrolling so the user
       * can print two lines of data without losing one.
       */
      if (sp->y > ALT_LCD_HEIGHT)
  80e764:	e0bffc17 	ldw	r2,-16(fp)
  80e768:	10800883 	ldbu	r2,34(r2)
  80e76c:	10803fcc 	andi	r2,r2,255
  80e770:	108000f0 	cmpltui	r2,r2,3
  80e774:	10003a1e 	bne	r2,zero,80e860 <altera_avalon_lcd_16207_write+0x298>
        lcd_scroll_up(sp);
  80e778:	e13ffc17 	ldw	r4,-16(fp)
  80e77c:	080e2500 	call	80e250 <lcd_scroll_up>
  80e780:	00003706 	br	80e860 <altera_avalon_lcd_16207_write+0x298>
    }
    else if (c == '\b')
  80e784:	e0bff907 	ldb	r2,-28(fp)
  80e788:	10800218 	cmpnei	r2,r2,8
  80e78c:	10000b1e 	bne	r2,zero,80e7bc <altera_avalon_lcd_16207_write+0x1f4>
    {
      if (sp->x > 0)
  80e790:	e0bffc17 	ldw	r2,-16(fp)
  80e794:	10800843 	ldbu	r2,33(r2)
  80e798:	10803fcc 	andi	r2,r2,255
  80e79c:	10003026 	beq	r2,zero,80e860 <altera_avalon_lcd_16207_write+0x298>
        sp->x--;
  80e7a0:	e0bffc17 	ldw	r2,-16(fp)
  80e7a4:	10800843 	ldbu	r2,33(r2)
  80e7a8:	10bfffc4 	addi	r2,r2,-1
  80e7ac:	1007883a 	mov	r3,r2
  80e7b0:	e0bffc17 	ldw	r2,-16(fp)
  80e7b4:	10c00845 	stb	r3,33(r2)
  80e7b8:	00002906 	br	80e860 <altera_avalon_lcd_16207_write+0x298>
    }
    else if (isprint(c))
  80e7bc:	d0e01017 	ldw	r3,-32704(gp)
  80e7c0:	e0bff907 	ldb	r2,-28(fp)
  80e7c4:	10800044 	addi	r2,r2,1
  80e7c8:	1885883a 	add	r2,r3,r2
  80e7cc:	10800003 	ldbu	r2,0(r2)
  80e7d0:	10803fcc 	andi	r2,r2,255
  80e7d4:	1080201c 	xori	r2,r2,128
  80e7d8:	10bfe004 	addi	r2,r2,-128
  80e7dc:	108025cc 	andi	r2,r2,151
  80e7e0:	10001f26 	beq	r2,zero,80e860 <altera_avalon_lcd_16207_write+0x298>
    {
      /* If we didn't scroll on the last linefeed then we might need to do
       * it now. */
      if (sp->y >= ALT_LCD_HEIGHT)
  80e7e4:	e0bffc17 	ldw	r2,-16(fp)
  80e7e8:	10800883 	ldbu	r2,34(r2)
  80e7ec:	10803fcc 	andi	r2,r2,255
  80e7f0:	108000b0 	cmpltui	r2,r2,2
  80e7f4:	1000021e 	bne	r2,zero,80e800 <altera_avalon_lcd_16207_write+0x238>
        lcd_scroll_up(sp);
  80e7f8:	e13ffc17 	ldw	r4,-16(fp)
  80e7fc:	080e2500 	call	80e250 <lcd_scroll_up>

      if (sp->x < ALT_LCD_VIRTUAL_WIDTH)
  80e800:	e0bffc17 	ldw	r2,-16(fp)
  80e804:	10800843 	ldbu	r2,33(r2)
  80e808:	10803fcc 	andi	r2,r2,255
  80e80c:	10801428 	cmpgeui	r2,r2,80
  80e810:	10000d1e 	bne	r2,zero,80e848 <altera_avalon_lcd_16207_write+0x280>
        sp->line[sp->y].data[sp->x] = c;
  80e814:	e0bffc17 	ldw	r2,-16(fp)
  80e818:	10800883 	ldbu	r2,34(r2)
  80e81c:	10c03fcc 	andi	r3,r2,255
  80e820:	e0bffc17 	ldw	r2,-16(fp)
  80e824:	10800843 	ldbu	r2,33(r2)
  80e828:	10803fcc 	andi	r2,r2,255
  80e82c:	e13ffc17 	ldw	r4,-16(fp)
  80e830:	18c018e4 	muli	r3,r3,99
  80e834:	20c7883a 	add	r3,r4,r3
  80e838:	1885883a 	add	r2,r3,r2
  80e83c:	10801004 	addi	r2,r2,64
  80e840:	e0fff903 	ldbu	r3,-28(fp)
  80e844:	10c00005 	stb	r3,0(r2)

      sp->x++;
  80e848:	e0bffc17 	ldw	r2,-16(fp)
  80e84c:	10800843 	ldbu	r2,33(r2)
  80e850:	10800044 	addi	r2,r2,1
  80e854:	1007883a 	mov	r3,r2
  80e858:	e0bffc17 	ldw	r2,-16(fp)
  80e85c:	10c00845 	stb	r3,33(r2)

  /* Tell the routine which is called off the timer interrupt that the
   * foreground routines are active so it must not repaint the display. */
  sp->active = 1;

  for ( ; ptr < end ; ptr++)
  80e860:	e0bffd17 	ldw	r2,-12(fp)
  80e864:	10800044 	addi	r2,r2,1
  80e868:	e0bffd15 	stw	r2,-12(fp)
  80e86c:	e0fffd17 	ldw	r3,-12(fp)
  80e870:	e0bff817 	ldw	r2,-32(fp)
  80e874:	18bf6436 	bltu	r3,r2,80e608 <__alt_mem_onchip_mem+0xff806608>
      sp->x++;
    }
  }

  /* Recalculate the scrolling parameters */
  widthmax = ALT_LCD_WIDTH;
  80e878:	00800404 	movi	r2,16
  80e87c:	e0bff615 	stw	r2,-40(fp)
  for (y = 0 ; y < ALT_LCD_HEIGHT ; y++)
  80e880:	e03ff515 	stw	zero,-44(fp)
  80e884:	00003706 	br	80e964 <altera_avalon_lcd_16207_write+0x39c>
  {
    int width;
    for (width = ALT_LCD_VIRTUAL_WIDTH ; width > 0 ; width--)
  80e888:	00801404 	movi	r2,80
  80e88c:	e0bff715 	stw	r2,-36(fp)
  80e890:	00001106 	br	80e8d8 <altera_avalon_lcd_16207_write+0x310>
      if (sp->line[y].data[width-1] != ' ')
  80e894:	e0bff717 	ldw	r2,-36(fp)
  80e898:	10bfffc4 	addi	r2,r2,-1
  80e89c:	e13ffc17 	ldw	r4,-16(fp)
  80e8a0:	e0fff517 	ldw	r3,-44(fp)
  80e8a4:	18c018e4 	muli	r3,r3,99
  80e8a8:	20c7883a 	add	r3,r4,r3
  80e8ac:	1885883a 	add	r2,r3,r2
  80e8b0:	10801004 	addi	r2,r2,64
  80e8b4:	10800003 	ldbu	r2,0(r2)
  80e8b8:	10803fcc 	andi	r2,r2,255
  80e8bc:	1080201c 	xori	r2,r2,128
  80e8c0:	10bfe004 	addi	r2,r2,-128
  80e8c4:	10800820 	cmpeqi	r2,r2,32
  80e8c8:	10000626 	beq	r2,zero,80e8e4 <altera_avalon_lcd_16207_write+0x31c>
  /* Recalculate the scrolling parameters */
  widthmax = ALT_LCD_WIDTH;
  for (y = 0 ; y < ALT_LCD_HEIGHT ; y++)
  {
    int width;
    for (width = ALT_LCD_VIRTUAL_WIDTH ; width > 0 ; width--)
  80e8cc:	e0bff717 	ldw	r2,-36(fp)
  80e8d0:	10bfffc4 	addi	r2,r2,-1
  80e8d4:	e0bff715 	stw	r2,-36(fp)
  80e8d8:	e0bff717 	ldw	r2,-36(fp)
  80e8dc:	00bfed16 	blt	zero,r2,80e894 <__alt_mem_onchip_mem+0xff806894>
  80e8e0:	00000106 	br	80e8e8 <altera_avalon_lcd_16207_write+0x320>
      if (sp->line[y].data[width-1] != ' ')
        break;
  80e8e4:	0001883a 	nop

    /* The minimum width is the size of the LCD panel.  If the real width
     * is long enough to require scrolling then add an extra space so the
     * end of the message doesn't run into the beginning of it.
     */
    if (width <= ALT_LCD_WIDTH)
  80e8e8:	e0bff717 	ldw	r2,-36(fp)
  80e8ec:	10800448 	cmpgei	r2,r2,17
  80e8f0:	1000031e 	bne	r2,zero,80e900 <altera_avalon_lcd_16207_write+0x338>
      width = ALT_LCD_WIDTH;
  80e8f4:	00800404 	movi	r2,16
  80e8f8:	e0bff715 	stw	r2,-36(fp)
  80e8fc:	00000306 	br	80e90c <altera_avalon_lcd_16207_write+0x344>
    else
      width++;
  80e900:	e0bff717 	ldw	r2,-36(fp)
  80e904:	10800044 	addi	r2,r2,1
  80e908:	e0bff715 	stw	r2,-36(fp)

    sp->line[y].width = width;
  80e90c:	e0bff717 	ldw	r2,-36(fp)
  80e910:	1009883a 	mov	r4,r2
  80e914:	e0fffc17 	ldw	r3,-16(fp)
  80e918:	e0bff517 	ldw	r2,-44(fp)
  80e91c:	108018e4 	muli	r2,r2,99
  80e920:	1885883a 	add	r2,r3,r2
  80e924:	10802444 	addi	r2,r2,145
  80e928:	11000005 	stb	r4,0(r2)
    if (widthmax < width)
  80e92c:	e0fff617 	ldw	r3,-40(fp)
  80e930:	e0bff717 	ldw	r2,-36(fp)
  80e934:	1880020e 	bge	r3,r2,80e940 <altera_avalon_lcd_16207_write+0x378>
      widthmax = width;
  80e938:	e0bff717 	ldw	r2,-36(fp)
  80e93c:	e0bff615 	stw	r2,-40(fp)
    sp->line[y].speed = 0; /* By default lines don't scroll */
  80e940:	e0fffc17 	ldw	r3,-16(fp)
  80e944:	e0bff517 	ldw	r2,-44(fp)
  80e948:	108018e4 	muli	r2,r2,99
  80e94c:	1885883a 	add	r2,r3,r2
  80e950:	10802484 	addi	r2,r2,146
  80e954:	10000005 	stb	zero,0(r2)
    }
  }

  /* Recalculate the scrolling parameters */
  widthmax = ALT_LCD_WIDTH;
  for (y = 0 ; y < ALT_LCD_HEIGHT ; y++)
  80e958:	e0bff517 	ldw	r2,-44(fp)
  80e95c:	10800044 	addi	r2,r2,1
  80e960:	e0bff515 	stw	r2,-44(fp)
  80e964:	e0bff517 	ldw	r2,-44(fp)
  80e968:	10800090 	cmplti	r2,r2,2
  80e96c:	103fc61e 	bne	r2,zero,80e888 <__alt_mem_onchip_mem+0xff806888>
    if (widthmax < width)
      widthmax = width;
    sp->line[y].speed = 0; /* By default lines don't scroll */
  }

  if (widthmax <= ALT_LCD_WIDTH)
  80e970:	e0bff617 	ldw	r2,-40(fp)
  80e974:	10800448 	cmpgei	r2,r2,17
  80e978:	1000031e 	bne	r2,zero,80e988 <altera_avalon_lcd_16207_write+0x3c0>
    sp->scrollmax = 0;
  80e97c:	e0bffc17 	ldw	r2,-16(fp)
  80e980:	10000985 	stb	zero,38(r2)
  80e984:	00002e06 	br	80ea40 <altera_avalon_lcd_16207_write+0x478>
  else
  {
    widthmax *= 2;
  80e988:	e0bff617 	ldw	r2,-40(fp)
  80e98c:	1085883a 	add	r2,r2,r2
  80e990:	e0bff615 	stw	r2,-40(fp)
    sp->scrollmax = widthmax;
  80e994:	e0bff617 	ldw	r2,-40(fp)
  80e998:	1007883a 	mov	r3,r2
  80e99c:	e0bffc17 	ldw	r2,-16(fp)
  80e9a0:	10c00985 	stb	r3,38(r2)

    /* Now calculate how fast each of the other lines should go */
    for (y = 0 ; y < ALT_LCD_HEIGHT ; y++)
  80e9a4:	e03ff515 	stw	zero,-44(fp)
  80e9a8:	00002206 	br	80ea34 <altera_avalon_lcd_16207_write+0x46c>
      if (sp->line[y].width > ALT_LCD_WIDTH)
  80e9ac:	e0fffc17 	ldw	r3,-16(fp)
  80e9b0:	e0bff517 	ldw	r2,-44(fp)
  80e9b4:	108018e4 	muli	r2,r2,99
  80e9b8:	1885883a 	add	r2,r3,r2
  80e9bc:	10802444 	addi	r2,r2,145
  80e9c0:	10800003 	ldbu	r2,0(r2)
  80e9c4:	10803fcc 	andi	r2,r2,255
  80e9c8:	1080201c 	xori	r2,r2,128
  80e9cc:	10bfe004 	addi	r2,r2,-128
  80e9d0:	10800450 	cmplti	r2,r2,17
  80e9d4:	1000141e 	bne	r2,zero,80ea28 <altera_avalon_lcd_16207_write+0x460>
         */
#if 1
        /* This option makes all the lines scroll round at different speeds
         * which are chosen so that all the scrolls finish at the same time.
         */
        sp->line[y].speed = 256 * sp->line[y].width / widthmax;
  80e9d8:	e0fffc17 	ldw	r3,-16(fp)
  80e9dc:	e0bff517 	ldw	r2,-44(fp)
  80e9e0:	108018e4 	muli	r2,r2,99
  80e9e4:	1885883a 	add	r2,r3,r2
  80e9e8:	10802444 	addi	r2,r2,145
  80e9ec:	10800003 	ldbu	r2,0(r2)
  80e9f0:	10803fcc 	andi	r2,r2,255
  80e9f4:	1080201c 	xori	r2,r2,128
  80e9f8:	10bfe004 	addi	r2,r2,-128
  80e9fc:	1004923a 	slli	r2,r2,8
  80ea00:	e17ff617 	ldw	r5,-40(fp)
  80ea04:	1009883a 	mov	r4,r2
  80ea08:	080c27c0 	call	80c27c <__divsi3>
  80ea0c:	1009883a 	mov	r4,r2
  80ea10:	e0fffc17 	ldw	r3,-16(fp)
  80ea14:	e0bff517 	ldw	r2,-44(fp)
  80ea18:	108018e4 	muli	r2,r2,99
  80ea1c:	1885883a 	add	r2,r3,r2
  80ea20:	10802484 	addi	r2,r2,146
  80ea24:	11000005 	stb	r4,0(r2)
  {
    widthmax *= 2;
    sp->scrollmax = widthmax;

    /* Now calculate how fast each of the other lines should go */
    for (y = 0 ; y < ALT_LCD_HEIGHT ; y++)
  80ea28:	e0bff517 	ldw	r2,-44(fp)
  80ea2c:	10800044 	addi	r2,r2,1
  80ea30:	e0bff515 	stw	r2,-44(fp)
  80ea34:	e0bff517 	ldw	r2,-44(fp)
  80ea38:	10800090 	cmplti	r2,r2,2
  80ea3c:	103fdb1e 	bne	r2,zero,80e9ac <__alt_mem_onchip_mem+0xff8069ac>
   * (because active was set when the timer interrupt occurred).  If there
   * has been a missed repaint then paint again.  And again.  etc.
   */
  for ( ; ; )
  {
    int old_scrollpos = sp->scrollpos;
  80ea40:	e0bffc17 	ldw	r2,-16(fp)
  80ea44:	10800943 	ldbu	r2,37(r2)
  80ea48:	10803fcc 	andi	r2,r2,255
  80ea4c:	e0bffb15 	stw	r2,-20(fp)

    lcd_repaint_screen(sp);
  80ea50:	e13ffc17 	ldw	r4,-16(fp)
  80ea54:	080e0640 	call	80e064 <lcd_repaint_screen>

    /* Let the timer routines repaint the display again */
    sp->active = 0;
  80ea58:	e0bffc17 	ldw	r2,-16(fp)
  80ea5c:	100009c5 	stb	zero,39(r2)

    /* Have the timer routines tried to scroll while we were painting?
     * If not then we can exit */
    if (sp->scrollpos == old_scrollpos)
  80ea60:	e0bffc17 	ldw	r2,-16(fp)
  80ea64:	10800943 	ldbu	r2,37(r2)
  80ea68:	10c03fcc 	andi	r3,r2,255
  80ea6c:	e0bffb17 	ldw	r2,-20(fp)
  80ea70:	18800426 	beq	r3,r2,80ea84 <altera_avalon_lcd_16207_write+0x4bc>
      break;

    /* We need to repaint again since the display scrolled while we were
     * painting last time */
    sp->active = 1;
  80ea74:	e0bffc17 	ldw	r2,-16(fp)
  80ea78:	00c00044 	movi	r3,1
  80ea7c:	10c009c5 	stb	r3,39(r2)
  }
  80ea80:	003fef06 	br	80ea40 <__alt_mem_onchip_mem+0xff806a40>
    sp->active = 0;

    /* Have the timer routines tried to scroll while we were painting?
     * If not then we can exit */
    if (sp->scrollpos == old_scrollpos)
      break;
  80ea84:	0001883a 	nop
   * semaphore so that other threads can access the buffer.
   */

  ALT_SEM_POST (sp->write_lock);

  return len;
  80ea88:	e0bffe17 	ldw	r2,-8(fp)
}
  80ea8c:	e037883a 	mov	sp,fp
  80ea90:	dfc00117 	ldw	ra,4(sp)
  80ea94:	df000017 	ldw	fp,0(sp)
  80ea98:	dec00204 	addi	sp,sp,8
  80ea9c:	f800283a 	ret

0080eaa0 <alt_lcd_16207_timeout>:
/*
 * Timeout routine is called every second
 */

static alt_u32 alt_lcd_16207_timeout(void* context) 
{
  80eaa0:	defffc04 	addi	sp,sp,-16
  80eaa4:	dfc00315 	stw	ra,12(sp)
  80eaa8:	df000215 	stw	fp,8(sp)
  80eaac:	df000204 	addi	fp,sp,8
  80eab0:	e13fff15 	stw	r4,-4(fp)
  altera_avalon_lcd_16207_state* sp = (altera_avalon_lcd_16207_state*)context;
  80eab4:	e0bfff17 	ldw	r2,-4(fp)
  80eab8:	e0bffe15 	stw	r2,-8(fp)

  /* Update the scrolling position */
  if (sp->scrollpos + 1 >= sp->scrollmax)
  80eabc:	e0bffe17 	ldw	r2,-8(fp)
  80eac0:	10800943 	ldbu	r2,37(r2)
  80eac4:	10803fcc 	andi	r2,r2,255
  80eac8:	10c00044 	addi	r3,r2,1
  80eacc:	e0bffe17 	ldw	r2,-8(fp)
  80ead0:	10800983 	ldbu	r2,38(r2)
  80ead4:	10803fcc 	andi	r2,r2,255
  80ead8:	18800316 	blt	r3,r2,80eae8 <alt_lcd_16207_timeout+0x48>
    sp->scrollpos = 0;
  80eadc:	e0bffe17 	ldw	r2,-8(fp)
  80eae0:	10000945 	stb	zero,37(r2)
  80eae4:	00000606 	br	80eb00 <alt_lcd_16207_timeout+0x60>
  else
    sp->scrollpos = sp->scrollpos + 1;
  80eae8:	e0bffe17 	ldw	r2,-8(fp)
  80eaec:	10800943 	ldbu	r2,37(r2)
  80eaf0:	10800044 	addi	r2,r2,1
  80eaf4:	1007883a 	mov	r3,r2
  80eaf8:	e0bffe17 	ldw	r2,-8(fp)
  80eafc:	10c00945 	stb	r3,37(r2)

  /* Repaint the panel unless the foreground will do it again soon */
  if (sp->scrollmax > 0 && !sp->active)
  80eb00:	e0bffe17 	ldw	r2,-8(fp)
  80eb04:	10800983 	ldbu	r2,38(r2)
  80eb08:	10803fcc 	andi	r2,r2,255
  80eb0c:	10000826 	beq	r2,zero,80eb30 <alt_lcd_16207_timeout+0x90>
  80eb10:	e0bffe17 	ldw	r2,-8(fp)
  80eb14:	108009c3 	ldbu	r2,39(r2)
  80eb18:	10803fcc 	andi	r2,r2,255
  80eb1c:	1080201c 	xori	r2,r2,128
  80eb20:	10bfe004 	addi	r2,r2,-128
  80eb24:	1000021e 	bne	r2,zero,80eb30 <alt_lcd_16207_timeout+0x90>
    lcd_repaint_screen(sp);
  80eb28:	e13ffe17 	ldw	r4,-8(fp)
  80eb2c:	080e0640 	call	80e064 <lcd_repaint_screen>

  return sp->period;
  80eb30:	e0bffe17 	ldw	r2,-8(fp)
  80eb34:	10800717 	ldw	r2,28(r2)
}
  80eb38:	e037883a 	mov	sp,fp
  80eb3c:	dfc00117 	ldw	ra,4(sp)
  80eb40:	df000017 	ldw	fp,0(sp)
  80eb44:	dec00204 	addi	sp,sp,8
  80eb48:	f800283a 	ret

0080eb4c <altera_avalon_lcd_16207_init>:

/*
 * Called at boot time to initialise the LCD driver
 */
void altera_avalon_lcd_16207_init(altera_avalon_lcd_16207_state* sp)
{
  80eb4c:	defffc04 	addi	sp,sp,-16
  80eb50:	dfc00315 	stw	ra,12(sp)
  80eb54:	df000215 	stw	fp,8(sp)
  80eb58:	df000204 	addi	fp,sp,8
  80eb5c:	e13fff15 	stw	r4,-4(fp)
  unsigned int base = sp->base;
  80eb60:	e0bfff17 	ldw	r2,-4(fp)
  80eb64:	10800017 	ldw	r2,0(r2)
  80eb68:	e0bffe15 	stw	r2,-8(fp)

  /* Mark the device as functional */
  sp->broken = 0;
  80eb6c:	e0bfff17 	ldw	r2,-4(fp)
  80eb70:	10000805 	stb	zero,32(r2)
   * the BUSY bit in the status register doesn't work until the display
   * has been reset three times.
   */

  /* Wait for 15 ms then reset */
  usleep(15000);
  80eb74:	010ea604 	movi	r4,15000
  80eb78:	080fee40 	call	80fee4 <usleep>
  IOWR_ALTERA_AVALON_LCD_16207_COMMAND(base, LCD_CMD_FUNCTION_SET | LCD_CMD_8BIT);
  80eb7c:	e0bffe17 	ldw	r2,-8(fp)
  80eb80:	00c00c04 	movi	r3,48
  80eb84:	10c00035 	stwio	r3,0(r2)

  /* Wait for another 4.1ms and reset again */
  usleep(4100);  
  80eb88:	01040104 	movi	r4,4100
  80eb8c:	080fee40 	call	80fee4 <usleep>
  IOWR_ALTERA_AVALON_LCD_16207_COMMAND(base, LCD_CMD_FUNCTION_SET | LCD_CMD_8BIT);
  80eb90:	e0bffe17 	ldw	r2,-8(fp)
  80eb94:	00c00c04 	movi	r3,48
  80eb98:	10c00035 	stwio	r3,0(r2)

  /* Wait a further 1 ms and reset a third time */
  usleep(1000);
  80eb9c:	0100fa04 	movi	r4,1000
  80eba0:	080fee40 	call	80fee4 <usleep>
  IOWR_ALTERA_AVALON_LCD_16207_COMMAND(base, LCD_CMD_FUNCTION_SET | LCD_CMD_8BIT);
  80eba4:	e0bffe17 	ldw	r2,-8(fp)
  80eba8:	00c00c04 	movi	r3,48
  80ebac:	10c00035 	stwio	r3,0(r2)

  /* Setup interface parameters: 8 bit bus, 2 rows, 5x7 font */
  lcd_write_command(sp, LCD_CMD_FUNCTION_SET | LCD_CMD_8BIT | LCD_CMD_TWO_LINE);
  80ebb0:	01400e04 	movi	r5,56
  80ebb4:	e13fff17 	ldw	r4,-4(fp)
  80ebb8:	080de040 	call	80de04 <lcd_write_command>
  
  /* Turn display off */
  lcd_write_command(sp, LCD_CMD_ONOFF);
  80ebbc:	01400204 	movi	r5,8
  80ebc0:	e13fff17 	ldw	r4,-4(fp)
  80ebc4:	080de040 	call	80de04 <lcd_write_command>

  /* Clear display */
  lcd_clear_screen(sp);
  80ebc8:	e13fff17 	ldw	r4,-4(fp)
  80ebcc:	080df940 	call	80df94 <lcd_clear_screen>
  
  /* Set mode: increment after writing, don't shift display */
  lcd_write_command(sp, LCD_CMD_MODES | LCD_CMD_MODE_INC);
  80ebd0:	01400184 	movi	r5,6
  80ebd4:	e13fff17 	ldw	r4,-4(fp)
  80ebd8:	080de040 	call	80de04 <lcd_write_command>

  /* Turn display on */
  lcd_write_command(sp, LCD_CMD_ONOFF | LCD_CMD_ENABLE_DISP);
  80ebdc:	01400304 	movi	r5,12
  80ebe0:	e13fff17 	ldw	r4,-4(fp)
  80ebe4:	080de040 	call	80de04 <lcd_write_command>

  sp->esccount = -1;
  80ebe8:	e0bfff17 	ldw	r2,-4(fp)
  80ebec:	00ffffc4 	movi	r3,-1
  80ebf0:	10c00905 	stb	r3,36(r2)
  memset(sp->escape, 0, sizeof(sp->escape));
  80ebf4:	e0bfff17 	ldw	r2,-4(fp)
  80ebf8:	10800a04 	addi	r2,r2,40
  80ebfc:	01800204 	movi	r6,8
  80ec00:	000b883a 	mov	r5,zero
  80ec04:	1009883a 	mov	r4,r2
  80ec08:	0809d900 	call	809d90 <memset>

  sp->scrollpos = 0;
  80ec0c:	e0bfff17 	ldw	r2,-4(fp)
  80ec10:	10000945 	stb	zero,37(r2)
  sp->scrollmax = 0;
  80ec14:	e0bfff17 	ldw	r2,-4(fp)
  80ec18:	10000985 	stb	zero,38(r2)
  sp->active = 0;
  80ec1c:	e0bfff17 	ldw	r2,-4(fp)
  80ec20:	100009c5 	stb	zero,39(r2)
  80ec24:	d0a73317 	ldw	r2,-25396(gp)

  sp->period = alt_ticks_per_second() / 10; /* Call every 100ms */
  80ec28:	01400284 	movi	r5,10
  80ec2c:	1009883a 	mov	r4,r2
  80ec30:	080c3740 	call	80c374 <__udivsi3>
  80ec34:	1007883a 	mov	r3,r2
  80ec38:	e0bfff17 	ldw	r2,-4(fp)
  80ec3c:	10c00715 	stw	r3,28(r2)

  alt_alarm_start(&sp->alarm, sp->period, &alt_lcd_16207_timeout, sp);
  80ec40:	e0bfff17 	ldw	r2,-4(fp)
  80ec44:	10c00104 	addi	r3,r2,4
  80ec48:	e0bfff17 	ldw	r2,-4(fp)
  80ec4c:	10800717 	ldw	r2,28(r2)
  80ec50:	e1ffff17 	ldw	r7,-4(fp)
  80ec54:	01802074 	movhi	r6,129
  80ec58:	31baa804 	addi	r6,r6,-5472
  80ec5c:	100b883a 	mov	r5,r2
  80ec60:	1809883a 	mov	r4,r3
  80ec64:	080c4300 	call	80c430 <alt_alarm_start>
}
  80ec68:	0001883a 	nop
  80ec6c:	e037883a 	mov	sp,fp
  80ec70:	dfc00117 	ldw	ra,4(sp)
  80ec74:	df000017 	ldw	fp,0(sp)
  80ec78:	dec00204 	addi	sp,sp,8
  80ec7c:	f800283a 	ret

0080ec80 <altera_avalon_lcd_16207_write_fd>:
extern int altera_avalon_lcd_16207_write(altera_avalon_lcd_16207_state* sp,
  const char* ptr, int count, int flags);

int 
altera_avalon_lcd_16207_write_fd(alt_fd* fd, const char* buffer, int space)
{
  80ec80:	defffa04 	addi	sp,sp,-24
  80ec84:	dfc00515 	stw	ra,20(sp)
  80ec88:	df000415 	stw	fp,16(sp)
  80ec8c:	df000404 	addi	fp,sp,16
  80ec90:	e13ffd15 	stw	r4,-12(fp)
  80ec94:	e17ffe15 	stw	r5,-8(fp)
  80ec98:	e1bfff15 	stw	r6,-4(fp)
    altera_avalon_lcd_16207_dev* dev = (altera_avalon_lcd_16207_dev*) fd->dev; 
  80ec9c:	e0bffd17 	ldw	r2,-12(fp)
  80eca0:	10800017 	ldw	r2,0(r2)
  80eca4:	e0bffc15 	stw	r2,-16(fp)

    return altera_avalon_lcd_16207_write(&dev->state, buffer, space,
  80eca8:	e0bffc17 	ldw	r2,-16(fp)
  80ecac:	10c00a04 	addi	r3,r2,40
  80ecb0:	e0bffd17 	ldw	r2,-12(fp)
  80ecb4:	10800217 	ldw	r2,8(r2)
  80ecb8:	100f883a 	mov	r7,r2
  80ecbc:	e1bfff17 	ldw	r6,-4(fp)
  80ecc0:	e17ffe17 	ldw	r5,-8(fp)
  80ecc4:	1809883a 	mov	r4,r3
  80ecc8:	080e5c80 	call	80e5c8 <altera_avalon_lcd_16207_write>
      fd->fd_flags);
}
  80eccc:	e037883a 	mov	sp,fp
  80ecd0:	dfc00117 	ldw	ra,4(sp)
  80ecd4:	df000017 	ldw	fp,0(sp)
  80ecd8:	dec00204 	addi	sp,sp,8
  80ecdc:	f800283a 	ret

0080ece0 <alt_avalon_timer_sc_irq>:
#ifdef ALT_ENHANCED_INTERRUPT_API_PRESENT
static void alt_avalon_timer_sc_irq (void* base)
#else
static void alt_avalon_timer_sc_irq (void* base, alt_u32 id)
#endif
{
  80ece0:	defffa04 	addi	sp,sp,-24
  80ece4:	dfc00515 	stw	ra,20(sp)
  80ece8:	df000415 	stw	fp,16(sp)
  80ecec:	df000404 	addi	fp,sp,16
  80ecf0:	e13fff15 	stw	r4,-4(fp)
  alt_irq_context cpu_sr;
  
  /* clear the interrupt */
  IOWR_ALTERA_AVALON_TIMER_STATUS (base, 0);
  80ecf4:	0007883a 	mov	r3,zero
  80ecf8:	e0bfff17 	ldw	r2,-4(fp)
  80ecfc:	10c00035 	stwio	r3,0(r2)
  /* 
   * Dummy read to ensure IRQ is negated before the ISR returns.
   * The control register is read because reading the status
   * register has side-effects per the register map documentation.
   */
  IORD_ALTERA_AVALON_TIMER_CONTROL (base);
  80ed00:	e0bfff17 	ldw	r2,-4(fp)
  80ed04:	10800104 	addi	r2,r2,4
  80ed08:	10800037 	ldwio	r2,0(r2)
static ALT_INLINE alt_irq_context ALT_ALWAYS_INLINE 
       alt_irq_disable_all (void)
{
  alt_irq_context context;

  NIOS2_READ_STATUS (context);
  80ed0c:	0005303a 	rdctl	r2,status
  80ed10:	e0bffd15 	stw	r2,-12(fp)

  NIOS2_WRITE_STATUS (context & ~NIOS2_STATUS_PIE_MSK);
  80ed14:	e0fffd17 	ldw	r3,-12(fp)
  80ed18:	00bfff84 	movi	r2,-2
  80ed1c:	1884703a 	and	r2,r3,r2
  80ed20:	1001703a 	wrctl	status,r2
  
  return context;
  80ed24:	e0bffd17 	ldw	r2,-12(fp)

  /* 
   * Notify the system of a clock tick. disable interrupts 
   * during this time to safely support ISR preemption
   */
  cpu_sr = alt_irq_disable_all();
  80ed28:	e0bffc15 	stw	r2,-16(fp)
  alt_tick ();
  80ed2c:	080d05c0 	call	80d05c <alt_tick>
  80ed30:	e0bffc17 	ldw	r2,-16(fp)
  80ed34:	e0bffe15 	stw	r2,-8(fp)
  status &= ~NIOS2_STATUS_PIE_MSK;
  status |= (context & NIOS2_STATUS_PIE_MSK);
  
  NIOS2_WRITE_STATUS (status);
#else
  NIOS2_WRITE_STATUS (context);
  80ed38:	e0bffe17 	ldw	r2,-8(fp)
  80ed3c:	1001703a 	wrctl	status,r2
  alt_irq_enable_all(cpu_sr);
}
  80ed40:	0001883a 	nop
  80ed44:	e037883a 	mov	sp,fp
  80ed48:	dfc00117 	ldw	ra,4(sp)
  80ed4c:	df000017 	ldw	fp,0(sp)
  80ed50:	dec00204 	addi	sp,sp,8
  80ed54:	f800283a 	ret

0080ed58 <alt_avalon_timer_sc_init>:
 * auto-generated alt_sys_init() function.
 */

void alt_avalon_timer_sc_init (void* base, alt_u32 irq_controller_id, 
                                alt_u32 irq, alt_u32 freq)
{
  80ed58:	defff804 	addi	sp,sp,-32
  80ed5c:	dfc00715 	stw	ra,28(sp)
  80ed60:	df000615 	stw	fp,24(sp)
  80ed64:	df000604 	addi	fp,sp,24
  80ed68:	e13ffc15 	stw	r4,-16(fp)
  80ed6c:	e17ffd15 	stw	r5,-12(fp)
  80ed70:	e1bffe15 	stw	r6,-8(fp)
  80ed74:	e1ffff15 	stw	r7,-4(fp)
  80ed78:	e0bfff17 	ldw	r2,-4(fp)
  80ed7c:	e0bffb15 	stw	r2,-20(fp)
 * in order to initialise the value of the clock frequency.
 */

static ALT_INLINE int ALT_ALWAYS_INLINE alt_sysclk_init (alt_u32 nticks)
{
  if (! _alt_tick_rate)
  80ed80:	d0a73317 	ldw	r2,-25396(gp)
  80ed84:	1000021e 	bne	r2,zero,80ed90 <alt_avalon_timer_sc_init+0x38>
  {
    _alt_tick_rate = nticks;
  80ed88:	e0bffb17 	ldw	r2,-20(fp)
  80ed8c:	d0a73315 	stw	r2,-25396(gp)
  
  alt_sysclk_init (freq);
  
  /* set to free running mode */
  
  IOWR_ALTERA_AVALON_TIMER_CONTROL (base, 
  80ed90:	e0bffc17 	ldw	r2,-16(fp)
  80ed94:	10800104 	addi	r2,r2,4
  80ed98:	00c001c4 	movi	r3,7
  80ed9c:	10c00035 	stwio	r3,0(r2)
            ALTERA_AVALON_TIMER_CONTROL_CONT_MSK |
            ALTERA_AVALON_TIMER_CONTROL_START_MSK);

  /* register the interrupt handler, and enable the interrupt */
#ifdef ALT_ENHANCED_INTERRUPT_API_PRESENT
  alt_ic_isr_register(irq_controller_id, irq, alt_avalon_timer_sc_irq, 
  80eda0:	d8000015 	stw	zero,0(sp)
  80eda4:	e1fffc17 	ldw	r7,-16(fp)
  80eda8:	01802074 	movhi	r6,129
  80edac:	31bb3804 	addi	r6,r6,-4896
  80edb0:	e17ffe17 	ldw	r5,-8(fp)
  80edb4:	e13ffd17 	ldw	r4,-12(fp)
  80edb8:	080fb040 	call	80fb04 <alt_ic_isr_register>
                      base, NULL);
#else
  alt_irq_register (irq, base, alt_avalon_timer_sc_irq);
#endif  
}
  80edbc:	0001883a 	nop
  80edc0:	e037883a 	mov	sp,fp
  80edc4:	dfc00117 	ldw	ra,4(sp)
  80edc8:	df000017 	ldw	fp,0(sp)
  80edcc:	dec00204 	addi	sp,sp,8
  80edd0:	f800283a 	ret

0080edd4 <altera_avalon_uart_read_fd>:
 *
 */

int 
altera_avalon_uart_read_fd(alt_fd* fd, char* buffer, int space)
{
  80edd4:	defffa04 	addi	sp,sp,-24
  80edd8:	dfc00515 	stw	ra,20(sp)
  80eddc:	df000415 	stw	fp,16(sp)
  80ede0:	df000404 	addi	fp,sp,16
  80ede4:	e13ffd15 	stw	r4,-12(fp)
  80ede8:	e17ffe15 	stw	r5,-8(fp)
  80edec:	e1bfff15 	stw	r6,-4(fp)
    altera_avalon_uart_dev* dev = (altera_avalon_uart_dev*) fd->dev; 
  80edf0:	e0bffd17 	ldw	r2,-12(fp)
  80edf4:	10800017 	ldw	r2,0(r2)
  80edf8:	e0bffc15 	stw	r2,-16(fp)

    return altera_avalon_uart_read(&dev->state, buffer, space,
  80edfc:	e0bffc17 	ldw	r2,-16(fp)
  80ee00:	10c00a04 	addi	r3,r2,40
  80ee04:	e0bffd17 	ldw	r2,-12(fp)
  80ee08:	10800217 	ldw	r2,8(r2)
  80ee0c:	100f883a 	mov	r7,r2
  80ee10:	e1bfff17 	ldw	r6,-4(fp)
  80ee14:	e17ffe17 	ldw	r5,-8(fp)
  80ee18:	1809883a 	mov	r4,r3
  80ee1c:	080f2e80 	call	80f2e8 <altera_avalon_uart_read>
      fd->fd_flags);
}
  80ee20:	e037883a 	mov	sp,fp
  80ee24:	dfc00117 	ldw	ra,4(sp)
  80ee28:	df000017 	ldw	fp,0(sp)
  80ee2c:	dec00204 	addi	sp,sp,8
  80ee30:	f800283a 	ret

0080ee34 <altera_avalon_uart_write_fd>:

int 
altera_avalon_uart_write_fd(alt_fd* fd, const char* buffer, int space)
{
  80ee34:	defffa04 	addi	sp,sp,-24
  80ee38:	dfc00515 	stw	ra,20(sp)
  80ee3c:	df000415 	stw	fp,16(sp)
  80ee40:	df000404 	addi	fp,sp,16
  80ee44:	e13ffd15 	stw	r4,-12(fp)
  80ee48:	e17ffe15 	stw	r5,-8(fp)
  80ee4c:	e1bfff15 	stw	r6,-4(fp)
    altera_avalon_uart_dev* dev = (altera_avalon_uart_dev*) fd->dev; 
  80ee50:	e0bffd17 	ldw	r2,-12(fp)
  80ee54:	10800017 	ldw	r2,0(r2)
  80ee58:	e0bffc15 	stw	r2,-16(fp)

    return altera_avalon_uart_write(&dev->state, buffer, space,
  80ee5c:	e0bffc17 	ldw	r2,-16(fp)
  80ee60:	10c00a04 	addi	r3,r2,40
  80ee64:	e0bffd17 	ldw	r2,-12(fp)
  80ee68:	10800217 	ldw	r2,8(r2)
  80ee6c:	100f883a 	mov	r7,r2
  80ee70:	e1bfff17 	ldw	r6,-4(fp)
  80ee74:	e17ffe17 	ldw	r5,-8(fp)
  80ee78:	1809883a 	mov	r4,r3
  80ee7c:	080f5000 	call	80f500 <altera_avalon_uart_write>
      fd->fd_flags);
}
  80ee80:	e037883a 	mov	sp,fp
  80ee84:	dfc00117 	ldw	ra,4(sp)
  80ee88:	df000017 	ldw	fp,0(sp)
  80ee8c:	dec00204 	addi	sp,sp,8
  80ee90:	f800283a 	ret

0080ee94 <altera_avalon_uart_close_fd>:

#endif /* ALTERA_AVALON_UART_USE_IOCTL */

int 
altera_avalon_uart_close_fd(alt_fd* fd)
{
  80ee94:	defffc04 	addi	sp,sp,-16
  80ee98:	dfc00315 	stw	ra,12(sp)
  80ee9c:	df000215 	stw	fp,8(sp)
  80eea0:	df000204 	addi	fp,sp,8
  80eea4:	e13fff15 	stw	r4,-4(fp)
    altera_avalon_uart_dev* dev = (altera_avalon_uart_dev*) fd->dev; 
  80eea8:	e0bfff17 	ldw	r2,-4(fp)
  80eeac:	10800017 	ldw	r2,0(r2)
  80eeb0:	e0bffe15 	stw	r2,-8(fp)

    return altera_avalon_uart_close(&dev->state, fd->fd_flags);
  80eeb4:	e0bffe17 	ldw	r2,-8(fp)
  80eeb8:	10c00a04 	addi	r3,r2,40
  80eebc:	e0bfff17 	ldw	r2,-4(fp)
  80eec0:	10800217 	ldw	r2,8(r2)
  80eec4:	100b883a 	mov	r5,r2
  80eec8:	1809883a 	mov	r4,r3
  80eecc:	080f2580 	call	80f258 <altera_avalon_uart_close>
}
  80eed0:	e037883a 	mov	sp,fp
  80eed4:	dfc00117 	ldw	ra,4(sp)
  80eed8:	df000017 	ldw	fp,0(sp)
  80eedc:	dec00204 	addi	sp,sp,8
  80eee0:	f800283a 	ret

0080eee4 <altera_avalon_uart_init>:
  alt_u32 status);

void 
altera_avalon_uart_init(altera_avalon_uart_state* sp, 
  alt_u32 irq_controller_id,  alt_u32 irq)
{
  80eee4:	defff804 	addi	sp,sp,-32
  80eee8:	dfc00715 	stw	ra,28(sp)
  80eeec:	df000615 	stw	fp,24(sp)
  80eef0:	df000604 	addi	fp,sp,24
  80eef4:	e13ffd15 	stw	r4,-12(fp)
  80eef8:	e17ffe15 	stw	r5,-8(fp)
  80eefc:	e1bfff15 	stw	r6,-4(fp)
  void* base = sp->base;
  80ef00:	e0bffd17 	ldw	r2,-12(fp)
  80ef04:	10800017 	ldw	r2,0(r2)
  80ef08:	e0bffb15 	stw	r2,-20(fp)
 * HAL.
 */

static ALT_INLINE int ALT_ALWAYS_INLINE alt_no_error (void)
{
  return 0;
  80ef0c:	0005883a 	mov	r2,zero
   * Initialise the read and write flags and the semaphores used to 
   * protect access to the circular buffers when running in a multi-threaded
   * environment.
   */
  error = ALT_FLAG_CREATE (&sp->events, 0)    || 
          ALT_SEM_CREATE (&sp->read_lock, 1)  ||
  80ef10:	1000041e 	bne	r2,zero,80ef24 <altera_avalon_uart_init+0x40>
  80ef14:	0005883a 	mov	r2,zero
  /* 
   * Initialise the read and write flags and the semaphores used to 
   * protect access to the circular buffers when running in a multi-threaded
   * environment.
   */
  error = ALT_FLAG_CREATE (&sp->events, 0)    || 
  80ef18:	1000021e 	bne	r2,zero,80ef24 <altera_avalon_uart_init+0x40>
  80ef1c:	0005883a 	mov	r2,zero
          ALT_SEM_CREATE (&sp->read_lock, 1)  ||
  80ef20:	10000226 	beq	r2,zero,80ef2c <altera_avalon_uart_init+0x48>
  80ef24:	00800044 	movi	r2,1
  80ef28:	00000106 	br	80ef30 <altera_avalon_uart_init+0x4c>
  80ef2c:	0005883a 	mov	r2,zero
  /* 
   * Initialise the read and write flags and the semaphores used to 
   * protect access to the circular buffers when running in a multi-threaded
   * environment.
   */
  error = ALT_FLAG_CREATE (&sp->events, 0)    || 
  80ef30:	e0bffc15 	stw	r2,-16(fp)
          ALT_SEM_CREATE (&sp->read_lock, 1)  ||
          ALT_SEM_CREATE (&sp->write_lock, 1);

  if (!error)
  80ef34:	e0bffc17 	ldw	r2,-16(fp)
  80ef38:	10000f1e 	bne	r2,zero,80ef78 <altera_avalon_uart_init+0x94>
  {
    /* enable interrupts at the device */
    sp->ctrl = ALTERA_AVALON_UART_CONTROL_RTS_MSK  |
  80ef3c:	e0bffd17 	ldw	r2,-12(fp)
  80ef40:	00c32004 	movi	r3,3200
  80ef44:	10c00115 	stw	r3,4(r2)
                ALTERA_AVALON_UART_CONTROL_RRDY_MSK |
                ALTERA_AVALON_UART_CONTROL_DCTS_MSK;

    IOWR_ALTERA_AVALON_UART_CONTROL(base, sp->ctrl); 
  80ef48:	e0bffb17 	ldw	r2,-20(fp)
  80ef4c:	10800304 	addi	r2,r2,12
  80ef50:	e0fffd17 	ldw	r3,-12(fp)
  80ef54:	18c00117 	ldw	r3,4(r3)
  80ef58:	10c00035 	stwio	r3,0(r2)
  
    /* register the interrupt handler */
#ifdef ALT_ENHANCED_INTERRUPT_API_PRESENT
    alt_ic_isr_register(irq_controller_id, irq, altera_avalon_uart_irq, sp, 
  80ef5c:	d8000015 	stw	zero,0(sp)
  80ef60:	e1fffd17 	ldw	r7,-12(fp)
  80ef64:	01802074 	movhi	r6,129
  80ef68:	31bbe404 	addi	r6,r6,-4208
  80ef6c:	e17fff17 	ldw	r5,-4(fp)
  80ef70:	e13ffe17 	ldw	r4,-8(fp)
  80ef74:	080fb040 	call	80fb04 <alt_ic_isr_register>
      0x0);
#else
    alt_irq_register (irq, sp, altera_avalon_uart_irq);
#endif  
  }
}
  80ef78:	0001883a 	nop
  80ef7c:	e037883a 	mov	sp,fp
  80ef80:	dfc00117 	ldw	ra,4(sp)
  80ef84:	df000017 	ldw	fp,0(sp)
  80ef88:	dec00204 	addi	sp,sp,8
  80ef8c:	f800283a 	ret

0080ef90 <altera_avalon_uart_irq>:
#ifdef ALT_ENHANCED_INTERRUPT_API_PRESENT
static void altera_avalon_uart_irq(void* context)
#else
static void altera_avalon_uart_irq(void* context, alt_u32 id)
#endif
{
  80ef90:	defffa04 	addi	sp,sp,-24
  80ef94:	dfc00515 	stw	ra,20(sp)
  80ef98:	df000415 	stw	fp,16(sp)
  80ef9c:	df000404 	addi	fp,sp,16
  80efa0:	e13fff15 	stw	r4,-4(fp)
  alt_u32 status;

  altera_avalon_uart_state* sp = (altera_avalon_uart_state*) context;
  80efa4:	e0bfff17 	ldw	r2,-4(fp)
  80efa8:	e0bffc15 	stw	r2,-16(fp)
  void* base               = sp->base;
  80efac:	e0bffc17 	ldw	r2,-16(fp)
  80efb0:	10800017 	ldw	r2,0(r2)
  80efb4:	e0bffd15 	stw	r2,-12(fp)
  /*
   * Read the status register in order to determine the cause of the
   * interrupt.
   */

  status = IORD_ALTERA_AVALON_UART_STATUS(base);
  80efb8:	e0bffd17 	ldw	r2,-12(fp)
  80efbc:	10800204 	addi	r2,r2,8
  80efc0:	10800037 	ldwio	r2,0(r2)
  80efc4:	e0bffe15 	stw	r2,-8(fp)

  /* Clear any error flags set at the device */
  IOWR_ALTERA_AVALON_UART_STATUS(base, 0);
  80efc8:	e0bffd17 	ldw	r2,-12(fp)
  80efcc:	10800204 	addi	r2,r2,8
  80efd0:	0007883a 	mov	r3,zero
  80efd4:	10c00035 	stwio	r3,0(r2)

  /* Dummy read to ensure IRQ is negated before ISR returns */
  IORD_ALTERA_AVALON_UART_STATUS(base);
  80efd8:	e0bffd17 	ldw	r2,-12(fp)
  80efdc:	10800204 	addi	r2,r2,8
  80efe0:	10800037 	ldwio	r2,0(r2)
  
  /* process a read irq */
  if (status & ALTERA_AVALON_UART_STATUS_RRDY_MSK)
  80efe4:	e0bffe17 	ldw	r2,-8(fp)
  80efe8:	1080200c 	andi	r2,r2,128
  80efec:	10000326 	beq	r2,zero,80effc <altera_avalon_uart_irq+0x6c>
  {
    altera_avalon_uart_rxirq(sp, status);
  80eff0:	e17ffe17 	ldw	r5,-8(fp)
  80eff4:	e13ffc17 	ldw	r4,-16(fp)
  80eff8:	080f02c0 	call	80f02c <altera_avalon_uart_rxirq>
  }

  /* process a write irq */
  if (status & (ALTERA_AVALON_UART_STATUS_TRDY_MSK | 
  80effc:	e0bffe17 	ldw	r2,-8(fp)
  80f000:	1081100c 	andi	r2,r2,1088
  80f004:	10000326 	beq	r2,zero,80f014 <altera_avalon_uart_irq+0x84>
                  ALTERA_AVALON_UART_STATUS_DCTS_MSK))
  {
    altera_avalon_uart_txirq(sp, status);
  80f008:	e17ffe17 	ldw	r5,-8(fp)
  80f00c:	e13ffc17 	ldw	r4,-16(fp)
  80f010:	080f1100 	call	80f110 <altera_avalon_uart_txirq>
  }
  

}
  80f014:	0001883a 	nop
  80f018:	e037883a 	mov	sp,fp
  80f01c:	dfc00117 	ldw	ra,4(sp)
  80f020:	df000017 	ldw	fp,0(sp)
  80f024:	dec00204 	addi	sp,sp,8
  80f028:	f800283a 	ret

0080f02c <altera_avalon_uart_rxirq>:
 * the receive circular buffer, and sets the apropriate flags to indicate 
 * that there is data ready to be processed.
 */
static void 
altera_avalon_uart_rxirq(altera_avalon_uart_state* sp, alt_u32 status)
{
  80f02c:	defffc04 	addi	sp,sp,-16
  80f030:	df000315 	stw	fp,12(sp)
  80f034:	df000304 	addi	fp,sp,12
  80f038:	e13ffe15 	stw	r4,-8(fp)
  80f03c:	e17fff15 	stw	r5,-4(fp)
  alt_u32 next;
  
  /* If there was an error, discard the data */

  if (status & (ALTERA_AVALON_UART_STATUS_PE_MSK | 
  80f040:	e0bfff17 	ldw	r2,-4(fp)
  80f044:	108000cc 	andi	r2,r2,3
  80f048:	10002c1e 	bne	r2,zero,80f0fc <altera_avalon_uart_rxirq+0xd0>
   * In a multi-threaded environment, set the read event flag to indicate
   * that there is data ready. This is only done if the circular buffer was
   * previously empty.
   */

  if (sp->rx_end == sp->rx_start)
  80f04c:	e0bffe17 	ldw	r2,-8(fp)
  80f050:	10800317 	ldw	r2,12(r2)
  80f054:	e0bffe17 	ldw	r2,-8(fp)
  80f058:	10800217 	ldw	r2,8(r2)
    ALT_FLAG_POST (sp->events, ALT_UART_READ_RDY, OS_FLAG_SET);
  }

  /* Determine which slot to use next in the circular buffer */

  next = (sp->rx_end + 1) & ALT_AVALON_UART_BUF_MSK;
  80f05c:	e0bffe17 	ldw	r2,-8(fp)
  80f060:	10800317 	ldw	r2,12(r2)
  80f064:	10800044 	addi	r2,r2,1
  80f068:	10800fcc 	andi	r2,r2,63
  80f06c:	e0bffd15 	stw	r2,-12(fp)

  /* Transfer data from the device to the circular buffer */

  sp->rx_buf[sp->rx_end] = IORD_ALTERA_AVALON_UART_RXDATA(sp->base);
  80f070:	e0bffe17 	ldw	r2,-8(fp)
  80f074:	10800317 	ldw	r2,12(r2)
  80f078:	e0fffe17 	ldw	r3,-8(fp)
  80f07c:	18c00017 	ldw	r3,0(r3)
  80f080:	18c00037 	ldwio	r3,0(r3)
  80f084:	1809883a 	mov	r4,r3
  80f088:	e0fffe17 	ldw	r3,-8(fp)
  80f08c:	1885883a 	add	r2,r3,r2
  80f090:	10800704 	addi	r2,r2,28
  80f094:	11000005 	stb	r4,0(r2)

  sp->rx_end = next;
  80f098:	e0bffe17 	ldw	r2,-8(fp)
  80f09c:	e0fffd17 	ldw	r3,-12(fp)
  80f0a0:	10c00315 	stw	r3,12(r2)

  next = (sp->rx_end + 1) & ALT_AVALON_UART_BUF_MSK;
  80f0a4:	e0bffe17 	ldw	r2,-8(fp)
  80f0a8:	10800317 	ldw	r2,12(r2)
  80f0ac:	10800044 	addi	r2,r2,1
  80f0b0:	10800fcc 	andi	r2,r2,63
  80f0b4:	e0bffd15 	stw	r2,-12(fp)
  /*
   * If the cicular buffer was full, disable interrupts. Interrupts will be
   * re-enabled when data is removed from the buffer.
   */

  if (next == sp->rx_start)
  80f0b8:	e0bffe17 	ldw	r2,-8(fp)
  80f0bc:	10c00217 	ldw	r3,8(r2)
  80f0c0:	e0bffd17 	ldw	r2,-12(fp)
  80f0c4:	18800e1e 	bne	r3,r2,80f100 <altera_avalon_uart_rxirq+0xd4>
  {
    sp->ctrl &= ~ALTERA_AVALON_UART_CONTROL_RRDY_MSK;
  80f0c8:	e0bffe17 	ldw	r2,-8(fp)
  80f0cc:	10c00117 	ldw	r3,4(r2)
  80f0d0:	00bfdfc4 	movi	r2,-129
  80f0d4:	1886703a 	and	r3,r3,r2
  80f0d8:	e0bffe17 	ldw	r2,-8(fp)
  80f0dc:	10c00115 	stw	r3,4(r2)
    IOWR_ALTERA_AVALON_UART_CONTROL(sp->base, sp->ctrl); 
  80f0e0:	e0bffe17 	ldw	r2,-8(fp)
  80f0e4:	10800017 	ldw	r2,0(r2)
  80f0e8:	10800304 	addi	r2,r2,12
  80f0ec:	e0fffe17 	ldw	r3,-8(fp)
  80f0f0:	18c00117 	ldw	r3,4(r3)
  80f0f4:	10c00035 	stwio	r3,0(r2)
  80f0f8:	00000106 	br	80f100 <altera_avalon_uart_rxirq+0xd4>
  /* If there was an error, discard the data */

  if (status & (ALTERA_AVALON_UART_STATUS_PE_MSK | 
                  ALTERA_AVALON_UART_STATUS_FE_MSK))
  {
    return;
  80f0fc:	0001883a 	nop
  if (next == sp->rx_start)
  {
    sp->ctrl &= ~ALTERA_AVALON_UART_CONTROL_RRDY_MSK;
    IOWR_ALTERA_AVALON_UART_CONTROL(sp->base, sp->ctrl); 
  }   
}
  80f100:	e037883a 	mov	sp,fp
  80f104:	df000017 	ldw	fp,0(sp)
  80f108:	dec00104 	addi	sp,sp,4
  80f10c:	f800283a 	ret

0080f110 <altera_avalon_uart_txirq>:
 * buffer to the device, and sets the apropriate flags to indicate that 
 * there is data ready to be processed.
 */
static void 
altera_avalon_uart_txirq(altera_avalon_uart_state* sp, alt_u32 status)
{
  80f110:	defffb04 	addi	sp,sp,-20
  80f114:	df000415 	stw	fp,16(sp)
  80f118:	df000404 	addi	fp,sp,16
  80f11c:	e13ffc15 	stw	r4,-16(fp)
  80f120:	e17ffd15 	stw	r5,-12(fp)
  /* Transfer data if there is some ready to be transfered */

  if (sp->tx_start != sp->tx_end)
  80f124:	e0bffc17 	ldw	r2,-16(fp)
  80f128:	10c00417 	ldw	r3,16(r2)
  80f12c:	e0bffc17 	ldw	r2,-16(fp)
  80f130:	10800517 	ldw	r2,20(r2)
  80f134:	18803226 	beq	r3,r2,80f200 <altera_avalon_uart_txirq+0xf0>
    /* 
     * If the device is using flow control (i.e. RTS/CTS), then the
     * transmitter is required to throttle if CTS is high.
     */

    if (!(sp->flags & ALT_AVALON_UART_FC) ||
  80f138:	e0bffc17 	ldw	r2,-16(fp)
  80f13c:	10800617 	ldw	r2,24(r2)
  80f140:	1080008c 	andi	r2,r2,2
  80f144:	10000326 	beq	r2,zero,80f154 <altera_avalon_uart_txirq+0x44>
      (status & ALTERA_AVALON_UART_STATUS_CTS_MSK))
  80f148:	e0bffd17 	ldw	r2,-12(fp)
  80f14c:	1082000c 	andi	r2,r2,2048
    /* 
     * If the device is using flow control (i.e. RTS/CTS), then the
     * transmitter is required to throttle if CTS is high.
     */

    if (!(sp->flags & ALT_AVALON_UART_FC) ||
  80f150:	10001d26 	beq	r2,zero,80f1c8 <altera_avalon_uart_txirq+0xb8>
       * In a multi-threaded environment, set the write event flag to indicate
       * that there is space in the circular buffer. This is only done if the
       * buffer was previously empty.
       */

      if (sp->tx_start == ((sp->tx_end + 1) & ALT_AVALON_UART_BUF_MSK))
  80f154:	e0bffc17 	ldw	r2,-16(fp)
  80f158:	10800417 	ldw	r2,16(r2)
  80f15c:	e0bffc17 	ldw	r2,-16(fp)
  80f160:	10800517 	ldw	r2,20(r2)
                       OS_FLAG_SET);
      }

      /* Write the data to the device */

      IOWR_ALTERA_AVALON_UART_TXDATA(sp->base, sp->tx_buf[sp->tx_start]);
  80f164:	e0bffc17 	ldw	r2,-16(fp)
  80f168:	10800017 	ldw	r2,0(r2)
  80f16c:	10800104 	addi	r2,r2,4
  80f170:	e0fffc17 	ldw	r3,-16(fp)
  80f174:	18c00417 	ldw	r3,16(r3)
  80f178:	e13ffc17 	ldw	r4,-16(fp)
  80f17c:	20c7883a 	add	r3,r4,r3
  80f180:	18c01704 	addi	r3,r3,92
  80f184:	18c00003 	ldbu	r3,0(r3)
  80f188:	18c03fcc 	andi	r3,r3,255
  80f18c:	10c00035 	stwio	r3,0(r2)

      sp->tx_start = (++sp->tx_start) & ALT_AVALON_UART_BUF_MSK;
  80f190:	e0bffc17 	ldw	r2,-16(fp)
  80f194:	10800417 	ldw	r2,16(r2)
  80f198:	10800044 	addi	r2,r2,1
  80f19c:	e0fffc17 	ldw	r3,-16(fp)
  80f1a0:	18800415 	stw	r2,16(r3)
  80f1a4:	10c00fcc 	andi	r3,r2,63
  80f1a8:	e0bffc17 	ldw	r2,-16(fp)
  80f1ac:	10c00415 	stw	r3,16(r2)
      /*
       * In case the tranmit interrupt had previously been disabled by 
       * detecting a low value on CTS, it is reenabled here.
       */ 

      sp->ctrl |= ALTERA_AVALON_UART_CONTROL_TRDY_MSK;
  80f1b0:	e0bffc17 	ldw	r2,-16(fp)
  80f1b4:	10800117 	ldw	r2,4(r2)
  80f1b8:	10c01014 	ori	r3,r2,64
  80f1bc:	e0bffc17 	ldw	r2,-16(fp)
  80f1c0:	10c00115 	stw	r3,4(r2)
  80f1c4:	00000e06 	br	80f200 <altera_avalon_uart_txirq+0xf0>
       * the last write to the status register. To avoid this resulting in
       * deadlock, it's necessary to re-check the status register here
       * before throttling.
       */
 
      status = IORD_ALTERA_AVALON_UART_STATUS(sp->base); 
  80f1c8:	e0bffc17 	ldw	r2,-16(fp)
  80f1cc:	10800017 	ldw	r2,0(r2)
  80f1d0:	10800204 	addi	r2,r2,8
  80f1d4:	10800037 	ldwio	r2,0(r2)
  80f1d8:	e0bffd15 	stw	r2,-12(fp)

      if (!(status & ALTERA_AVALON_UART_STATUS_CTS_MSK))
  80f1dc:	e0bffd17 	ldw	r2,-12(fp)
  80f1e0:	1082000c 	andi	r2,r2,2048
  80f1e4:	1000061e 	bne	r2,zero,80f200 <altera_avalon_uart_txirq+0xf0>
      {
        sp->ctrl &= ~ALTERA_AVALON_UART_CONTROL_TRDY_MSK;
  80f1e8:	e0bffc17 	ldw	r2,-16(fp)
  80f1ec:	10c00117 	ldw	r3,4(r2)
  80f1f0:	00bfefc4 	movi	r2,-65
  80f1f4:	1886703a 	and	r3,r3,r2
  80f1f8:	e0bffc17 	ldw	r2,-16(fp)
  80f1fc:	10c00115 	stw	r3,4(r2)
  /*
   * If the circular buffer is empty, disable the interrupt. This will be
   * re-enabled when new data is placed in the buffer.
   */

  if (sp->tx_start == sp->tx_end)
  80f200:	e0bffc17 	ldw	r2,-16(fp)
  80f204:	10c00417 	ldw	r3,16(r2)
  80f208:	e0bffc17 	ldw	r2,-16(fp)
  80f20c:	10800517 	ldw	r2,20(r2)
  80f210:	1880061e 	bne	r3,r2,80f22c <altera_avalon_uart_txirq+0x11c>
  {
    sp->ctrl &= ~(ALTERA_AVALON_UART_CONTROL_TRDY_MSK |
  80f214:	e0bffc17 	ldw	r2,-16(fp)
  80f218:	10c00117 	ldw	r3,4(r2)
  80f21c:	00beefc4 	movi	r2,-1089
  80f220:	1886703a 	and	r3,r3,r2
  80f224:	e0bffc17 	ldw	r2,-16(fp)
  80f228:	10c00115 	stw	r3,4(r2)
                    ALTERA_AVALON_UART_CONTROL_DCTS_MSK);
  }

  IOWR_ALTERA_AVALON_UART_CONTROL(sp->base, sp->ctrl);
  80f22c:	e0bffc17 	ldw	r2,-16(fp)
  80f230:	10800017 	ldw	r2,0(r2)
  80f234:	10800304 	addi	r2,r2,12
  80f238:	e0fffc17 	ldw	r3,-16(fp)
  80f23c:	18c00117 	ldw	r3,4(r3)
  80f240:	10c00035 	stwio	r3,0(r2)
}
  80f244:	0001883a 	nop
  80f248:	e037883a 	mov	sp,fp
  80f24c:	df000017 	ldw	fp,0(sp)
  80f250:	dec00104 	addi	sp,sp,4
  80f254:	f800283a 	ret

0080f258 <altera_avalon_uart_close>:
 * The close routine is not implemented for the small driver; instead it will
 * map to null. This is because the small driver simply waits while characters
 * are transmitted; there is no interrupt-serviced buffer to empty 
 */
int altera_avalon_uart_close(altera_avalon_uart_state* sp, int flags)
{
  80f258:	defffd04 	addi	sp,sp,-12
  80f25c:	df000215 	stw	fp,8(sp)
  80f260:	df000204 	addi	fp,sp,8
  80f264:	e13ffe15 	stw	r4,-8(fp)
  80f268:	e17fff15 	stw	r5,-4(fp)
  /* 
   * Wait for all transmit data to be emptied by the UART ISR.
   */
  while (sp->tx_start != sp->tx_end) {
  80f26c:	00000506 	br	80f284 <altera_avalon_uart_close+0x2c>
    if (flags & O_NONBLOCK) {
  80f270:	e0bfff17 	ldw	r2,-4(fp)
  80f274:	1090000c 	andi	r2,r2,16384
  80f278:	10000226 	beq	r2,zero,80f284 <altera_avalon_uart_close+0x2c>
      return -EWOULDBLOCK; 
  80f27c:	00bffd44 	movi	r2,-11
  80f280:	00000606 	br	80f29c <altera_avalon_uart_close+0x44>
int altera_avalon_uart_close(altera_avalon_uart_state* sp, int flags)
{
  /* 
   * Wait for all transmit data to be emptied by the UART ISR.
   */
  while (sp->tx_start != sp->tx_end) {
  80f284:	e0bffe17 	ldw	r2,-8(fp)
  80f288:	10c00417 	ldw	r3,16(r2)
  80f28c:	e0bffe17 	ldw	r2,-8(fp)
  80f290:	10800517 	ldw	r2,20(r2)
  80f294:	18bff61e 	bne	r3,r2,80f270 <__alt_mem_onchip_mem+0xff807270>
    if (flags & O_NONBLOCK) {
      return -EWOULDBLOCK; 
    }
  }

  return 0;
  80f298:	0005883a 	mov	r2,zero
}
  80f29c:	e037883a 	mov	sp,fp
  80f2a0:	df000017 	ldw	fp,0(sp)
  80f2a4:	dec00104 	addi	sp,sp,4
  80f2a8:	f800283a 	ret

0080f2ac <alt_get_errno>:
#undef errno

extern int errno;

static ALT_INLINE int* alt_get_errno(void)
{
  80f2ac:	defffe04 	addi	sp,sp,-8
  80f2b0:	dfc00115 	stw	ra,4(sp)
  80f2b4:	df000015 	stw	fp,0(sp)
  80f2b8:	d839883a 	mov	fp,sp
  return ((alt_errno) ? alt_errno() : &errno);
  80f2bc:	d0a00a17 	ldw	r2,-32728(gp)
  80f2c0:	10000326 	beq	r2,zero,80f2d0 <alt_get_errno+0x24>
  80f2c4:	d0a00a17 	ldw	r2,-32728(gp)
  80f2c8:	103ee83a 	callr	r2
  80f2cc:	00000106 	br	80f2d4 <alt_get_errno+0x28>
  80f2d0:	d0a72c04 	addi	r2,gp,-25424
}
  80f2d4:	e037883a 	mov	sp,fp
  80f2d8:	dfc00117 	ldw	ra,4(sp)
  80f2dc:	df000017 	ldw	fp,0(sp)
  80f2e0:	dec00204 	addi	sp,sp,8
  80f2e4:	f800283a 	ret

0080f2e8 <altera_avalon_uart_read>:
 */

int 
altera_avalon_uart_read(altera_avalon_uart_state* sp, char* ptr, int len,
  int flags)
{
  80f2e8:	defff204 	addi	sp,sp,-56
  80f2ec:	dfc00d15 	stw	ra,52(sp)
  80f2f0:	df000c15 	stw	fp,48(sp)
  80f2f4:	df000c04 	addi	fp,sp,48
  80f2f8:	e13ffc15 	stw	r4,-16(fp)
  80f2fc:	e17ffd15 	stw	r5,-12(fp)
  80f300:	e1bffe15 	stw	r6,-8(fp)
  80f304:	e1ffff15 	stw	r7,-4(fp)
  alt_irq_context context;
  int             block;
  alt_u8          read_would_block = 0;
  80f308:	e03ff405 	stb	zero,-48(fp)
  int             count = 0;
  80f30c:	e03ff515 	stw	zero,-44(fp)
  /* 
   * Construct a flag to indicate whether the device is being accessed in
   * blocking or non-blocking mode.
   */

  block = !(flags & O_NONBLOCK);
  80f310:	e0bfff17 	ldw	r2,-4(fp)
  80f314:	1090000c 	andi	r2,r2,16384
  80f318:	1005003a 	cmpeq	r2,r2,zero
  80f31c:	10803fcc 	andi	r2,r2,255
  80f320:	e0bff615 	stw	r2,-40(fp)
    /*
     * Read the required amount of data, until the circular buffer runs
     * empty
     */

    while ((count < len) && (sp->rx_start != sp->rx_end))
  80f324:	00001306 	br	80f374 <altera_avalon_uart_read+0x8c>
    {
      count++;
  80f328:	e0bff517 	ldw	r2,-44(fp)
  80f32c:	10800044 	addi	r2,r2,1
  80f330:	e0bff515 	stw	r2,-44(fp)
      *ptr++ = sp->rx_buf[sp->rx_start];
  80f334:	e0bffd17 	ldw	r2,-12(fp)
  80f338:	10c00044 	addi	r3,r2,1
  80f33c:	e0fffd15 	stw	r3,-12(fp)
  80f340:	e0fffc17 	ldw	r3,-16(fp)
  80f344:	18c00217 	ldw	r3,8(r3)
  80f348:	e13ffc17 	ldw	r4,-16(fp)
  80f34c:	20c7883a 	add	r3,r4,r3
  80f350:	18c00704 	addi	r3,r3,28
  80f354:	18c00003 	ldbu	r3,0(r3)
  80f358:	10c00005 	stb	r3,0(r2)
      
      sp->rx_start = (sp->rx_start+1) & ALT_AVALON_UART_BUF_MSK;
  80f35c:	e0bffc17 	ldw	r2,-16(fp)
  80f360:	10800217 	ldw	r2,8(r2)
  80f364:	10800044 	addi	r2,r2,1
  80f368:	10c00fcc 	andi	r3,r2,63
  80f36c:	e0bffc17 	ldw	r2,-16(fp)
  80f370:	10c00215 	stw	r3,8(r2)
    /*
     * Read the required amount of data, until the circular buffer runs
     * empty
     */

    while ((count < len) && (sp->rx_start != sp->rx_end))
  80f374:	e0fff517 	ldw	r3,-44(fp)
  80f378:	e0bffe17 	ldw	r2,-8(fp)
  80f37c:	1880050e 	bge	r3,r2,80f394 <altera_avalon_uart_read+0xac>
  80f380:	e0bffc17 	ldw	r2,-16(fp)
  80f384:	10c00217 	ldw	r3,8(r2)
  80f388:	e0bffc17 	ldw	r2,-16(fp)
  80f38c:	10800317 	ldw	r2,12(r2)
  80f390:	18bfe51e 	bne	r3,r2,80f328 <__alt_mem_onchip_mem+0xff807328>
    /*
     * If no data has been transferred, the circular buffer is empty, and
     * this is not a non-blocking access, block waiting for data to arrive.
     */

    if (!count && (sp->rx_start == sp->rx_end))
  80f394:	e0bff517 	ldw	r2,-44(fp)
  80f398:	1000251e 	bne	r2,zero,80f430 <altera_avalon_uart_read+0x148>
  80f39c:	e0bffc17 	ldw	r2,-16(fp)
  80f3a0:	10c00217 	ldw	r3,8(r2)
  80f3a4:	e0bffc17 	ldw	r2,-16(fp)
  80f3a8:	10800317 	ldw	r2,12(r2)
  80f3ac:	1880201e 	bne	r3,r2,80f430 <altera_avalon_uart_read+0x148>
    {
      if (!block)
  80f3b0:	e0bff617 	ldw	r2,-40(fp)
  80f3b4:	1000071e 	bne	r2,zero,80f3d4 <altera_avalon_uart_read+0xec>
      {
        /* Set errno to indicate the reason we're not returning any data */

        ALT_ERRNO = EWOULDBLOCK;
  80f3b8:	080f2ac0 	call	80f2ac <alt_get_errno>
  80f3bc:	1007883a 	mov	r3,r2
  80f3c0:	008002c4 	movi	r2,11
  80f3c4:	18800015 	stw	r2,0(r3)
        read_would_block = 1;
  80f3c8:	00800044 	movi	r2,1
  80f3cc:	e0bff405 	stb	r2,-48(fp)
        break;
  80f3d0:	00001b06 	br	80f440 <altera_avalon_uart_read+0x158>
static ALT_INLINE alt_irq_context ALT_ALWAYS_INLINE 
       alt_irq_disable_all (void)
{
  alt_irq_context context;

  NIOS2_READ_STATUS (context);
  80f3d4:	0005303a 	rdctl	r2,status
  80f3d8:	e0bff915 	stw	r2,-28(fp)

  NIOS2_WRITE_STATUS (context & ~NIOS2_STATUS_PIE_MSK);
  80f3dc:	e0fff917 	ldw	r3,-28(fp)
  80f3e0:	00bfff84 	movi	r2,-2
  80f3e4:	1884703a 	and	r2,r3,r2
  80f3e8:	1001703a 	wrctl	status,r2
  
  return context;
  80f3ec:	e0bff917 	ldw	r2,-28(fp)
      {
       /* Block waiting for some data to arrive */

       /* First, ensure read interrupts are enabled to avoid deadlock */

       context = alt_irq_disable_all ();
  80f3f0:	e0bff815 	stw	r2,-32(fp)
       sp->ctrl |= ALTERA_AVALON_UART_CONTROL_RRDY_MSK;
  80f3f4:	e0bffc17 	ldw	r2,-16(fp)
  80f3f8:	10800117 	ldw	r2,4(r2)
  80f3fc:	10c02014 	ori	r3,r2,128
  80f400:	e0bffc17 	ldw	r2,-16(fp)
  80f404:	10c00115 	stw	r3,4(r2)
       IOWR_ALTERA_AVALON_UART_CONTROL(sp->base, sp->ctrl);
  80f408:	e0bffc17 	ldw	r2,-16(fp)
  80f40c:	10800017 	ldw	r2,0(r2)
  80f410:	10800304 	addi	r2,r2,12
  80f414:	e0fffc17 	ldw	r3,-16(fp)
  80f418:	18c00117 	ldw	r3,4(r3)
  80f41c:	10c00035 	stwio	r3,0(r2)
  80f420:	e0bff817 	ldw	r2,-32(fp)
  80f424:	e0bffa15 	stw	r2,-24(fp)
  status &= ~NIOS2_STATUS_PIE_MSK;
  status |= (context & NIOS2_STATUS_PIE_MSK);
  
  NIOS2_WRITE_STATUS (status);
#else
  NIOS2_WRITE_STATUS (context);
  80f428:	e0bffa17 	ldw	r2,-24(fp)
  80f42c:	1001703a 	wrctl	status,r2
                      OS_FLAG_WAIT_SET_ANY + OS_FLAG_CONSUME,
                      0);
      }
    }
  }
  while (!count && len);
  80f430:	e0bff517 	ldw	r2,-44(fp)
  80f434:	1000021e 	bne	r2,zero,80f440 <altera_avalon_uart_read+0x158>
  80f438:	e0bffe17 	ldw	r2,-8(fp)
  80f43c:	103fcd1e 	bne	r2,zero,80f374 <__alt_mem_onchip_mem+0xff807374>
static ALT_INLINE alt_irq_context ALT_ALWAYS_INLINE 
       alt_irq_disable_all (void)
{
  alt_irq_context context;

  NIOS2_READ_STATUS (context);
  80f440:	0005303a 	rdctl	r2,status
  80f444:	e0bffb15 	stw	r2,-20(fp)

  NIOS2_WRITE_STATUS (context & ~NIOS2_STATUS_PIE_MSK);
  80f448:	e0fffb17 	ldw	r3,-20(fp)
  80f44c:	00bfff84 	movi	r2,-2
  80f450:	1884703a 	and	r2,r3,r2
  80f454:	1001703a 	wrctl	status,r2
  
  return context;
  80f458:	e0bffb17 	ldw	r2,-20(fp)
  /*
   * Ensure that interrupts are enabled, so that the circular buffer can
   * re-fill.
   */

  context = alt_irq_disable_all ();
  80f45c:	e0bff815 	stw	r2,-32(fp)
  sp->ctrl |= ALTERA_AVALON_UART_CONTROL_RRDY_MSK;
  80f460:	e0bffc17 	ldw	r2,-16(fp)
  80f464:	10800117 	ldw	r2,4(r2)
  80f468:	10c02014 	ori	r3,r2,128
  80f46c:	e0bffc17 	ldw	r2,-16(fp)
  80f470:	10c00115 	stw	r3,4(r2)
  IOWR_ALTERA_AVALON_UART_CONTROL(sp->base, sp->ctrl);
  80f474:	e0bffc17 	ldw	r2,-16(fp)
  80f478:	10800017 	ldw	r2,0(r2)
  80f47c:	10800304 	addi	r2,r2,12
  80f480:	e0fffc17 	ldw	r3,-16(fp)
  80f484:	18c00117 	ldw	r3,4(r3)
  80f488:	10c00035 	stwio	r3,0(r2)
  80f48c:	e0bff817 	ldw	r2,-32(fp)
  80f490:	e0bff715 	stw	r2,-36(fp)
  status &= ~NIOS2_STATUS_PIE_MSK;
  status |= (context & NIOS2_STATUS_PIE_MSK);
  
  NIOS2_WRITE_STATUS (status);
#else
  NIOS2_WRITE_STATUS (context);
  80f494:	e0bff717 	ldw	r2,-36(fp)
  80f498:	1001703a 	wrctl	status,r2
  alt_irq_enable_all (context);

  /* Return the number of bytes read */
  if(read_would_block) {
  80f49c:	e0bff403 	ldbu	r2,-48(fp)
  80f4a0:	10000226 	beq	r2,zero,80f4ac <altera_avalon_uart_read+0x1c4>
    return -EWOULDBLOCK;
  80f4a4:	00bffd44 	movi	r2,-11
  80f4a8:	00000106 	br	80f4b0 <altera_avalon_uart_read+0x1c8>
  }
  else {
    return count;
  80f4ac:	e0bff517 	ldw	r2,-44(fp)
  }
}
  80f4b0:	e037883a 	mov	sp,fp
  80f4b4:	dfc00117 	ldw	ra,4(sp)
  80f4b8:	df000017 	ldw	fp,0(sp)
  80f4bc:	dec00204 	addi	sp,sp,8
  80f4c0:	f800283a 	ret

0080f4c4 <alt_get_errno>:
#undef errno

extern int errno;

static ALT_INLINE int* alt_get_errno(void)
{
  80f4c4:	defffe04 	addi	sp,sp,-8
  80f4c8:	dfc00115 	stw	ra,4(sp)
  80f4cc:	df000015 	stw	fp,0(sp)
  80f4d0:	d839883a 	mov	fp,sp
  return ((alt_errno) ? alt_errno() : &errno);
  80f4d4:	d0a00a17 	ldw	r2,-32728(gp)
  80f4d8:	10000326 	beq	r2,zero,80f4e8 <alt_get_errno+0x24>
  80f4dc:	d0a00a17 	ldw	r2,-32728(gp)
  80f4e0:	103ee83a 	callr	r2
  80f4e4:	00000106 	br	80f4ec <alt_get_errno+0x28>
  80f4e8:	d0a72c04 	addi	r2,gp,-25424
}
  80f4ec:	e037883a 	mov	sp,fp
  80f4f0:	dfc00117 	ldw	ra,4(sp)
  80f4f4:	df000017 	ldw	fp,0(sp)
  80f4f8:	dec00204 	addi	sp,sp,8
  80f4fc:	f800283a 	ret

0080f500 <altera_avalon_uart_write>:
 */

int
altera_avalon_uart_write(altera_avalon_uart_state* sp, const char* ptr, int len,
  int flags)
{
  80f500:	defff204 	addi	sp,sp,-56
  80f504:	dfc00d15 	stw	ra,52(sp)
  80f508:	df000c15 	stw	fp,48(sp)
  80f50c:	df000c04 	addi	fp,sp,48
  80f510:	e13ffc15 	stw	r4,-16(fp)
  80f514:	e17ffd15 	stw	r5,-12(fp)
  80f518:	e1bffe15 	stw	r6,-8(fp)
  80f51c:	e1ffff15 	stw	r7,-4(fp)
  alt_irq_context context;
  int             no_block;
  alt_u32         next;
  int             count = len;
  80f520:	e0bffe17 	ldw	r2,-8(fp)
  80f524:	e0bff415 	stw	r2,-48(fp)
  /* 
   * Construct a flag to indicate whether the device is being accessed in
   * blocking or non-blocking mode.
   */

  no_block = (flags & O_NONBLOCK);
  80f528:	e0bfff17 	ldw	r2,-4(fp)
  80f52c:	1090000c 	andi	r2,r2,16384
  80f530:	e0bff515 	stw	r2,-44(fp)
   * Loop transferring data from the input buffer to the transmit circular
   * buffer. The loop is terminated once all the data has been transferred,
   * or, (if in non-blocking mode) the buffer becomes full.
   */

  while (count)
  80f534:	00003c06 	br	80f628 <altera_avalon_uart_write+0x128>
  {
    /* Determine the next slot in the buffer to access */

    next = (sp->tx_end + 1) & ALT_AVALON_UART_BUF_MSK;
  80f538:	e0bffc17 	ldw	r2,-16(fp)
  80f53c:	10800517 	ldw	r2,20(r2)
  80f540:	10800044 	addi	r2,r2,1
  80f544:	10800fcc 	andi	r2,r2,63
  80f548:	e0bff715 	stw	r2,-36(fp)

    /* block waiting for space if necessary */

    if (next == sp->tx_start)
  80f54c:	e0bffc17 	ldw	r2,-16(fp)
  80f550:	10c00417 	ldw	r3,16(r2)
  80f554:	e0bff717 	ldw	r2,-36(fp)
  80f558:	1880221e 	bne	r3,r2,80f5e4 <altera_avalon_uart_write+0xe4>
    {
      if (no_block)
  80f55c:	e0bff517 	ldw	r2,-44(fp)
  80f560:	10000526 	beq	r2,zero,80f578 <altera_avalon_uart_write+0x78>
      {
        /* Set errno to indicate why this function returned early */
 
        ALT_ERRNO = EWOULDBLOCK;
  80f564:	080f4c40 	call	80f4c4 <alt_get_errno>
  80f568:	1007883a 	mov	r3,r2
  80f56c:	008002c4 	movi	r2,11
  80f570:	18800015 	stw	r2,0(r3)
        break;
  80f574:	00002e06 	br	80f630 <altera_avalon_uart_write+0x130>
static ALT_INLINE alt_irq_context ALT_ALWAYS_INLINE 
       alt_irq_disable_all (void)
{
  alt_irq_context context;

  NIOS2_READ_STATUS (context);
  80f578:	0005303a 	rdctl	r2,status
  80f57c:	e0bff915 	stw	r2,-28(fp)

  NIOS2_WRITE_STATUS (context & ~NIOS2_STATUS_PIE_MSK);
  80f580:	e0fff917 	ldw	r3,-28(fp)
  80f584:	00bfff84 	movi	r2,-2
  80f588:	1884703a 	and	r2,r3,r2
  80f58c:	1001703a 	wrctl	status,r2
  
  return context;
  80f590:	e0bff917 	ldw	r2,-28(fp)
      {
        /* Block waiting for space in the circular buffer */

        /* First, ensure transmit interrupts are enabled to avoid deadlock */

        context = alt_irq_disable_all ();
  80f594:	e0bff815 	stw	r2,-32(fp)
        sp->ctrl |= (ALTERA_AVALON_UART_CONTROL_TRDY_MSK |
  80f598:	e0bffc17 	ldw	r2,-16(fp)
  80f59c:	10800117 	ldw	r2,4(r2)
  80f5a0:	10c11014 	ori	r3,r2,1088
  80f5a4:	e0bffc17 	ldw	r2,-16(fp)
  80f5a8:	10c00115 	stw	r3,4(r2)
                        ALTERA_AVALON_UART_CONTROL_DCTS_MSK);
        IOWR_ALTERA_AVALON_UART_CONTROL(sp->base, sp->ctrl);
  80f5ac:	e0bffc17 	ldw	r2,-16(fp)
  80f5b0:	10800017 	ldw	r2,0(r2)
  80f5b4:	10800304 	addi	r2,r2,12
  80f5b8:	e0fffc17 	ldw	r3,-16(fp)
  80f5bc:	18c00117 	ldw	r3,4(r3)
  80f5c0:	10c00035 	stwio	r3,0(r2)
  80f5c4:	e0bff817 	ldw	r2,-32(fp)
  80f5c8:	e0bff615 	stw	r2,-40(fp)
  status &= ~NIOS2_STATUS_PIE_MSK;
  status |= (context & NIOS2_STATUS_PIE_MSK);
  
  NIOS2_WRITE_STATUS (status);
#else
  NIOS2_WRITE_STATUS (context);
  80f5cc:	e0bff617 	ldw	r2,-40(fp)
  80f5d0:	1001703a 	wrctl	status,r2
          ALT_FLAG_PEND (sp->events, 
                         ALT_UART_WRITE_RDY,
                         OS_FLAG_WAIT_SET_ANY + OS_FLAG_CONSUME,
                         0);
        }
        while ((next == sp->tx_start));
  80f5d4:	e0bffc17 	ldw	r2,-16(fp)
  80f5d8:	10c00417 	ldw	r3,16(r2)
  80f5dc:	e0bff717 	ldw	r2,-36(fp)
  80f5e0:	18bffc26 	beq	r3,r2,80f5d4 <__alt_mem_onchip_mem+0xff8075d4>
      }
    }

    count--;
  80f5e4:	e0bff417 	ldw	r2,-48(fp)
  80f5e8:	10bfffc4 	addi	r2,r2,-1
  80f5ec:	e0bff415 	stw	r2,-48(fp)

    /* Add the next character to the transmit buffer */

    sp->tx_buf[sp->tx_end] = *ptr++;
  80f5f0:	e0bffc17 	ldw	r2,-16(fp)
  80f5f4:	10c00517 	ldw	r3,20(r2)
  80f5f8:	e0bffd17 	ldw	r2,-12(fp)
  80f5fc:	11000044 	addi	r4,r2,1
  80f600:	e13ffd15 	stw	r4,-12(fp)
  80f604:	10800003 	ldbu	r2,0(r2)
  80f608:	1009883a 	mov	r4,r2
  80f60c:	e0bffc17 	ldw	r2,-16(fp)
  80f610:	10c5883a 	add	r2,r2,r3
  80f614:	10801704 	addi	r2,r2,92
  80f618:	11000005 	stb	r4,0(r2)
    sp->tx_end = next;
  80f61c:	e0bffc17 	ldw	r2,-16(fp)
  80f620:	e0fff717 	ldw	r3,-36(fp)
  80f624:	10c00515 	stw	r3,20(r2)
   * Loop transferring data from the input buffer to the transmit circular
   * buffer. The loop is terminated once all the data has been transferred,
   * or, (if in non-blocking mode) the buffer becomes full.
   */

  while (count)
  80f628:	e0bff417 	ldw	r2,-48(fp)
  80f62c:	103fc21e 	bne	r2,zero,80f538 <__alt_mem_onchip_mem+0xff807538>
static ALT_INLINE alt_irq_context ALT_ALWAYS_INLINE 
       alt_irq_disable_all (void)
{
  alt_irq_context context;

  NIOS2_READ_STATUS (context);
  80f630:	0005303a 	rdctl	r2,status
  80f634:	e0bffb15 	stw	r2,-20(fp)

  NIOS2_WRITE_STATUS (context & ~NIOS2_STATUS_PIE_MSK);
  80f638:	e0fffb17 	ldw	r3,-20(fp)
  80f63c:	00bfff84 	movi	r2,-2
  80f640:	1884703a 	and	r2,r3,r2
  80f644:	1001703a 	wrctl	status,r2
  
  return context;
  80f648:	e0bffb17 	ldw	r2,-20(fp)
  /* 
   * Ensure that interrupts are enabled, so that the circular buffer can 
   * drain.
   */

  context = alt_irq_disable_all ();
  80f64c:	e0bff815 	stw	r2,-32(fp)
  sp->ctrl |= ALTERA_AVALON_UART_CONTROL_TRDY_MSK |
  80f650:	e0bffc17 	ldw	r2,-16(fp)
  80f654:	10800117 	ldw	r2,4(r2)
  80f658:	10c11014 	ori	r3,r2,1088
  80f65c:	e0bffc17 	ldw	r2,-16(fp)
  80f660:	10c00115 	stw	r3,4(r2)
                 ALTERA_AVALON_UART_CONTROL_DCTS_MSK;
  IOWR_ALTERA_AVALON_UART_CONTROL(sp->base, sp->ctrl);
  80f664:	e0bffc17 	ldw	r2,-16(fp)
  80f668:	10800017 	ldw	r2,0(r2)
  80f66c:	10800304 	addi	r2,r2,12
  80f670:	e0fffc17 	ldw	r3,-16(fp)
  80f674:	18c00117 	ldw	r3,4(r3)
  80f678:	10c00035 	stwio	r3,0(r2)
  80f67c:	e0bff817 	ldw	r2,-32(fp)
  80f680:	e0bffa15 	stw	r2,-24(fp)
  status &= ~NIOS2_STATUS_PIE_MSK;
  status |= (context & NIOS2_STATUS_PIE_MSK);
  
  NIOS2_WRITE_STATUS (status);
#else
  NIOS2_WRITE_STATUS (context);
  80f684:	e0bffa17 	ldw	r2,-24(fp)
  80f688:	1001703a 	wrctl	status,r2
  alt_irq_enable_all (context);

  /* return the number of bytes written */

  return (len - count);
  80f68c:	e0fffe17 	ldw	r3,-8(fp)
  80f690:	e0bff417 	ldw	r2,-48(fp)
  80f694:	1885c83a 	sub	r2,r3,r2
}
  80f698:	e037883a 	mov	sp,fp
  80f69c:	dfc00117 	ldw	ra,4(sp)
  80f6a0:	df000017 	ldw	fp,0(sp)
  80f6a4:	dec00204 	addi	sp,sp,8
  80f6a8:	f800283a 	ret

0080f6ac <alt_dcache_flush_all>:
/*
 * alt_dcache_flush_all() is called to flush the entire data cache.
 */

void alt_dcache_flush_all (void)
{
  80f6ac:	defffe04 	addi	sp,sp,-8
  80f6b0:	df000115 	stw	fp,4(sp)
  80f6b4:	df000104 	addi	fp,sp,4
#if NIOS2_DCACHE_SIZE > 0
  char* i;
  
  for (i = (char*) 0; i < (char*) NIOS2_DCACHE_SIZE; i+= NIOS2_DCACHE_LINE_SIZE)
  80f6b8:	e03fff15 	stw	zero,-4(fp)
  80f6bc:	00000506 	br	80f6d4 <alt_dcache_flush_all+0x28>
  { 
    __asm__ volatile ("flushd (%0)" :: "r" (i));
  80f6c0:	e0bfff17 	ldw	r2,-4(fp)
  80f6c4:	1000003b 	flushd	0(r2)
void alt_dcache_flush_all (void)
{
#if NIOS2_DCACHE_SIZE > 0
  char* i;
  
  for (i = (char*) 0; i < (char*) NIOS2_DCACHE_SIZE; i+= NIOS2_DCACHE_LINE_SIZE)
  80f6c8:	e0bfff17 	ldw	r2,-4(fp)
  80f6cc:	10800804 	addi	r2,r2,32
  80f6d0:	e0bfff15 	stw	r2,-4(fp)
  80f6d4:	e0bfff17 	ldw	r2,-4(fp)
  80f6d8:	10820030 	cmpltui	r2,r2,2048
  80f6dc:	103ff81e 	bne	r2,zero,80f6c0 <__alt_mem_onchip_mem+0xff8076c0>
  { 
    __asm__ volatile ("flushd (%0)" :: "r" (i));
  }
#endif /* NIOS2_DCACHE_SIZE > 0 */
}
  80f6e0:	0001883a 	nop
  80f6e4:	e037883a 	mov	sp,fp
  80f6e8:	df000017 	ldw	fp,0(sp)
  80f6ec:	dec00104 	addi	sp,sp,4
  80f6f0:	f800283a 	ret

0080f6f4 <alt_get_errno>:
#undef errno

extern int errno;

static ALT_INLINE int* alt_get_errno(void)
{
  80f6f4:	defffe04 	addi	sp,sp,-8
  80f6f8:	dfc00115 	stw	ra,4(sp)
  80f6fc:	df000015 	stw	fp,0(sp)
  80f700:	d839883a 	mov	fp,sp
  return ((alt_errno) ? alt_errno() : &errno);
  80f704:	d0a00a17 	ldw	r2,-32728(gp)
  80f708:	10000326 	beq	r2,zero,80f718 <alt_get_errno+0x24>
  80f70c:	d0a00a17 	ldw	r2,-32728(gp)
  80f710:	103ee83a 	callr	r2
  80f714:	00000106 	br	80f71c <alt_get_errno+0x28>
  80f718:	d0a72c04 	addi	r2,gp,-25424
}
  80f71c:	e037883a 	mov	sp,fp
  80f720:	dfc00117 	ldw	ra,4(sp)
  80f724:	df000017 	ldw	fp,0(sp)
  80f728:	dec00204 	addi	sp,sp,8
  80f72c:	f800283a 	ret

0080f730 <alt_dev_llist_insert>:
/*
 *
 */

int alt_dev_llist_insert (alt_dev_llist* dev, alt_llist* list)
{
  80f730:	defffa04 	addi	sp,sp,-24
  80f734:	dfc00515 	stw	ra,20(sp)
  80f738:	df000415 	stw	fp,16(sp)
  80f73c:	df000404 	addi	fp,sp,16
  80f740:	e13ffe15 	stw	r4,-8(fp)
  80f744:	e17fff15 	stw	r5,-4(fp)
  /*
   * check that the device exists, and that it has a valid name.
   */

  if (!dev || !dev->name)
  80f748:	e0bffe17 	ldw	r2,-8(fp)
  80f74c:	10000326 	beq	r2,zero,80f75c <alt_dev_llist_insert+0x2c>
  80f750:	e0bffe17 	ldw	r2,-8(fp)
  80f754:	10800217 	ldw	r2,8(r2)
  80f758:	1000061e 	bne	r2,zero,80f774 <alt_dev_llist_insert+0x44>
  {
    ALT_ERRNO = EINVAL;
  80f75c:	080f6f40 	call	80f6f4 <alt_get_errno>
  80f760:	1007883a 	mov	r3,r2
  80f764:	00800584 	movi	r2,22
  80f768:	18800015 	stw	r2,0(r3)
    return -EINVAL;
  80f76c:	00bffa84 	movi	r2,-22
  80f770:	00001306 	br	80f7c0 <alt_dev_llist_insert+0x90>
  
  /*
   * register the device.
   */
  
  alt_llist_insert(list, &dev->llist);
  80f774:	e0bffe17 	ldw	r2,-8(fp)
  80f778:	e0ffff17 	ldw	r3,-4(fp)
  80f77c:	e0fffc15 	stw	r3,-16(fp)
  80f780:	e0bffd15 	stw	r2,-12(fp)
 */

static ALT_INLINE void ALT_ALWAYS_INLINE alt_llist_insert(alt_llist* list, 
                alt_llist* entry)
{
  entry->previous = list;
  80f784:	e0bffd17 	ldw	r2,-12(fp)
  80f788:	e0fffc17 	ldw	r3,-16(fp)
  80f78c:	10c00115 	stw	r3,4(r2)
  entry->next     = list->next;
  80f790:	e0bffc17 	ldw	r2,-16(fp)
  80f794:	10c00017 	ldw	r3,0(r2)
  80f798:	e0bffd17 	ldw	r2,-12(fp)
  80f79c:	10c00015 	stw	r3,0(r2)

  list->next->previous = entry;
  80f7a0:	e0bffc17 	ldw	r2,-16(fp)
  80f7a4:	10800017 	ldw	r2,0(r2)
  80f7a8:	e0fffd17 	ldw	r3,-12(fp)
  80f7ac:	10c00115 	stw	r3,4(r2)
  list->next           = entry;
  80f7b0:	e0bffc17 	ldw	r2,-16(fp)
  80f7b4:	e0fffd17 	ldw	r3,-12(fp)
  80f7b8:	10c00015 	stw	r3,0(r2)

  return 0;  
  80f7bc:	0005883a 	mov	r2,zero
}
  80f7c0:	e037883a 	mov	sp,fp
  80f7c4:	dfc00117 	ldw	ra,4(sp)
  80f7c8:	df000017 	ldw	fp,0(sp)
  80f7cc:	dec00204 	addi	sp,sp,8
  80f7d0:	f800283a 	ret

0080f7d4 <_do_ctors>:
/*
 * Run the C++ static constructors.
 */

void _do_ctors(void)
{
  80f7d4:	defffd04 	addi	sp,sp,-12
  80f7d8:	dfc00215 	stw	ra,8(sp)
  80f7dc:	df000115 	stw	fp,4(sp)
  80f7e0:	df000104 	addi	fp,sp,4
  constructor* ctor;

  for (ctor = &__CTOR_END__[-1]; ctor >= __CTOR_LIST__; ctor--)
  80f7e4:	00802074 	movhi	r2,129
  80f7e8:	10815304 	addi	r2,r2,1356
  80f7ec:	e0bfff15 	stw	r2,-4(fp)
  80f7f0:	00000606 	br	80f80c <_do_ctors+0x38>
        (*ctor) (); 
  80f7f4:	e0bfff17 	ldw	r2,-4(fp)
  80f7f8:	10800017 	ldw	r2,0(r2)
  80f7fc:	103ee83a 	callr	r2

void _do_ctors(void)
{
  constructor* ctor;

  for (ctor = &__CTOR_END__[-1]; ctor >= __CTOR_LIST__; ctor--)
  80f800:	e0bfff17 	ldw	r2,-4(fp)
  80f804:	10bfff04 	addi	r2,r2,-4
  80f808:	e0bfff15 	stw	r2,-4(fp)
  80f80c:	e0ffff17 	ldw	r3,-4(fp)
  80f810:	00802074 	movhi	r2,129
  80f814:	10815404 	addi	r2,r2,1360
  80f818:	18bff62e 	bgeu	r3,r2,80f7f4 <__alt_mem_onchip_mem+0xff8077f4>
        (*ctor) (); 
}
  80f81c:	0001883a 	nop
  80f820:	e037883a 	mov	sp,fp
  80f824:	dfc00117 	ldw	ra,4(sp)
  80f828:	df000017 	ldw	fp,0(sp)
  80f82c:	dec00204 	addi	sp,sp,8
  80f830:	f800283a 	ret

0080f834 <_do_dtors>:
/*
 * Run the C++ static destructors.
 */

void _do_dtors(void)
{
  80f834:	defffd04 	addi	sp,sp,-12
  80f838:	dfc00215 	stw	ra,8(sp)
  80f83c:	df000115 	stw	fp,4(sp)
  80f840:	df000104 	addi	fp,sp,4
  destructor* dtor;

  for (dtor = &__DTOR_END__[-1]; dtor >= __DTOR_LIST__; dtor--)
  80f844:	00802074 	movhi	r2,129
  80f848:	10815304 	addi	r2,r2,1356
  80f84c:	e0bfff15 	stw	r2,-4(fp)
  80f850:	00000606 	br	80f86c <_do_dtors+0x38>
        (*dtor) (); 
  80f854:	e0bfff17 	ldw	r2,-4(fp)
  80f858:	10800017 	ldw	r2,0(r2)
  80f85c:	103ee83a 	callr	r2

void _do_dtors(void)
{
  destructor* dtor;

  for (dtor = &__DTOR_END__[-1]; dtor >= __DTOR_LIST__; dtor--)
  80f860:	e0bfff17 	ldw	r2,-4(fp)
  80f864:	10bfff04 	addi	r2,r2,-4
  80f868:	e0bfff15 	stw	r2,-4(fp)
  80f86c:	e0ffff17 	ldw	r3,-4(fp)
  80f870:	00802074 	movhi	r2,129
  80f874:	10815404 	addi	r2,r2,1360
  80f878:	18bff62e 	bgeu	r3,r2,80f854 <__alt_mem_onchip_mem+0xff807854>
        (*dtor) (); 
}
  80f87c:	0001883a 	nop
  80f880:	e037883a 	mov	sp,fp
  80f884:	dfc00117 	ldw	ra,4(sp)
  80f888:	df000017 	ldw	fp,0(sp)
  80f88c:	dec00204 	addi	sp,sp,8
  80f890:	f800283a 	ret

0080f894 <alt_find_dev>:
 * "name" must be an exact match for the devices registered name for a match to
 * be found.
 */
 
alt_dev* alt_find_dev(const char* name, alt_llist* llist)
{
  80f894:	defffa04 	addi	sp,sp,-24
  80f898:	dfc00515 	stw	ra,20(sp)
  80f89c:	df000415 	stw	fp,16(sp)
  80f8a0:	df000404 	addi	fp,sp,16
  80f8a4:	e13ffe15 	stw	r4,-8(fp)
  80f8a8:	e17fff15 	stw	r5,-4(fp)
  alt_dev* next = (alt_dev*) llist->next;
  80f8ac:	e0bfff17 	ldw	r2,-4(fp)
  80f8b0:	10800017 	ldw	r2,0(r2)
  80f8b4:	e0bffc15 	stw	r2,-16(fp)
  alt_32 len;

  len  = strlen(name) + 1;
  80f8b8:	e13ffe17 	ldw	r4,-8(fp)
  80f8bc:	080a36c0 	call	80a36c <strlen>
  80f8c0:	10800044 	addi	r2,r2,1
  80f8c4:	e0bffd15 	stw	r2,-12(fp)
  /*
   * Check each list entry in turn, until a match is found, or we reach the
   * end of the list (i.e. next winds up pointing back to the list head).
   */ 

  while (next != (alt_dev*) llist)
  80f8c8:	00000d06 	br	80f900 <alt_find_dev+0x6c>
    /* 
     * memcmp() is used here rather than strcmp() in order to reduce the size
     * of the executable.
     */

    if (!memcmp (next->name, name, len))
  80f8cc:	e0bffc17 	ldw	r2,-16(fp)
  80f8d0:	10800217 	ldw	r2,8(r2)
  80f8d4:	e0fffd17 	ldw	r3,-12(fp)
  80f8d8:	180d883a 	mov	r6,r3
  80f8dc:	e17ffe17 	ldw	r5,-8(fp)
  80f8e0:	1009883a 	mov	r4,r2
  80f8e4:	08102080 	call	810208 <memcmp>
  80f8e8:	1000021e 	bne	r2,zero,80f8f4 <alt_find_dev+0x60>
    {
      /* match found */

      return next;
  80f8ec:	e0bffc17 	ldw	r2,-16(fp)
  80f8f0:	00000706 	br	80f910 <alt_find_dev+0x7c>
    }
    next = (alt_dev*) next->llist.next;
  80f8f4:	e0bffc17 	ldw	r2,-16(fp)
  80f8f8:	10800017 	ldw	r2,0(r2)
  80f8fc:	e0bffc15 	stw	r2,-16(fp)
  /*
   * Check each list entry in turn, until a match is found, or we reach the
   * end of the list (i.e. next winds up pointing back to the list head).
   */ 

  while (next != (alt_dev*) llist)
  80f900:	e0fffc17 	ldw	r3,-16(fp)
  80f904:	e0bfff17 	ldw	r2,-4(fp)
  80f908:	18bff01e 	bne	r3,r2,80f8cc <__alt_mem_onchip_mem+0xff8078cc>
    next = (alt_dev*) next->llist.next;
  }
  
  /* No match found */
  
  return NULL;
  80f90c:	0005883a 	mov	r2,zero
}
  80f910:	e037883a 	mov	sp,fp
  80f914:	dfc00117 	ldw	ra,4(sp)
  80f918:	df000017 	ldw	fp,0(sp)
  80f91c:	dec00204 	addi	sp,sp,8
  80f920:	f800283a 	ret

0080f924 <alt_find_file>:
 * either '/' or '\0' is the prefix of the filename. For example the filename:
 * "/myfilesystem/junk.txt" would match: "/myfilesystem", but not: "/myfile". 
 */
 
alt_dev* alt_find_file (const char* name)
{
  80f924:	defffb04 	addi	sp,sp,-20
  80f928:	dfc00415 	stw	ra,16(sp)
  80f92c:	df000315 	stw	fp,12(sp)
  80f930:	df000304 	addi	fp,sp,12
  80f934:	e13fff15 	stw	r4,-4(fp)
  alt_dev* next = (alt_dev*) alt_fs_list.next;   
  80f938:	d0a00517 	ldw	r2,-32748(gp)
  80f93c:	e0bffd15 	stw	r2,-12(fp)
  /*
   * Check each list entry in turn, until a match is found, or we reach the
   * end of the list (i.e. next winds up pointing back to the list head).
   */ 
 
  while (next != (alt_dev*) &alt_fs_list)
  80f940:	00003106 	br	80fa08 <alt_find_file+0xe4>
  {
    len = strlen(next->name);
  80f944:	e0bffd17 	ldw	r2,-12(fp)
  80f948:	10800217 	ldw	r2,8(r2)
  80f94c:	1009883a 	mov	r4,r2
  80f950:	080a36c0 	call	80a36c <strlen>
  80f954:	e0bffe15 	stw	r2,-8(fp)
    
    if (next->name[len-1] == '/')
  80f958:	e0bffd17 	ldw	r2,-12(fp)
  80f95c:	10c00217 	ldw	r3,8(r2)
  80f960:	e0bffe17 	ldw	r2,-8(fp)
  80f964:	10bfffc4 	addi	r2,r2,-1
  80f968:	1885883a 	add	r2,r3,r2
  80f96c:	10800003 	ldbu	r2,0(r2)
  80f970:	10803fcc 	andi	r2,r2,255
  80f974:	1080201c 	xori	r2,r2,128
  80f978:	10bfe004 	addi	r2,r2,-128
  80f97c:	10800bd8 	cmpnei	r2,r2,47
  80f980:	1000031e 	bne	r2,zero,80f990 <alt_find_file+0x6c>
    {
      len -= 1;
  80f984:	e0bffe17 	ldw	r2,-8(fp)
  80f988:	10bfffc4 	addi	r2,r2,-1
  80f98c:	e0bffe15 	stw	r2,-8(fp)
    }

    if (((name[len] == '/') || (name[len] == '\0')) && 
  80f990:	e0bffe17 	ldw	r2,-8(fp)
  80f994:	e0ffff17 	ldw	r3,-4(fp)
  80f998:	1885883a 	add	r2,r3,r2
  80f99c:	10800003 	ldbu	r2,0(r2)
  80f9a0:	10803fcc 	andi	r2,r2,255
  80f9a4:	1080201c 	xori	r2,r2,128
  80f9a8:	10bfe004 	addi	r2,r2,-128
  80f9ac:	10800be0 	cmpeqi	r2,r2,47
  80f9b0:	1000081e 	bne	r2,zero,80f9d4 <alt_find_file+0xb0>
  80f9b4:	e0bffe17 	ldw	r2,-8(fp)
  80f9b8:	e0ffff17 	ldw	r3,-4(fp)
  80f9bc:	1885883a 	add	r2,r3,r2
  80f9c0:	10800003 	ldbu	r2,0(r2)
  80f9c4:	10803fcc 	andi	r2,r2,255
  80f9c8:	1080201c 	xori	r2,r2,128
  80f9cc:	10bfe004 	addi	r2,r2,-128
  80f9d0:	10000a1e 	bne	r2,zero,80f9fc <alt_find_file+0xd8>
        !memcmp (next->name, name, len))
  80f9d4:	e0bffd17 	ldw	r2,-12(fp)
  80f9d8:	10800217 	ldw	r2,8(r2)
  80f9dc:	e0fffe17 	ldw	r3,-8(fp)
  80f9e0:	180d883a 	mov	r6,r3
  80f9e4:	e17fff17 	ldw	r5,-4(fp)
  80f9e8:	1009883a 	mov	r4,r2
  80f9ec:	08102080 	call	810208 <memcmp>
    if (next->name[len-1] == '/')
    {
      len -= 1;
    }

    if (((name[len] == '/') || (name[len] == '\0')) && 
  80f9f0:	1000021e 	bne	r2,zero,80f9fc <alt_find_file+0xd8>
        !memcmp (next->name, name, len))
    {
      /* match found */

      return next;
  80f9f4:	e0bffd17 	ldw	r2,-12(fp)
  80f9f8:	00000706 	br	80fa18 <alt_find_file+0xf4>
    }
    next = (alt_dev*) next->llist.next;
  80f9fc:	e0bffd17 	ldw	r2,-12(fp)
  80fa00:	10800017 	ldw	r2,0(r2)
  80fa04:	e0bffd15 	stw	r2,-12(fp)
  /*
   * Check each list entry in turn, until a match is found, or we reach the
   * end of the list (i.e. next winds up pointing back to the list head).
   */ 
 
  while (next != (alt_dev*) &alt_fs_list)
  80fa08:	e0fffd17 	ldw	r3,-12(fp)
  80fa0c:	d0a00504 	addi	r2,gp,-32748
  80fa10:	18bfcc1e 	bne	r3,r2,80f944 <__alt_mem_onchip_mem+0xff807944>
    next = (alt_dev*) next->llist.next;
  }
  
  /* No match found */
  
  return NULL;     
  80fa14:	0005883a 	mov	r2,zero
}
  80fa18:	e037883a 	mov	sp,fp
  80fa1c:	dfc00117 	ldw	ra,4(sp)
  80fa20:	df000017 	ldw	fp,0(sp)
  80fa24:	dec00204 	addi	sp,sp,8
  80fa28:	f800283a 	ret

0080fa2c <alt_get_fd>:
 * the offset of the file descriptor within the file descriptor array). A
 * negative value indicates failure.
 */

int alt_get_fd (alt_dev* dev)
{
  80fa2c:	defffc04 	addi	sp,sp,-16
  80fa30:	df000315 	stw	fp,12(sp)
  80fa34:	df000304 	addi	fp,sp,12
  80fa38:	e13fff15 	stw	r4,-4(fp)
  alt_32 i;
  int rc = -EMFILE;
  80fa3c:	00bffa04 	movi	r2,-24
  80fa40:	e0bffe15 	stw	r2,-8(fp)
   * indicates the highest file descriptor ever allocated. This is used to
   * improve efficency when searching the file descriptor list, and 
   * therefore reduce contention on the alt_fd_list_lock semaphore. 
   */

  for (i = 0; i < ALT_MAX_FD; i++)
  80fa44:	e03ffd15 	stw	zero,-12(fp)
  80fa48:	00001906 	br	80fab0 <alt_get_fd+0x84>
  {
    if (!alt_fd_list[i].dev)
  80fa4c:	00802074 	movhi	r2,129
  80fa50:	10846904 	addi	r2,r2,4516
  80fa54:	e0fffd17 	ldw	r3,-12(fp)
  80fa58:	18c00324 	muli	r3,r3,12
  80fa5c:	10c5883a 	add	r2,r2,r3
  80fa60:	10800017 	ldw	r2,0(r2)
  80fa64:	10000f1e 	bne	r2,zero,80faa4 <alt_get_fd+0x78>
    {
      alt_fd_list[i].dev = dev;
  80fa68:	00802074 	movhi	r2,129
  80fa6c:	10846904 	addi	r2,r2,4516
  80fa70:	e0fffd17 	ldw	r3,-12(fp)
  80fa74:	18c00324 	muli	r3,r3,12
  80fa78:	10c5883a 	add	r2,r2,r3
  80fa7c:	e0ffff17 	ldw	r3,-4(fp)
  80fa80:	10c00015 	stw	r3,0(r2)
      if (i > alt_max_fd)
  80fa84:	d0e00917 	ldw	r3,-32732(gp)
  80fa88:	e0bffd17 	ldw	r2,-12(fp)
  80fa8c:	1880020e 	bge	r3,r2,80fa98 <alt_get_fd+0x6c>
      {
        alt_max_fd = i;
  80fa90:	e0bffd17 	ldw	r2,-12(fp)
  80fa94:	d0a00915 	stw	r2,-32732(gp)
      }
      rc = i;
  80fa98:	e0bffd17 	ldw	r2,-12(fp)
  80fa9c:	e0bffe15 	stw	r2,-8(fp)
      goto alt_get_fd_exit;
  80faa0:	00000606 	br	80fabc <alt_get_fd+0x90>
   * indicates the highest file descriptor ever allocated. This is used to
   * improve efficency when searching the file descriptor list, and 
   * therefore reduce contention on the alt_fd_list_lock semaphore. 
   */

  for (i = 0; i < ALT_MAX_FD; i++)
  80faa4:	e0bffd17 	ldw	r2,-12(fp)
  80faa8:	10800044 	addi	r2,r2,1
  80faac:	e0bffd15 	stw	r2,-12(fp)
  80fab0:	e0bffd17 	ldw	r2,-12(fp)
  80fab4:	10800810 	cmplti	r2,r2,32
  80fab8:	103fe41e 	bne	r2,zero,80fa4c <__alt_mem_onchip_mem+0xff807a4c>
   * file descriptor pool.
   */

  ALT_SEM_POST(alt_fd_list_lock);

  return rc;
  80fabc:	e0bffe17 	ldw	r2,-8(fp)
}
  80fac0:	e037883a 	mov	sp,fp
  80fac4:	df000017 	ldw	fp,0(sp)
  80fac8:	dec00104 	addi	sp,sp,4
  80facc:	f800283a 	ret

0080fad0 <alt_icache_flush_all>:
/*
 * alt_icache_flush_all() is called to flush the entire instruction cache.
 */

void alt_icache_flush_all (void)
{
  80fad0:	defffe04 	addi	sp,sp,-8
  80fad4:	dfc00115 	stw	ra,4(sp)
  80fad8:	df000015 	stw	fp,0(sp)
  80fadc:	d839883a 	mov	fp,sp
#if NIOS2_ICACHE_SIZE > 0
  alt_icache_flush (0, NIOS2_ICACHE_SIZE);
  80fae0:	01440004 	movi	r5,4096
  80fae4:	0009883a 	mov	r4,zero
  80fae8:	08100900 	call	810090 <alt_icache_flush>
#endif
}
  80faec:	0001883a 	nop
  80faf0:	e037883a 	mov	sp,fp
  80faf4:	dfc00117 	ldw	ra,4(sp)
  80faf8:	df000017 	ldw	fp,0(sp)
  80fafc:	dec00204 	addi	sp,sp,8
  80fb00:	f800283a 	ret

0080fb04 <alt_ic_isr_register>:
  * @param irq              IRQ number
  * @return                 0 if successful, else error (-1)
  */
int alt_ic_isr_register(alt_u32 ic_id, alt_u32 irq, alt_isr_func isr, 
  void *isr_context, void *flags)
{
  80fb04:	defff904 	addi	sp,sp,-28
  80fb08:	dfc00615 	stw	ra,24(sp)
  80fb0c:	df000515 	stw	fp,20(sp)
  80fb10:	df000504 	addi	fp,sp,20
  80fb14:	e13ffc15 	stw	r4,-16(fp)
  80fb18:	e17ffd15 	stw	r5,-12(fp)
  80fb1c:	e1bffe15 	stw	r6,-8(fp)
  80fb20:	e1ffff15 	stw	r7,-4(fp)
    return alt_iic_isr_register(ic_id, irq, isr, isr_context, flags);
  80fb24:	e0800217 	ldw	r2,8(fp)
  80fb28:	d8800015 	stw	r2,0(sp)
  80fb2c:	e1ffff17 	ldw	r7,-4(fp)
  80fb30:	e1bffe17 	ldw	r6,-8(fp)
  80fb34:	e17ffd17 	ldw	r5,-12(fp)
  80fb38:	e13ffc17 	ldw	r4,-16(fp)
  80fb3c:	080fcb40 	call	80fcb4 <alt_iic_isr_register>
}  
  80fb40:	e037883a 	mov	sp,fp
  80fb44:	dfc00117 	ldw	ra,4(sp)
  80fb48:	df000017 	ldw	fp,0(sp)
  80fb4c:	dec00204 	addi	sp,sp,8
  80fb50:	f800283a 	ret

0080fb54 <alt_ic_irq_enable>:
  * @param ic_id            Ignored.
  * @param irq              IRQ number
  * @return                 0 if successful, else error (-1)
  */
int alt_ic_irq_enable (alt_u32 ic_id, alt_u32 irq)
{
  80fb54:	defff904 	addi	sp,sp,-28
  80fb58:	df000615 	stw	fp,24(sp)
  80fb5c:	df000604 	addi	fp,sp,24
  80fb60:	e13ffe15 	stw	r4,-8(fp)
  80fb64:	e17fff15 	stw	r5,-4(fp)
  80fb68:	e0bfff17 	ldw	r2,-4(fp)
  80fb6c:	e0bffa15 	stw	r2,-24(fp)
static ALT_INLINE alt_irq_context ALT_ALWAYS_INLINE 
       alt_irq_disable_all (void)
{
  alt_irq_context context;

  NIOS2_READ_STATUS (context);
  80fb70:	0005303a 	rdctl	r2,status
  80fb74:	e0bffb15 	stw	r2,-20(fp)

  NIOS2_WRITE_STATUS (context & ~NIOS2_STATUS_PIE_MSK);
  80fb78:	e0fffb17 	ldw	r3,-20(fp)
  80fb7c:	00bfff84 	movi	r2,-2
  80fb80:	1884703a 	and	r2,r3,r2
  80fb84:	1001703a 	wrctl	status,r2
  
  return context;
  80fb88:	e0bffb17 	ldw	r2,-20(fp)
static ALT_INLINE int ALT_ALWAYS_INLINE alt_irq_enable (alt_u32 id)
{
  alt_irq_context  status;
  extern volatile alt_u32 alt_irq_active;

  status = alt_irq_disable_all ();
  80fb8c:	e0bffc15 	stw	r2,-16(fp)

  alt_irq_active |= (1 << id);
  80fb90:	00c00044 	movi	r3,1
  80fb94:	e0bffa17 	ldw	r2,-24(fp)
  80fb98:	1884983a 	sll	r2,r3,r2
  80fb9c:	1007883a 	mov	r3,r2
  80fba0:	d0a73517 	ldw	r2,-25388(gp)
  80fba4:	1884b03a 	or	r2,r3,r2
  80fba8:	d0a73515 	stw	r2,-25388(gp)
  NIOS2_WRITE_IENABLE (alt_irq_active);
  80fbac:	d0a73517 	ldw	r2,-25388(gp)
  80fbb0:	100170fa 	wrctl	ienable,r2
  80fbb4:	e0bffc17 	ldw	r2,-16(fp)
  80fbb8:	e0bffd15 	stw	r2,-12(fp)
  status &= ~NIOS2_STATUS_PIE_MSK;
  status |= (context & NIOS2_STATUS_PIE_MSK);
  
  NIOS2_WRITE_STATUS (status);
#else
  NIOS2_WRITE_STATUS (context);
  80fbbc:	e0bffd17 	ldw	r2,-12(fp)
  80fbc0:	1001703a 	wrctl	status,r2

  alt_irq_enable_all(status);

  return 0;
  80fbc4:	0005883a 	mov	r2,zero
    return alt_irq_enable(irq);
  80fbc8:	0001883a 	nop
}
  80fbcc:	e037883a 	mov	sp,fp
  80fbd0:	df000017 	ldw	fp,0(sp)
  80fbd4:	dec00104 	addi	sp,sp,4
  80fbd8:	f800283a 	ret

0080fbdc <alt_ic_irq_disable>:
  * @param ic_id            Ignored.
  * @param irq              IRQ number
  * @return                 0 if successful, else error (-1)
  */
int alt_ic_irq_disable(alt_u32 ic_id, alt_u32 irq)
{
  80fbdc:	defff904 	addi	sp,sp,-28
  80fbe0:	df000615 	stw	fp,24(sp)
  80fbe4:	df000604 	addi	fp,sp,24
  80fbe8:	e13ffe15 	stw	r4,-8(fp)
  80fbec:	e17fff15 	stw	r5,-4(fp)
  80fbf0:	e0bfff17 	ldw	r2,-4(fp)
  80fbf4:	e0bffa15 	stw	r2,-24(fp)
static ALT_INLINE alt_irq_context ALT_ALWAYS_INLINE 
       alt_irq_disable_all (void)
{
  alt_irq_context context;

  NIOS2_READ_STATUS (context);
  80fbf8:	0005303a 	rdctl	r2,status
  80fbfc:	e0bffb15 	stw	r2,-20(fp)

  NIOS2_WRITE_STATUS (context & ~NIOS2_STATUS_PIE_MSK);
  80fc00:	e0fffb17 	ldw	r3,-20(fp)
  80fc04:	00bfff84 	movi	r2,-2
  80fc08:	1884703a 	and	r2,r3,r2
  80fc0c:	1001703a 	wrctl	status,r2
  
  return context;
  80fc10:	e0bffb17 	ldw	r2,-20(fp)
static ALT_INLINE int ALT_ALWAYS_INLINE alt_irq_disable (alt_u32 id)
{
  alt_irq_context  status;
  extern volatile alt_u32 alt_irq_active;

  status = alt_irq_disable_all ();
  80fc14:	e0bffc15 	stw	r2,-16(fp)

  alt_irq_active &= ~(1 << id);
  80fc18:	00c00044 	movi	r3,1
  80fc1c:	e0bffa17 	ldw	r2,-24(fp)
  80fc20:	1884983a 	sll	r2,r3,r2
  80fc24:	0084303a 	nor	r2,zero,r2
  80fc28:	1007883a 	mov	r3,r2
  80fc2c:	d0a73517 	ldw	r2,-25388(gp)
  80fc30:	1884703a 	and	r2,r3,r2
  80fc34:	d0a73515 	stw	r2,-25388(gp)
  NIOS2_WRITE_IENABLE (alt_irq_active);
  80fc38:	d0a73517 	ldw	r2,-25388(gp)
  80fc3c:	100170fa 	wrctl	ienable,r2
  80fc40:	e0bffc17 	ldw	r2,-16(fp)
  80fc44:	e0bffd15 	stw	r2,-12(fp)
  status &= ~NIOS2_STATUS_PIE_MSK;
  status |= (context & NIOS2_STATUS_PIE_MSK);
  
  NIOS2_WRITE_STATUS (status);
#else
  NIOS2_WRITE_STATUS (context);
  80fc48:	e0bffd17 	ldw	r2,-12(fp)
  80fc4c:	1001703a 	wrctl	status,r2

  alt_irq_enable_all(status);

  return 0;
  80fc50:	0005883a 	mov	r2,zero
    return alt_irq_disable(irq);
  80fc54:	0001883a 	nop
}
  80fc58:	e037883a 	mov	sp,fp
  80fc5c:	df000017 	ldw	fp,0(sp)
  80fc60:	dec00104 	addi	sp,sp,4
  80fc64:	f800283a 	ret

0080fc68 <alt_ic_irq_enabled>:
  * @param irq              IRQ number
  * @return                 Zero if corresponding interrupt is disabled and
  *                         non-zero otherwise.
  */
alt_u32 alt_ic_irq_enabled(alt_u32 ic_id, alt_u32 irq)
{
  80fc68:	defffc04 	addi	sp,sp,-16
  80fc6c:	df000315 	stw	fp,12(sp)
  80fc70:	df000304 	addi	fp,sp,12
  80fc74:	e13ffe15 	stw	r4,-8(fp)
  80fc78:	e17fff15 	stw	r5,-4(fp)
    alt_u32 irq_enabled;

    NIOS2_READ_IENABLE(irq_enabled);
  80fc7c:	000530fa 	rdctl	r2,ienable
  80fc80:	e0bffd15 	stw	r2,-12(fp)

    return (irq_enabled & (1 << irq)) ? 1: 0;
  80fc84:	00c00044 	movi	r3,1
  80fc88:	e0bfff17 	ldw	r2,-4(fp)
  80fc8c:	1884983a 	sll	r2,r3,r2
  80fc90:	1007883a 	mov	r3,r2
  80fc94:	e0bffd17 	ldw	r2,-12(fp)
  80fc98:	1884703a 	and	r2,r3,r2
  80fc9c:	1004c03a 	cmpne	r2,r2,zero
  80fca0:	10803fcc 	andi	r2,r2,255
}
  80fca4:	e037883a 	mov	sp,fp
  80fca8:	df000017 	ldw	fp,0(sp)
  80fcac:	dec00104 	addi	sp,sp,4
  80fcb0:	f800283a 	ret

0080fcb4 <alt_iic_isr_register>:
  * @param flags            
  * @return                 0 if successful, else error (-1)
  */
int alt_iic_isr_register(alt_u32 ic_id, alt_u32 irq, alt_isr_func isr, 
  void *isr_context, void *flags)
{
  80fcb4:	defff504 	addi	sp,sp,-44
  80fcb8:	dfc00a15 	stw	ra,40(sp)
  80fcbc:	df000915 	stw	fp,36(sp)
  80fcc0:	df000904 	addi	fp,sp,36
  80fcc4:	e13ffc15 	stw	r4,-16(fp)
  80fcc8:	e17ffd15 	stw	r5,-12(fp)
  80fccc:	e1bffe15 	stw	r6,-8(fp)
  80fcd0:	e1ffff15 	stw	r7,-4(fp)
  int rc = -EINVAL;  
  80fcd4:	00bffa84 	movi	r2,-22
  80fcd8:	e0bff715 	stw	r2,-36(fp)
  int id = irq;             /* IRQ interpreted as the interrupt ID. */
  80fcdc:	e0bffd17 	ldw	r2,-12(fp)
  80fce0:	e0bff815 	stw	r2,-32(fp)
  alt_irq_context status;

  if (id < ALT_NIRQ)
  80fce4:	e0bff817 	ldw	r2,-32(fp)
  80fce8:	10800808 	cmpgei	r2,r2,32
  80fcec:	1000271e 	bne	r2,zero,80fd8c <alt_iic_isr_register+0xd8>
static ALT_INLINE alt_irq_context ALT_ALWAYS_INLINE 
       alt_irq_disable_all (void)
{
  alt_irq_context context;

  NIOS2_READ_STATUS (context);
  80fcf0:	0005303a 	rdctl	r2,status
  80fcf4:	e0bffb15 	stw	r2,-20(fp)

  NIOS2_WRITE_STATUS (context & ~NIOS2_STATUS_PIE_MSK);
  80fcf8:	e0fffb17 	ldw	r3,-20(fp)
  80fcfc:	00bfff84 	movi	r2,-2
  80fd00:	1884703a 	and	r2,r3,r2
  80fd04:	1001703a 	wrctl	status,r2
  
  return context;
  80fd08:	e0bffb17 	ldw	r2,-20(fp)
     * interrupts are disabled while the handler tables are updated to ensure
     * that an interrupt doesn't occur while the tables are in an inconsistant
     * state.
     */

    status = alt_irq_disable_all();
  80fd0c:	e0bffa15 	stw	r2,-24(fp)

    alt_irq[id].handler = isr;
  80fd10:	00802074 	movhi	r2,129
  80fd14:	1090b304 	addi	r2,r2,17100
  80fd18:	e0fff817 	ldw	r3,-32(fp)
  80fd1c:	180690fa 	slli	r3,r3,3
  80fd20:	10c5883a 	add	r2,r2,r3
  80fd24:	e0fffe17 	ldw	r3,-8(fp)
  80fd28:	10c00015 	stw	r3,0(r2)
    alt_irq[id].context = isr_context;
  80fd2c:	00802074 	movhi	r2,129
  80fd30:	1090b304 	addi	r2,r2,17100
  80fd34:	e0fff817 	ldw	r3,-32(fp)
  80fd38:	180690fa 	slli	r3,r3,3
  80fd3c:	10c5883a 	add	r2,r2,r3
  80fd40:	10800104 	addi	r2,r2,4
  80fd44:	e0ffff17 	ldw	r3,-4(fp)
  80fd48:	10c00015 	stw	r3,0(r2)

    rc = (isr) ? alt_ic_irq_enable(ic_id, id) : alt_ic_irq_disable(ic_id, id);
  80fd4c:	e0bffe17 	ldw	r2,-8(fp)
  80fd50:	10000526 	beq	r2,zero,80fd68 <alt_iic_isr_register+0xb4>
  80fd54:	e0bff817 	ldw	r2,-32(fp)
  80fd58:	100b883a 	mov	r5,r2
  80fd5c:	e13ffc17 	ldw	r4,-16(fp)
  80fd60:	080fb540 	call	80fb54 <alt_ic_irq_enable>
  80fd64:	00000406 	br	80fd78 <alt_iic_isr_register+0xc4>
  80fd68:	e0bff817 	ldw	r2,-32(fp)
  80fd6c:	100b883a 	mov	r5,r2
  80fd70:	e13ffc17 	ldw	r4,-16(fp)
  80fd74:	080fbdc0 	call	80fbdc <alt_ic_irq_disable>
  80fd78:	e0bff715 	stw	r2,-36(fp)
  80fd7c:	e0bffa17 	ldw	r2,-24(fp)
  80fd80:	e0bff915 	stw	r2,-28(fp)
  status &= ~NIOS2_STATUS_PIE_MSK;
  status |= (context & NIOS2_STATUS_PIE_MSK);
  
  NIOS2_WRITE_STATUS (status);
#else
  NIOS2_WRITE_STATUS (context);
  80fd84:	e0bff917 	ldw	r2,-28(fp)
  80fd88:	1001703a 	wrctl	status,r2

    alt_irq_enable_all(status);
  }

  return rc; 
  80fd8c:	e0bff717 	ldw	r2,-36(fp)
}
  80fd90:	e037883a 	mov	sp,fp
  80fd94:	dfc00117 	ldw	ra,4(sp)
  80fd98:	df000017 	ldw	fp,0(sp)
  80fd9c:	dec00204 	addi	sp,sp,8
  80fda0:	f800283a 	ret

0080fda4 <alt_open_fd>:
 * If the device can not be succesfully opened, then the input file descriptor
 * remains unchanged.
 */

static void alt_open_fd(alt_fd* fd, const char* name, int flags, int mode)
{
  80fda4:	defff904 	addi	sp,sp,-28
  80fda8:	dfc00615 	stw	ra,24(sp)
  80fdac:	df000515 	stw	fp,20(sp)
  80fdb0:	df000504 	addi	fp,sp,20
  80fdb4:	e13ffc15 	stw	r4,-16(fp)
  80fdb8:	e17ffd15 	stw	r5,-12(fp)
  80fdbc:	e1bffe15 	stw	r6,-8(fp)
  80fdc0:	e1ffff15 	stw	r7,-4(fp)
  int old;

  old = open (name, flags, mode);
  80fdc4:	e1bfff17 	ldw	r6,-4(fp)
  80fdc8:	e17ffe17 	ldw	r5,-8(fp)
  80fdcc:	e13ffd17 	ldw	r4,-12(fp)
  80fdd0:	080cc200 	call	80cc20 <open>
  80fdd4:	e0bffb15 	stw	r2,-20(fp)

  if (old >= 0)
  80fdd8:	e0bffb17 	ldw	r2,-20(fp)
  80fddc:	10001c16 	blt	r2,zero,80fe50 <alt_open_fd+0xac>
  {
    fd->dev      = alt_fd_list[old].dev;
  80fde0:	00802074 	movhi	r2,129
  80fde4:	10846904 	addi	r2,r2,4516
  80fde8:	e0fffb17 	ldw	r3,-20(fp)
  80fdec:	18c00324 	muli	r3,r3,12
  80fdf0:	10c5883a 	add	r2,r2,r3
  80fdf4:	10c00017 	ldw	r3,0(r2)
  80fdf8:	e0bffc17 	ldw	r2,-16(fp)
  80fdfc:	10c00015 	stw	r3,0(r2)
    fd->priv     = alt_fd_list[old].priv;
  80fe00:	00802074 	movhi	r2,129
  80fe04:	10846904 	addi	r2,r2,4516
  80fe08:	e0fffb17 	ldw	r3,-20(fp)
  80fe0c:	18c00324 	muli	r3,r3,12
  80fe10:	10c5883a 	add	r2,r2,r3
  80fe14:	10800104 	addi	r2,r2,4
  80fe18:	10c00017 	ldw	r3,0(r2)
  80fe1c:	e0bffc17 	ldw	r2,-16(fp)
  80fe20:	10c00115 	stw	r3,4(r2)
    fd->fd_flags = alt_fd_list[old].fd_flags;
  80fe24:	00802074 	movhi	r2,129
  80fe28:	10846904 	addi	r2,r2,4516
  80fe2c:	e0fffb17 	ldw	r3,-20(fp)
  80fe30:	18c00324 	muli	r3,r3,12
  80fe34:	10c5883a 	add	r2,r2,r3
  80fe38:	10800204 	addi	r2,r2,8
  80fe3c:	10c00017 	ldw	r3,0(r2)
  80fe40:	e0bffc17 	ldw	r2,-16(fp)
  80fe44:	10c00215 	stw	r3,8(r2)

    alt_release_fd (old);
  80fe48:	e13ffb17 	ldw	r4,-20(fp)
  80fe4c:	080ceac0 	call	80ceac <alt_release_fd>
  }
} 
  80fe50:	0001883a 	nop
  80fe54:	e037883a 	mov	sp,fp
  80fe58:	dfc00117 	ldw	ra,4(sp)
  80fe5c:	df000017 	ldw	fp,0(sp)
  80fe60:	dec00204 	addi	sp,sp,8
  80fe64:	f800283a 	ret

0080fe68 <alt_io_redirect>:
 */
 
void alt_io_redirect(const char* stdout_dev, 
                     const char* stdin_dev, 
                     const char* stderr_dev)
{
  80fe68:	defffb04 	addi	sp,sp,-20
  80fe6c:	dfc00415 	stw	ra,16(sp)
  80fe70:	df000315 	stw	fp,12(sp)
  80fe74:	df000304 	addi	fp,sp,12
  80fe78:	e13ffd15 	stw	r4,-12(fp)
  80fe7c:	e17ffe15 	stw	r5,-8(fp)
  80fe80:	e1bfff15 	stw	r6,-4(fp)
  /* Redirect the channels */

  alt_open_fd (&alt_fd_list[STDOUT_FILENO], stdout_dev, O_WRONLY, 0777);
  80fe84:	01c07fc4 	movi	r7,511
  80fe88:	01800044 	movi	r6,1
  80fe8c:	e17ffd17 	ldw	r5,-12(fp)
  80fe90:	01002074 	movhi	r4,129
  80fe94:	21046c04 	addi	r4,r4,4528
  80fe98:	080fda40 	call	80fda4 <alt_open_fd>
  alt_open_fd (&alt_fd_list[STDIN_FILENO], stdin_dev, O_RDONLY, 0777);
  80fe9c:	01c07fc4 	movi	r7,511
  80fea0:	000d883a 	mov	r6,zero
  80fea4:	e17ffe17 	ldw	r5,-8(fp)
  80fea8:	01002074 	movhi	r4,129
  80feac:	21046904 	addi	r4,r4,4516
  80feb0:	080fda40 	call	80fda4 <alt_open_fd>
  alt_open_fd (&alt_fd_list[STDERR_FILENO], stderr_dev, O_WRONLY, 0777);
  80feb4:	01c07fc4 	movi	r7,511
  80feb8:	01800044 	movi	r6,1
  80febc:	e17fff17 	ldw	r5,-4(fp)
  80fec0:	01002074 	movhi	r4,129
  80fec4:	21046f04 	addi	r4,r4,4540
  80fec8:	080fda40 	call	80fda4 <alt_open_fd>
}  
  80fecc:	0001883a 	nop
  80fed0:	e037883a 	mov	sp,fp
  80fed4:	dfc00117 	ldw	ra,4(sp)
  80fed8:	df000017 	ldw	fp,0(sp)
  80fedc:	dec00204 	addi	sp,sp,8
  80fee0:	f800283a 	ret

0080fee4 <usleep>:
#if defined (__GNUC__) && __GNUC__ >= 4
int ALT_USLEEP (useconds_t us)
#else
unsigned int ALT_USLEEP (unsigned int us)
#endif
{
  80fee4:	defffd04 	addi	sp,sp,-12
  80fee8:	dfc00215 	stw	ra,8(sp)
  80feec:	df000115 	stw	fp,4(sp)
  80fef0:	df000104 	addi	fp,sp,4
  80fef4:	e13fff15 	stw	r4,-4(fp)
  return alt_busy_sleep(us);
  80fef8:	e13fff17 	ldw	r4,-4(fp)
  80fefc:	080ff380 	call	80ff38 <alt_busy_sleep>
}
  80ff00:	e037883a 	mov	sp,fp
  80ff04:	dfc00117 	ldw	ra,4(sp)
  80ff08:	df000017 	ldw	fp,0(sp)
  80ff0c:	dec00204 	addi	sp,sp,8
  80ff10:	f800283a 	ret

0080ff14 <altera_nios2_gen2_irq_init>:
/*
 * To initialize the internal interrupt controller, just clear the IENABLE
 * register so that all possible IRQs are disabled.
 */
void altera_nios2_gen2_irq_init(void) 
{
  80ff14:	deffff04 	addi	sp,sp,-4
  80ff18:	df000015 	stw	fp,0(sp)
  80ff1c:	d839883a 	mov	fp,sp
    NIOS2_WRITE_IENABLE(0);
  80ff20:	000170fa 	wrctl	ienable,zero
}
  80ff24:	0001883a 	nop
  80ff28:	e037883a 	mov	sp,fp
  80ff2c:	df000017 	ldw	fp,0(sp)
  80ff30:	dec00104 	addi	sp,sp,4
  80ff34:	f800283a 	ret

0080ff38 <alt_busy_sleep>:
#include "alt_types.h"

#include "priv/alt_busy_sleep.h"

unsigned int alt_busy_sleep (unsigned int us)
{
  80ff38:	defffa04 	addi	sp,sp,-24
  80ff3c:	dfc00515 	stw	ra,20(sp)
  80ff40:	df000415 	stw	fp,16(sp)
  80ff44:	df000404 	addi	fp,sp,16
  80ff48:	e13fff15 	stw	r4,-4(fp)
  {
    cycles_per_loop = 9;
  }
  else  
  {
    cycles_per_loop = 3;
  80ff4c:	008000c4 	movi	r2,3
  80ff50:	e0bffd15 	stw	r2,-12(fp)
  }
  

  big_loops = us / (INT_MAX/
  (ALT_CPU_FREQ/(cycles_per_loop * 1000000)));
  80ff54:	e0fffd17 	ldw	r3,-12(fp)
  80ff58:	008003f4 	movhi	r2,15
  80ff5c:	10909004 	addi	r2,r2,16960
  80ff60:	1885383a 	mul	r2,r3,r2
  80ff64:	100b883a 	mov	r5,r2
  80ff68:	0100bef4 	movhi	r4,763
  80ff6c:	213c2004 	addi	r4,r4,-3968
  80ff70:	080c3740 	call	80c374 <__udivsi3>
  {
    cycles_per_loop = 3;
  }
  

  big_loops = us / (INT_MAX/
  80ff74:	100b883a 	mov	r5,r2
  80ff78:	01200034 	movhi	r4,32768
  80ff7c:	213fffc4 	addi	r4,r4,-1
  80ff80:	080c3740 	call	80c374 <__udivsi3>
  80ff84:	100b883a 	mov	r5,r2
  80ff88:	e13fff17 	ldw	r4,-4(fp)
  80ff8c:	080c3740 	call	80c374 <__udivsi3>
  80ff90:	e0bffe15 	stw	r2,-8(fp)
  (ALT_CPU_FREQ/(cycles_per_loop * 1000000)));

  if (big_loops)
  80ff94:	e0bffe17 	ldw	r2,-8(fp)
  80ff98:	10002a26 	beq	r2,zero,810044 <alt_busy_sleep+0x10c>
  {
    for(i=0;i<big_loops;i++)
  80ff9c:	e03ffc15 	stw	zero,-16(fp)
  80ffa0:	00001706 	br	810000 <alt_busy_sleep+0xc8>
      /*
      * Do NOT Try to single step the asm statement below 
      * (single step will never return)
      * Step out of this function or set a breakpoint after the asm statements
      */
      __asm__ volatile (
  80ffa4:	00a00034 	movhi	r2,32768
  80ffa8:	10bfffc4 	addi	r2,r2,-1
  80ffac:	10bfffc4 	addi	r2,r2,-1
  80ffb0:	103ffe1e 	bne	r2,zero,80ffac <__alt_mem_onchip_mem+0xff807fac>
        "\n\t.pushsection .debug_alt_sim_info"
        "\n\t.int 4, 0, 0b, 1b"
        "\n\t.popsection"
        :: "r" (INT_MAX));
      us -= (INT_MAX/(ALT_CPU_FREQ/
      (cycles_per_loop * 1000000)));
  80ffb4:	e0fffd17 	ldw	r3,-12(fp)
  80ffb8:	008003f4 	movhi	r2,15
  80ffbc:	10909004 	addi	r2,r2,16960
  80ffc0:	1885383a 	mul	r2,r3,r2
        "\n1:"
        "\n\t.pushsection .debug_alt_sim_info"
        "\n\t.int 4, 0, 0b, 1b"
        "\n\t.popsection"
        :: "r" (INT_MAX));
      us -= (INT_MAX/(ALT_CPU_FREQ/
  80ffc4:	100b883a 	mov	r5,r2
  80ffc8:	0100bef4 	movhi	r4,763
  80ffcc:	213c2004 	addi	r4,r4,-3968
  80ffd0:	080c3740 	call	80c374 <__udivsi3>
  80ffd4:	100b883a 	mov	r5,r2
  80ffd8:	01200034 	movhi	r4,32768
  80ffdc:	213fffc4 	addi	r4,r4,-1
  80ffe0:	080c3740 	call	80c374 <__udivsi3>
  80ffe4:	1007883a 	mov	r3,r2
  80ffe8:	e0bfff17 	ldw	r2,-4(fp)
  80ffec:	10c5c83a 	sub	r2,r2,r3
  80fff0:	e0bfff15 	stw	r2,-4(fp)
  big_loops = us / (INT_MAX/
  (ALT_CPU_FREQ/(cycles_per_loop * 1000000)));

  if (big_loops)
  {
    for(i=0;i<big_loops;i++)
  80fff4:	e0bffc17 	ldw	r2,-16(fp)
  80fff8:	10800044 	addi	r2,r2,1
  80fffc:	e0bffc15 	stw	r2,-16(fp)
  810000:	e0fffc17 	ldw	r3,-16(fp)
  810004:	e0bffe17 	ldw	r2,-8(fp)
  810008:	18bfe616 	blt	r3,r2,80ffa4 <__alt_mem_onchip_mem+0xff807fa4>
      "\n\tbne %0,zero,0b"
      "\n1:"
      "\n\t.pushsection .debug_alt_sim_info"
      "\n\t.int 4, 0, 0b, 1b"
      "\n\t.popsection"
      :: "r" (us*(ALT_CPU_FREQ/(cycles_per_loop * 1000000))));
  81000c:	e0fffd17 	ldw	r3,-12(fp)
  810010:	008003f4 	movhi	r2,15
  810014:	10909004 	addi	r2,r2,16960
  810018:	1885383a 	mul	r2,r3,r2
  81001c:	100b883a 	mov	r5,r2
  810020:	0100bef4 	movhi	r4,763
  810024:	213c2004 	addi	r4,r4,-3968
  810028:	080c3740 	call	80c374 <__udivsi3>
  81002c:	1007883a 	mov	r3,r2
  810030:	e0bfff17 	ldw	r2,-4(fp)
  810034:	1885383a 	mul	r2,r3,r2
    /*
    * Do NOT Try to single step the asm statement below 
    * (single step will never return)
    * Step out of this function or set a breakpoint after the asm statements
    */
    __asm__ volatile (
  810038:	10bfffc4 	addi	r2,r2,-1
  81003c:	103ffe1e 	bne	r2,zero,810038 <__alt_mem_onchip_mem+0xff808038>
  810040:	00000d06 	br	810078 <alt_busy_sleep+0x140>
      "\n\tbgt %0,zero,0b"
      "\n1:"
      "\n\t.pushsection .debug_alt_sim_info"
      "\n\t.int 4, 0, 0b, 1b"
      "\n\t.popsection"
      :: "r" (us*(ALT_CPU_FREQ/(cycles_per_loop * 1000000))));
  810044:	e0fffd17 	ldw	r3,-12(fp)
  810048:	008003f4 	movhi	r2,15
  81004c:	10909004 	addi	r2,r2,16960
  810050:	1885383a 	mul	r2,r3,r2
  810054:	100b883a 	mov	r5,r2
  810058:	0100bef4 	movhi	r4,763
  81005c:	213c2004 	addi	r4,r4,-3968
  810060:	080c3740 	call	80c374 <__udivsi3>
  810064:	1007883a 	mov	r3,r2
  810068:	e0bfff17 	ldw	r2,-4(fp)
  81006c:	1885383a 	mul	r2,r3,r2
    /*
    * Do NOT Try to single step the asm statement below 
    * (single step will never return)
    * Step out of this function or set a breakpoint after the asm statements
    */
    __asm__ volatile (
  810070:	10bfffc4 	addi	r2,r2,-1
  810074:	00bffe16 	blt	zero,r2,810070 <__alt_mem_onchip_mem+0xff808070>
      "\n\t.int 4, 0, 0b, 1b"
      "\n\t.popsection"
      :: "r" (us*(ALT_CPU_FREQ/(cycles_per_loop * 1000000))));
  }
#endif /* #ifndef ALT_SIM_OPTIMIZE */
  return 0;
  810078:	0005883a 	mov	r2,zero
}
  81007c:	e037883a 	mov	sp,fp
  810080:	dfc00117 	ldw	ra,4(sp)
  810084:	df000017 	ldw	fp,0(sp)
  810088:	dec00204 	addi	sp,sp,8
  81008c:	f800283a 	ret

00810090 <alt_icache_flush>:
 * alt_icache_flush() is called to flush the instruction cache for a memory
 * region of length "len" bytes, starting at address "start".
 */

void alt_icache_flush (void* start, alt_u32 len)
{
  810090:	defffb04 	addi	sp,sp,-20
  810094:	df000415 	stw	fp,16(sp)
  810098:	df000404 	addi	fp,sp,16
  81009c:	e13ffe15 	stw	r4,-8(fp)
  8100a0:	e17fff15 	stw	r5,-4(fp)

  /*
   * This is the most we would ever need to flush.
   */
 
  if (len > NIOS2_ICACHE_SIZE)
  8100a4:	e0bfff17 	ldw	r2,-4(fp)
  8100a8:	10840070 	cmpltui	r2,r2,4097
  8100ac:	1000021e 	bne	r2,zero,8100b8 <alt_icache_flush+0x28>
  {
    len = NIOS2_ICACHE_SIZE;
  8100b0:	00840004 	movi	r2,4096
  8100b4:	e0bfff15 	stw	r2,-4(fp)
  }

  end = ((char*) start) + len;
  8100b8:	e0fffe17 	ldw	r3,-8(fp)
  8100bc:	e0bfff17 	ldw	r2,-4(fp)
  8100c0:	1885883a 	add	r2,r3,r2
  8100c4:	e0bffd15 	stw	r2,-12(fp)

  for (i = start; i < end; i+= NIOS2_ICACHE_LINE_SIZE)
  8100c8:	e0bffe17 	ldw	r2,-8(fp)
  8100cc:	e0bffc15 	stw	r2,-16(fp)
  8100d0:	00000506 	br	8100e8 <alt_icache_flush+0x58>
  { 
    __asm__ volatile ("flushi %0" :: "r" (i)); 
  8100d4:	e0bffc17 	ldw	r2,-16(fp)
  8100d8:	1000603a 	flushi	r2
    len = NIOS2_ICACHE_SIZE;
  }

  end = ((char*) start) + len;

  for (i = start; i < end; i+= NIOS2_ICACHE_LINE_SIZE)
  8100dc:	e0bffc17 	ldw	r2,-16(fp)
  8100e0:	10800804 	addi	r2,r2,32
  8100e4:	e0bffc15 	stw	r2,-16(fp)
  8100e8:	e0fffc17 	ldw	r3,-16(fp)
  8100ec:	e0bffd17 	ldw	r2,-12(fp)
  8100f0:	18bff836 	bltu	r3,r2,8100d4 <__alt_mem_onchip_mem+0xff8080d4>
   * For an unaligned flush request, we've got one more line left.
   * Note that this is dependent on NIOS2_ICACHE_LINE_SIZE to be a 
   * multiple of 2 (which it always is).
   */

  if (((alt_u32) start) & (NIOS2_ICACHE_LINE_SIZE - 1))
  8100f4:	e0bffe17 	ldw	r2,-8(fp)
  8100f8:	108007cc 	andi	r2,r2,31
  8100fc:	10000226 	beq	r2,zero,810108 <alt_icache_flush+0x78>
  {
    __asm__ volatile ("flushi %0" :: "r" (i));
  810100:	e0bffc17 	ldw	r2,-16(fp)
  810104:	1000603a 	flushi	r2
  /* 
   * Having flushed the cache, flush any stale instructions in the 
   * pipeline 
   */

  __asm__ volatile ("flushp");
  810108:	0000203a 	flushp

#endif /* NIOS2_ICACHE_SIZE > 0 */
}
  81010c:	0001883a 	nop
  810110:	e037883a 	mov	sp,fp
  810114:	df000017 	ldw	fp,0(sp)
  810118:	dec00104 	addi	sp,sp,4
  81011c:	f800283a 	ret

00810120 <alt_exception_cause_generated_bad_addr>:
 * Return: 1: BADADDR (bad_addr argument to handler) is valid
 *         0: BADADDR is not valid
 */
int 
alt_exception_cause_generated_bad_addr(alt_exception_cause cause)
{
  810120:	defffe04 	addi	sp,sp,-8
  810124:	df000115 	stw	fp,4(sp)
  810128:	df000104 	addi	fp,sp,4
  81012c:	e13fff15 	stw	r4,-4(fp)
  switch (cause) {
  810130:	e0bfff17 	ldw	r2,-4(fp)
  810134:	10bffe84 	addi	r2,r2,-6
  810138:	10c00428 	cmpgeui	r3,r2,16
  81013c:	18001a1e 	bne	r3,zero,8101a8 <alt_exception_cause_generated_bad_addr+0x88>
  810140:	100690ba 	slli	r3,r2,2
  810144:	00802074 	movhi	r2,129
  810148:	10805604 	addi	r2,r2,344
  81014c:	1885883a 	add	r2,r3,r2
  810150:	10800017 	ldw	r2,0(r2)
  810154:	1000683a 	jmp	r2
  810158:	00810198 	cmpnei	r2,zero,1030
  81015c:	00810198 	cmpnei	r2,zero,1030
  810160:	008101a8 	cmpgeui	r2,zero,1030
  810164:	008101a8 	cmpgeui	r2,zero,1030
  810168:	008101a8 	cmpgeui	r2,zero,1030
  81016c:	00810198 	cmpnei	r2,zero,1030
  810170:	008101a0 	cmpeqi	r2,zero,1030
  810174:	008101a8 	cmpgeui	r2,zero,1030
  810178:	00810198 	cmpnei	r2,zero,1030
  81017c:	00810198 	cmpnei	r2,zero,1030
  810180:	008101a8 	cmpgeui	r2,zero,1030
  810184:	00810198 	cmpnei	r2,zero,1030
  810188:	008101a0 	cmpeqi	r2,zero,1030
  81018c:	008101a8 	cmpgeui	r2,zero,1030
  810190:	008101a8 	cmpgeui	r2,zero,1030
  810194:	00810198 	cmpnei	r2,zero,1030
  case NIOS2_EXCEPTION_MISALIGNED_TARGET_PC:
  case NIOS2_EXCEPTION_TLB_READ_PERM_VIOLATION:
  case NIOS2_EXCEPTION_TLB_WRITE_PERM_VIOLATION:
  case NIOS2_EXCEPTION_MPU_DATA_REGION_VIOLATION:
  case NIOS2_EXCEPTION_ECC_DATA_ERR:
    return 1;
  810198:	00800044 	movi	r2,1
  81019c:	00000306 	br	8101ac <alt_exception_cause_generated_bad_addr+0x8c>

  case NIOS2_EXCEPTION_TLB_MISS:
  case NIOS2_EXCEPTION_ECC_TLB_ERR:
    return 0;
  8101a0:	0005883a 	mov	r2,zero
  8101a4:	00000106 	br	8101ac <alt_exception_cause_generated_bad_addr+0x8c>

  default:
    return 0;
  8101a8:	0005883a 	mov	r2,zero
  }
}
  8101ac:	e037883a 	mov	sp,fp
  8101b0:	df000017 	ldw	fp,0(sp)
  8101b4:	dec00104 	addi	sp,sp,4
  8101b8:	f800283a 	ret

008101bc <atexit>:
  8101bc:	200b883a 	mov	r5,r4
  8101c0:	000f883a 	mov	r7,zero
  8101c4:	000d883a 	mov	r6,zero
  8101c8:	0009883a 	mov	r4,zero
  8101cc:	08102841 	jmpi	810284 <__register_exitproc>

008101d0 <exit>:
  8101d0:	defffe04 	addi	sp,sp,-8
  8101d4:	000b883a 	mov	r5,zero
  8101d8:	dc000015 	stw	r16,0(sp)
  8101dc:	dfc00115 	stw	ra,4(sp)
  8101e0:	2021883a 	mov	r16,r4
  8101e4:	081039c0 	call	81039c <__call_exitprocs>
  8101e8:	00802074 	movhi	r2,129
  8101ec:	10895b04 	addi	r2,r2,9580
  8101f0:	11000017 	ldw	r4,0(r2)
  8101f4:	20800f17 	ldw	r2,60(r4)
  8101f8:	10000126 	beq	r2,zero,810200 <exit+0x30>
  8101fc:	103ee83a 	callr	r2
  810200:	8009883a 	mov	r4,r16
  810204:	081051c0 	call	81051c <_exit>

00810208 <memcmp>:
  810208:	01c000c4 	movi	r7,3
  81020c:	3980192e 	bgeu	r7,r6,810274 <memcmp+0x6c>
  810210:	2144b03a 	or	r2,r4,r5
  810214:	11c4703a 	and	r2,r2,r7
  810218:	10000f26 	beq	r2,zero,810258 <memcmp+0x50>
  81021c:	20800003 	ldbu	r2,0(r4)
  810220:	28c00003 	ldbu	r3,0(r5)
  810224:	10c0151e 	bne	r2,r3,81027c <memcmp+0x74>
  810228:	31bfff84 	addi	r6,r6,-2
  81022c:	01ffffc4 	movi	r7,-1
  810230:	00000406 	br	810244 <memcmp+0x3c>
  810234:	20800003 	ldbu	r2,0(r4)
  810238:	28c00003 	ldbu	r3,0(r5)
  81023c:	31bfffc4 	addi	r6,r6,-1
  810240:	10c00e1e 	bne	r2,r3,81027c <memcmp+0x74>
  810244:	21000044 	addi	r4,r4,1
  810248:	29400044 	addi	r5,r5,1
  81024c:	31fff91e 	bne	r6,r7,810234 <__alt_mem_onchip_mem+0xff808234>
  810250:	0005883a 	mov	r2,zero
  810254:	f800283a 	ret
  810258:	20c00017 	ldw	r3,0(r4)
  81025c:	28800017 	ldw	r2,0(r5)
  810260:	18bfee1e 	bne	r3,r2,81021c <__alt_mem_onchip_mem+0xff80821c>
  810264:	31bfff04 	addi	r6,r6,-4
  810268:	21000104 	addi	r4,r4,4
  81026c:	29400104 	addi	r5,r5,4
  810270:	39bff936 	bltu	r7,r6,810258 <__alt_mem_onchip_mem+0xff808258>
  810274:	303fe91e 	bne	r6,zero,81021c <__alt_mem_onchip_mem+0xff80821c>
  810278:	003ff506 	br	810250 <__alt_mem_onchip_mem+0xff808250>
  81027c:	10c5c83a 	sub	r2,r2,r3
  810280:	f800283a 	ret

00810284 <__register_exitproc>:
  810284:	defffa04 	addi	sp,sp,-24
  810288:	dc000315 	stw	r16,12(sp)
  81028c:	04002074 	movhi	r16,129
  810290:	84095b04 	addi	r16,r16,9580
  810294:	80c00017 	ldw	r3,0(r16)
  810298:	dc400415 	stw	r17,16(sp)
  81029c:	dfc00515 	stw	ra,20(sp)
  8102a0:	18805217 	ldw	r2,328(r3)
  8102a4:	2023883a 	mov	r17,r4
  8102a8:	10003726 	beq	r2,zero,810388 <__register_exitproc+0x104>
  8102ac:	10c00117 	ldw	r3,4(r2)
  8102b0:	010007c4 	movi	r4,31
  8102b4:	20c00e16 	blt	r4,r3,8102f0 <__register_exitproc+0x6c>
  8102b8:	1a000044 	addi	r8,r3,1
  8102bc:	8800221e 	bne	r17,zero,810348 <__register_exitproc+0xc4>
  8102c0:	18c00084 	addi	r3,r3,2
  8102c4:	18c7883a 	add	r3,r3,r3
  8102c8:	18c7883a 	add	r3,r3,r3
  8102cc:	12000115 	stw	r8,4(r2)
  8102d0:	10c7883a 	add	r3,r2,r3
  8102d4:	19400015 	stw	r5,0(r3)
  8102d8:	0005883a 	mov	r2,zero
  8102dc:	dfc00517 	ldw	ra,20(sp)
  8102e0:	dc400417 	ldw	r17,16(sp)
  8102e4:	dc000317 	ldw	r16,12(sp)
  8102e8:	dec00604 	addi	sp,sp,24
  8102ec:	f800283a 	ret
  8102f0:	00800034 	movhi	r2,0
  8102f4:	10800004 	addi	r2,r2,0
  8102f8:	10002626 	beq	r2,zero,810394 <__register_exitproc+0x110>
  8102fc:	01006404 	movi	r4,400
  810300:	d9400015 	stw	r5,0(sp)
  810304:	d9800115 	stw	r6,4(sp)
  810308:	d9c00215 	stw	r7,8(sp)
  81030c:	00000000 	call	0 <__alt_mem_sdram-0x800000>
  810310:	d9400017 	ldw	r5,0(sp)
  810314:	d9800117 	ldw	r6,4(sp)
  810318:	d9c00217 	ldw	r7,8(sp)
  81031c:	10001d26 	beq	r2,zero,810394 <__register_exitproc+0x110>
  810320:	81000017 	ldw	r4,0(r16)
  810324:	10000115 	stw	zero,4(r2)
  810328:	02000044 	movi	r8,1
  81032c:	22405217 	ldw	r9,328(r4)
  810330:	0007883a 	mov	r3,zero
  810334:	12400015 	stw	r9,0(r2)
  810338:	20805215 	stw	r2,328(r4)
  81033c:	10006215 	stw	zero,392(r2)
  810340:	10006315 	stw	zero,396(r2)
  810344:	883fde26 	beq	r17,zero,8102c0 <__alt_mem_onchip_mem+0xff8082c0>
  810348:	18c9883a 	add	r4,r3,r3
  81034c:	2109883a 	add	r4,r4,r4
  810350:	1109883a 	add	r4,r2,r4
  810354:	21802215 	stw	r6,136(r4)
  810358:	01800044 	movi	r6,1
  81035c:	12406217 	ldw	r9,392(r2)
  810360:	30cc983a 	sll	r6,r6,r3
  810364:	4992b03a 	or	r9,r9,r6
  810368:	12406215 	stw	r9,392(r2)
  81036c:	21c04215 	stw	r7,264(r4)
  810370:	01000084 	movi	r4,2
  810374:	893fd21e 	bne	r17,r4,8102c0 <__alt_mem_onchip_mem+0xff8082c0>
  810378:	11006317 	ldw	r4,396(r2)
  81037c:	218cb03a 	or	r6,r4,r6
  810380:	11806315 	stw	r6,396(r2)
  810384:	003fce06 	br	8102c0 <__alt_mem_onchip_mem+0xff8082c0>
  810388:	18805304 	addi	r2,r3,332
  81038c:	18805215 	stw	r2,328(r3)
  810390:	003fc606 	br	8102ac <__alt_mem_onchip_mem+0xff8082ac>
  810394:	00bfffc4 	movi	r2,-1
  810398:	003fd006 	br	8102dc <__alt_mem_onchip_mem+0xff8082dc>

0081039c <__call_exitprocs>:
  81039c:	defff504 	addi	sp,sp,-44
  8103a0:	df000915 	stw	fp,36(sp)
  8103a4:	dd400615 	stw	r21,24(sp)
  8103a8:	dc800315 	stw	r18,12(sp)
  8103ac:	dfc00a15 	stw	ra,40(sp)
  8103b0:	ddc00815 	stw	r23,32(sp)
  8103b4:	dd800715 	stw	r22,28(sp)
  8103b8:	dd000515 	stw	r20,20(sp)
  8103bc:	dcc00415 	stw	r19,16(sp)
  8103c0:	dc400215 	stw	r17,8(sp)
  8103c4:	dc000115 	stw	r16,4(sp)
  8103c8:	d9000015 	stw	r4,0(sp)
  8103cc:	2839883a 	mov	fp,r5
  8103d0:	04800044 	movi	r18,1
  8103d4:	057fffc4 	movi	r21,-1
  8103d8:	00802074 	movhi	r2,129
  8103dc:	10895b04 	addi	r2,r2,9580
  8103e0:	12000017 	ldw	r8,0(r2)
  8103e4:	45005217 	ldw	r20,328(r8)
  8103e8:	44c05204 	addi	r19,r8,328
  8103ec:	a0001c26 	beq	r20,zero,810460 <__call_exitprocs+0xc4>
  8103f0:	a0800117 	ldw	r2,4(r20)
  8103f4:	15ffffc4 	addi	r23,r2,-1
  8103f8:	b8000d16 	blt	r23,zero,810430 <__call_exitprocs+0x94>
  8103fc:	14000044 	addi	r16,r2,1
  810400:	8421883a 	add	r16,r16,r16
  810404:	8421883a 	add	r16,r16,r16
  810408:	84402004 	addi	r17,r16,128
  81040c:	a463883a 	add	r17,r20,r17
  810410:	a421883a 	add	r16,r20,r16
  810414:	e0001e26 	beq	fp,zero,810490 <__call_exitprocs+0xf4>
  810418:	80804017 	ldw	r2,256(r16)
  81041c:	e0801c26 	beq	fp,r2,810490 <__call_exitprocs+0xf4>
  810420:	bdffffc4 	addi	r23,r23,-1
  810424:	843fff04 	addi	r16,r16,-4
  810428:	8c7fff04 	addi	r17,r17,-4
  81042c:	bd7ff91e 	bne	r23,r21,810414 <__alt_mem_onchip_mem+0xff808414>
  810430:	00800034 	movhi	r2,0
  810434:	10800004 	addi	r2,r2,0
  810438:	10000926 	beq	r2,zero,810460 <__call_exitprocs+0xc4>
  81043c:	a0800117 	ldw	r2,4(r20)
  810440:	1000301e 	bne	r2,zero,810504 <__call_exitprocs+0x168>
  810444:	a0800017 	ldw	r2,0(r20)
  810448:	10003226 	beq	r2,zero,810514 <__call_exitprocs+0x178>
  81044c:	a009883a 	mov	r4,r20
  810450:	98800015 	stw	r2,0(r19)
  810454:	00000000 	call	0 <__alt_mem_sdram-0x800000>
  810458:	9d000017 	ldw	r20,0(r19)
  81045c:	a03fe41e 	bne	r20,zero,8103f0 <__alt_mem_onchip_mem+0xff8083f0>
  810460:	dfc00a17 	ldw	ra,40(sp)
  810464:	df000917 	ldw	fp,36(sp)
  810468:	ddc00817 	ldw	r23,32(sp)
  81046c:	dd800717 	ldw	r22,28(sp)
  810470:	dd400617 	ldw	r21,24(sp)
  810474:	dd000517 	ldw	r20,20(sp)
  810478:	dcc00417 	ldw	r19,16(sp)
  81047c:	dc800317 	ldw	r18,12(sp)
  810480:	dc400217 	ldw	r17,8(sp)
  810484:	dc000117 	ldw	r16,4(sp)
  810488:	dec00b04 	addi	sp,sp,44
  81048c:	f800283a 	ret
  810490:	a0800117 	ldw	r2,4(r20)
  810494:	80c00017 	ldw	r3,0(r16)
  810498:	10bfffc4 	addi	r2,r2,-1
  81049c:	15c01426 	beq	r2,r23,8104f0 <__call_exitprocs+0x154>
  8104a0:	80000015 	stw	zero,0(r16)
  8104a4:	183fde26 	beq	r3,zero,810420 <__alt_mem_onchip_mem+0xff808420>
  8104a8:	95c8983a 	sll	r4,r18,r23
  8104ac:	a0806217 	ldw	r2,392(r20)
  8104b0:	a5800117 	ldw	r22,4(r20)
  8104b4:	2084703a 	and	r2,r4,r2
  8104b8:	10000b26 	beq	r2,zero,8104e8 <__call_exitprocs+0x14c>
  8104bc:	a0806317 	ldw	r2,396(r20)
  8104c0:	2088703a 	and	r4,r4,r2
  8104c4:	20000c1e 	bne	r4,zero,8104f8 <__call_exitprocs+0x15c>
  8104c8:	89400017 	ldw	r5,0(r17)
  8104cc:	d9000017 	ldw	r4,0(sp)
  8104d0:	183ee83a 	callr	r3
  8104d4:	a0800117 	ldw	r2,4(r20)
  8104d8:	15bfbf1e 	bne	r2,r22,8103d8 <__alt_mem_onchip_mem+0xff8083d8>
  8104dc:	98800017 	ldw	r2,0(r19)
  8104e0:	153fcf26 	beq	r2,r20,810420 <__alt_mem_onchip_mem+0xff808420>
  8104e4:	003fbc06 	br	8103d8 <__alt_mem_onchip_mem+0xff8083d8>
  8104e8:	183ee83a 	callr	r3
  8104ec:	003ff906 	br	8104d4 <__alt_mem_onchip_mem+0xff8084d4>
  8104f0:	a5c00115 	stw	r23,4(r20)
  8104f4:	003feb06 	br	8104a4 <__alt_mem_onchip_mem+0xff8084a4>
  8104f8:	89000017 	ldw	r4,0(r17)
  8104fc:	183ee83a 	callr	r3
  810500:	003ff406 	br	8104d4 <__alt_mem_onchip_mem+0xff8084d4>
  810504:	a0800017 	ldw	r2,0(r20)
  810508:	a027883a 	mov	r19,r20
  81050c:	1029883a 	mov	r20,r2
  810510:	003fb606 	br	8103ec <__alt_mem_onchip_mem+0xff8083ec>
  810514:	0005883a 	mov	r2,zero
  810518:	003ffb06 	br	810508 <__alt_mem_onchip_mem+0xff808508>

0081051c <_exit>:
 *
 * ALT_EXIT is mapped onto the _exit() system call in alt_syscall.h
 */

void ALT_EXIT (int exit_code)
{
  81051c:	defffd04 	addi	sp,sp,-12
  810520:	df000215 	stw	fp,8(sp)
  810524:	df000204 	addi	fp,sp,8
  810528:	e13fff15 	stw	r4,-4(fp)
  ALT_LOG_PRINT_BOOT("[alt_exit.c] Entering _exit() function.\r\n");
  ALT_LOG_PRINT_BOOT("[alt_exit.c] Exit code from main was %d.\r\n",exit_code);
  /* Stop all other threads */

  ALT_LOG_PRINT_BOOT("[alt_exit.c] Calling ALT_OS_STOP().\r\n");
  ALT_OS_STOP();
  81052c:	0001883a 	nop
  810530:	e0bfff17 	ldw	r2,-4(fp)
  810534:	e0bffe15 	stw	r2,-8(fp)
/*
 * Routine called on exit.
 */
static ALT_INLINE ALT_ALWAYS_INLINE void alt_sim_halt(int exit_code)
{
  register int r2 asm ("r2") = exit_code;
  810538:	e0bffe17 	ldw	r2,-8(fp)
  __asm__ volatile ("\n0:\n\taddi %0,%0, -1\n\tbgt %0,zero,0b" : : "r" (ALT_CPU_FREQ/100) ); /* Delay for >30ms */

  __asm__ volatile ("break 2" : : "r"(r2), "r"(r3) ALT_GMON_DATA );

#else /* !DEBUG_STUB */
  if (r2) {
  81053c:	10000226 	beq	r2,zero,810548 <_exit+0x2c>
    ALT_SIM_FAIL();
  810540:	002af070 	cmpltui	zero,zero,43969
  810544:	00000106 	br	81054c <_exit+0x30>
  } else {
    ALT_SIM_PASS();
  810548:	002af0b0 	cmpltui	zero,zero,43970
  ALT_SIM_HALT(exit_code);

  /* spin forever, since there's no where to go back to */

  ALT_LOG_PRINT_BOOT("[alt_exit.c] Spinning forever.\r\n");
  while (1);
  81054c:	003fff06 	br	81054c <__alt_mem_onchip_mem+0xff80854c>
